
out.elf:     file format elf32-tradlittlemips


Disassembly of section .config_BFC02FF0:

bfc02ff0 <__config_BFC02FF0>:
bfc02ff0:	ff ff fe fa                                         ....

Disassembly of section .config_BFC02FF4:

bfc02ff4 <__config_BFC02FF4>:
bfc02ff4:	d9 79 f8 ff                                         .y..

Disassembly of section .config_BFC02FF8:

bfc02ff8 <__config_BFC02FF8>:
bfc02ff8:	db ce 6c ff                                         ..l.

Disassembly of section .config_BFC02FFC:

bfc02ffc <__config_BFC02FFC>:
bfc02ffc:	ff ff ff 7e                                         ...~

Disassembly of section .reset:

bd001970 <_reset>:
bd001970:	0f40065e 	jal	bd001978 <_startup>
bd001974:	00000000 	nop

bd001978 <_startup>:
bd001978:	401a6000 	mfc0	k0,c0_status
bd00197c:	7f5a04c0 	ext	k0,k0,0x13,0x1
bd001980:	13400005 	beqz	k0,bd001998 <_no_nmi>
bd001984:	00000000 	nop
bd001988:	3c1a9d01 	lui	k0,0x9d01
bd00198c:	275abbc0 	addiu	k0,k0,-17472
bd001990:	03400008 	jr	k0
bd001994:	00000000 	nop

bd001998 <_no_nmi>:
bd001998:	3c1da002 	lui	sp,0xa002
bd00199c:	27bdfff0 	addiu	sp,sp,-16
bd0019a0:	3c1ca000 	lui	gp,0xa000
bd0019a4:	279c7ff0 	addiu	gp,gp,32752
bd0019a8:	40096002 	mfc0	t1,c0_srsctl
bd0019ac:	01205820 	add	t3,t1,zero
bd0019b0:	7d2a1e80 	ext	t2,t1,0x1a,0x4
bd0019b4:	7d494984 	ins	t1,t2,0x6,0x4
bd0019b8:	40896002 	mtc0	t1,c0_srsctl
bd0019bc:	000000c0 	ehb
bd0019c0:	41dce000 	wrpgpr	gp,gp
bd0019c4:	408b6002 	mtc0	t3,c0_srsctl
bd0019c8:	000000c0 	ehb
bd0019cc:	3c089d01 	lui	t0,0x9d01
bd0019d0:	2508bc64 	addiu	t0,t0,-17308
bd0019d4:	0100f809 	jalr	t0
bd0019d8:	00000000 	nop

bd0019dc <_start_bss_init>:
bd0019dc:	3c08a000 	lui	t0,0xa000
bd0019e0:	2508000c 	addiu	t0,t0,12
bd0019e4:	3c09a000 	lui	t1,0xa000
bd0019e8:	25290020 	addiu	t1,t1,32
bd0019ec:	10000003 	b	bd0019fc <_bss_check>
bd0019f0:	00000000 	nop

bd0019f4 <_bss_init>:
bd0019f4:	ad000000 	sw	zero,0(t0)
bd0019f8:	25080004 	addiu	t0,t0,4

bd0019fc <_bss_check>:
bd0019fc:	0109082b 	sltu	at,t0,t1
bd001a00:	1420fffc 	bnez	at,bd0019f4 <_bss_init>
bd001a04:	00000000 	nop
bd001a08:	3c089d01 	lui	t0,0x9d01
bd001a0c:	2508a444 	addiu	t0,t0,-23484
bd001a10:	0100f809 	jalr	t0
bd001a14:	00000000 	nop
bd001a18:	3c090000 	lui	t1,0x0
bd001a1c:	25290000 	addiu	t1,t1,0
bd001a20:	11200010 	beqz	t1,bd001a64 <_ramfunc_done>
bd001a24:	00000000 	nop
bd001a28:	3c090002 	lui	t1,0x2
bd001a2c:	25290000 	addiu	t1,t1,0
bd001a30:	3c0abf88 	lui	t2,0xbf88
bd001a34:	254a2010 	addiu	t2,t2,8208
bd001a38:	ad490000 	sw	t1,0(t2)
bd001a3c:	3c090002 	lui	t1,0x2
bd001a40:	25290000 	addiu	t1,t1,0
bd001a44:	3c0abf88 	lui	t2,0xbf88
bd001a48:	254a2020 	addiu	t2,t2,8224
bd001a4c:	ad490000 	sw	t1,0(t2)
bd001a50:	3c090002 	lui	t1,0x2
bd001a54:	25290000 	addiu	t1,t1,0
bd001a58:	3c0abf88 	lui	t2,0xbf88
bd001a5c:	254a2030 	addiu	t2,t2,8240
bd001a60:	ad490000 	sw	t1,0(t2)

bd001a64 <_ramfunc_done>:
bd001a64:	40804800 	mtc0	zero,c0_count
bd001a68:	240affff 	li	t2,-1
bd001a6c:	408a5800 	mtc0	t2,c0_compare
bd001a70:	3c080040 	lui	t0,0x40
bd001a74:	400a6000 	mfc0	t2,c0_status
bd001a78:	010a5025 	or	t2,t0,t2
bd001a7c:	408a6000 	mtc0	t2,c0_status
bd001a80:	3c099d00 	lui	t1,0x9d00
bd001a84:	25290000 	addiu	t1,t1,0
bd001a88:	000000c0 	ehb
bd001a8c:	40897801 	mtc0	t1,c0_ebase
bd001a90:	3c090000 	lui	t1,0x0
bd001a94:	25290001 	addiu	t1,t1,1
bd001a98:	240a0000 	li	t2,0
bd001a9c:	7d2a4944 	ins	t2,t1,0x5,0x5
bd001aa0:	408a6001 	mtc0	t2,c0_intctl
bd001aa4:	3c090080 	lui	t1,0x80
bd001aa8:	40896800 	mtc0	t1,c0_cause
bd001aac:	40088000 	mfc0	t0,c0_config
bd001ab0:	7d090580 	ext	t1,t0,0x16,0x1
bd001ab4:	00094c40 	sll	t1,t1,0x11
bd001ab8:	40086000 	mfc0	t0,c0_status
bd001abc:	3c010058 	lui	at,0x58
bd001ac0:	01014024 	and	t0,t0,at
bd001ac4:	01284025 	or	t0,t1,t0
bd001ac8:	40886000 	mtc0	t0,c0_status
bd001acc:	000000c0 	ehb
bd001ad0:	3c089d01 	lui	t0,0x9d01
bd001ad4:	2508bc6c 	addiu	t0,t0,-17300
bd001ad8:	0100f809 	jalr	t0
bd001adc:	00000000 	nop
bd001ae0:	40086000 	mfc0	t0,c0_status
bd001ae4:	3c01ffbf 	lui	at,0xffbf
bd001ae8:	3421ffff 	ori	at,at,0xffff
bd001aec:	01014024 	and	t0,t0,at
bd001af0:	40886000 	mtc0	t0,c0_status
bd001af4:	30840000 	andi	a0,a0,0x0
bd001af8:	30a50000 	andi	a1,a1,0x0
bd001afc:	3c089d01 	lui	t0,0x9d01
bd001b00:	2508afd0 	addiu	t0,t0,-20528
bd001b04:	01000008 	jr	t0
bd001b08:	00000000 	nop

Disassembly of section .bev_excpt:

bd001cf0 <_bev_exception>:
bd001cf0:	3c1a9d01 	lui	k0,0x9d01
bd001cf4:	275ab294 	addiu	k0,k0,-19820
bd001cf8:	03400008 	jr	k0
bd001cfc:	00000000 	nop

Disassembly of section .app_excpt:

9d000180 <_gen_exception>:
9d000180:	3c1a9d01 	lui	k0,0x9d01
9d000184:	275a982c 	addiu	k0,k0,-26580
9d000188:	03400008 	jr	k0
9d00018c:	00000000 	nop

Disassembly of section .vector_0:

9d000200 <__vector_dispatch_0>:
9d000200:	0b402cc9 	j	9d00b324 <_DefaultInterrupt>
9d000204:	00000000 	nop

Disassembly of section .vector_1:

9d000220 <__vector_dispatch_1>:
9d000220:	0b402cc9 	j	9d00b324 <_DefaultInterrupt>
9d000224:	00000000 	nop

Disassembly of section .vector_2:

9d000240 <__vector_dispatch_2>:
9d000240:	0b402cc9 	j	9d00b324 <_DefaultInterrupt>
9d000244:	00000000 	nop

Disassembly of section .vector_3:

9d000260 <__vector_dispatch_3>:
9d000260:	0b402cc9 	j	9d00b324 <_DefaultInterrupt>
9d000264:	00000000 	nop

Disassembly of section .vector_4:

9d000280 <__vector_dispatch_4>:
9d000280:	0b402cc9 	j	9d00b324 <_DefaultInterrupt>
9d000284:	00000000 	nop

Disassembly of section .vector_5:

9d0002a0 <__vector_dispatch_5>:
9d0002a0:	0b402cc9 	j	9d00b324 <_DefaultInterrupt>
9d0002a4:	00000000 	nop

Disassembly of section .vector_6:

9d0002c0 <__vector_dispatch_6>:
9d0002c0:	0b402cc9 	j	9d00b324 <_DefaultInterrupt>
9d0002c4:	00000000 	nop

Disassembly of section .vector_7:

9d0002e0 <__vector_dispatch_7>:
9d0002e0:	0b402cc9 	j	9d00b324 <_DefaultInterrupt>
9d0002e4:	00000000 	nop

Disassembly of section .vector_8:

9d000300 <__vector_dispatch_8>:
9d000300:	0b4010bd 	j	9d0042f4 <Timer2ISR>
9d000304:	00000000 	nop

Disassembly of section .vector_9:

9d000320 <__vector_dispatch_9>:
9d000320:	0b402cc9 	j	9d00b324 <_DefaultInterrupt>
9d000324:	00000000 	nop

Disassembly of section .vector_10:

9d000340 <__vector_dispatch_10>:
9d000340:	0b402cc9 	j	9d00b324 <_DefaultInterrupt>
9d000344:	00000000 	nop

Disassembly of section .vector_11:

9d000360 <__vector_dispatch_11>:
9d000360:	0b402cc9 	j	9d00b324 <_DefaultInterrupt>
9d000364:	00000000 	nop

Disassembly of section .vector_12:

9d000380 <__vector_dispatch_12>:
9d000380:	0b402cc9 	j	9d00b324 <_DefaultInterrupt>
9d000384:	00000000 	nop

Disassembly of section .vector_13:

9d0003a0 <__vector_dispatch_13>:
9d0003a0:	0b402cc9 	j	9d00b324 <_DefaultInterrupt>
9d0003a4:	00000000 	nop

Disassembly of section .vector_14:

9d0003c0 <__vector_dispatch_14>:
9d0003c0:	0b402cc9 	j	9d00b324 <_DefaultInterrupt>
9d0003c4:	00000000 	nop

Disassembly of section .vector_15:

9d0003e0 <__vector_dispatch_15>:
9d0003e0:	0b402cc9 	j	9d00b324 <_DefaultInterrupt>
9d0003e4:	00000000 	nop

Disassembly of section .vector_16:

9d000400 <__vector_dispatch_16>:
9d000400:	0b402cc9 	j	9d00b324 <_DefaultInterrupt>
9d000404:	00000000 	nop

Disassembly of section .vector_17:

9d000420 <__vector_dispatch_17>:
9d000420:	0b402cc9 	j	9d00b324 <_DefaultInterrupt>
9d000424:	00000000 	nop

Disassembly of section .vector_18:

9d000440 <__vector_dispatch_18>:
9d000440:	0b402cc9 	j	9d00b324 <_DefaultInterrupt>
9d000444:	00000000 	nop

Disassembly of section .vector_19:

9d000460 <__vector_dispatch_19>:
9d000460:	0b402cc9 	j	9d00b324 <_DefaultInterrupt>
9d000464:	00000000 	nop

Disassembly of section .vector_20:

9d000480 <__vector_dispatch_20>:
9d000480:	0b402cc9 	j	9d00b324 <_DefaultInterrupt>
9d000484:	00000000 	nop

Disassembly of section .vector_21:

9d0004a0 <__vector_dispatch_21>:
9d0004a0:	0b402cc9 	j	9d00b324 <_DefaultInterrupt>
9d0004a4:	00000000 	nop

Disassembly of section .vector_22:

9d0004c0 <__vector_dispatch_22>:
9d0004c0:	0b402cc9 	j	9d00b324 <_DefaultInterrupt>
9d0004c4:	00000000 	nop

Disassembly of section .vector_23:

9d0004e0 <__vector_dispatch_23>:
9d0004e0:	0b402cc9 	j	9d00b324 <_DefaultInterrupt>
9d0004e4:	00000000 	nop

Disassembly of section .vector_24:

9d000500 <__vector_dispatch_24>:
9d000500:	0b402cc9 	j	9d00b324 <_DefaultInterrupt>
9d000504:	00000000 	nop

Disassembly of section .vector_25:

9d000520 <__vector_dispatch_25>:
9d000520:	0b402cc9 	j	9d00b324 <_DefaultInterrupt>
9d000524:	00000000 	nop

Disassembly of section .vector_26:

9d000540 <__vector_dispatch_26>:
9d000540:	0b402cc9 	j	9d00b324 <_DefaultInterrupt>
9d000544:	00000000 	nop

Disassembly of section .vector_27:

9d000560 <__vector_dispatch_27>:
9d000560:	0b402cc9 	j	9d00b324 <_DefaultInterrupt>
9d000564:	00000000 	nop

Disassembly of section .vector_28:

9d000580 <__vector_dispatch_28>:
9d000580:	0b402cc9 	j	9d00b324 <_DefaultInterrupt>
9d000584:	00000000 	nop

Disassembly of section .vector_29:

9d0005a0 <__vector_dispatch_29>:
9d0005a0:	0b402cc9 	j	9d00b324 <_DefaultInterrupt>
9d0005a4:	00000000 	nop

Disassembly of section .vector_30:

9d0005c0 <__vector_dispatch_30>:
9d0005c0:	0b402cc9 	j	9d00b324 <_DefaultInterrupt>
9d0005c4:	00000000 	nop

Disassembly of section .vector_31:

9d0005e0 <__vector_dispatch_31>:
9d0005e0:	0b402cc9 	j	9d00b324 <_DefaultInterrupt>
9d0005e4:	00000000 	nop

Disassembly of section .vector_32:

9d000600 <__vector_dispatch_32>:
9d000600:	0b402cc9 	j	9d00b324 <_DefaultInterrupt>
9d000604:	00000000 	nop

Disassembly of section .vector_33:

9d000620 <__vector_dispatch_33>:
9d000620:	0b402cc9 	j	9d00b324 <_DefaultInterrupt>
9d000624:	00000000 	nop

Disassembly of section .vector_34:

9d000640 <__vector_dispatch_34>:
9d000640:	0b402cc9 	j	9d00b324 <_DefaultInterrupt>
9d000644:	00000000 	nop

Disassembly of section .vector_35:

9d000660 <__vector_dispatch_35>:
9d000660:	0b402cc9 	j	9d00b324 <_DefaultInterrupt>
9d000664:	00000000 	nop

Disassembly of section .vector_36:

9d000680 <__vector_dispatch_36>:
9d000680:	0b402cc9 	j	9d00b324 <_DefaultInterrupt>
9d000684:	00000000 	nop

Disassembly of section .vector_37:

9d0006a0 <__vector_dispatch_37>:
9d0006a0:	0b402cc9 	j	9d00b324 <_DefaultInterrupt>
9d0006a4:	00000000 	nop

Disassembly of section .vector_38:

9d0006c0 <__vector_dispatch_38>:
9d0006c0:	0b402cc9 	j	9d00b324 <_DefaultInterrupt>
9d0006c4:	00000000 	nop

Disassembly of section .vector_39:

9d0006e0 <__vector_dispatch_39>:
9d0006e0:	0b402cc9 	j	9d00b324 <_DefaultInterrupt>
9d0006e4:	00000000 	nop

Disassembly of section .vector_40:

9d000700 <__vector_dispatch_40>:
9d000700:	0b402cc9 	j	9d00b324 <_DefaultInterrupt>
9d000704:	00000000 	nop

Disassembly of section .vector_41:

9d000720 <__vector_dispatch_41>:
9d000720:	0b402cc9 	j	9d00b324 <_DefaultInterrupt>
9d000724:	00000000 	nop

Disassembly of section .vector_42:

9d000740 <__vector_dispatch_42>:
9d000740:	0b402cc9 	j	9d00b324 <_DefaultInterrupt>
9d000744:	00000000 	nop

Disassembly of section .vector_43:

9d000760 <__vector_dispatch_43>:
9d000760:	0b402cc9 	j	9d00b324 <_DefaultInterrupt>
9d000764:	00000000 	nop

Disassembly of section .vector_44:

9d000780 <__vector_dispatch_44>:
9d000780:	0b402cc9 	j	9d00b324 <_DefaultInterrupt>
9d000784:	00000000 	nop

Disassembly of section .vector_45:

9d0007a0 <__vector_dispatch_45>:
9d0007a0:	0b402cc9 	j	9d00b324 <_DefaultInterrupt>
9d0007a4:	00000000 	nop

Disassembly of section .vector_46:

9d0007c0 <__vector_dispatch_46>:
9d0007c0:	0b402cc9 	j	9d00b324 <_DefaultInterrupt>
9d0007c4:	00000000 	nop

Disassembly of section .vector_47:

9d0007e0 <__vector_dispatch_47>:
9d0007e0:	0b402cc9 	j	9d00b324 <_DefaultInterrupt>
9d0007e4:	00000000 	nop

Disassembly of section .vector_48:

9d000800 <__vector_dispatch_48>:
9d000800:	0b402cc9 	j	9d00b324 <_DefaultInterrupt>
9d000804:	00000000 	nop

Disassembly of section .vector_49:

9d000820 <__vector_dispatch_49>:
9d000820:	0b402cc9 	j	9d00b324 <_DefaultInterrupt>
9d000824:	00000000 	nop

Disassembly of section .vector_50:

9d000840 <__vector_dispatch_50>:
9d000840:	0b402cc9 	j	9d00b324 <_DefaultInterrupt>
9d000844:	00000000 	nop

Disassembly of section .vector_51:

9d000860 <__vector_dispatch_51>:
9d000860:	0b402cc9 	j	9d00b324 <_DefaultInterrupt>
9d000864:	00000000 	nop

Disassembly of section .rodata:

9d001e00 <.rodata>:
9d001e00:	25206625 	addiu	zero,t1,26149
9d001e04:	00000066 	0x66
9d001e08:	25206425 	addiu	zero,t1,25637
9d001e0c:	64252064 	0x64252064
9d001e10:	00000a0d 	break	0x0,0x28
9d001e14:	42c80000 	c0	0xc80000
9d001e18:	42480000 	c0	0x480000
	...
9d001e24:	40590000 	cfc0	t9,c0_index
9d001e28:	6c696e28 	0x6c696e28
9d001e2c:	00000029 	0x29
9d001e30:	00666e69 	0x666e69
9d001e34:	006e616e 	0x6e616e
9d001e38:	69666e69 	0x69666e69
9d001e3c:	7974696e 	0x7974696e
9d001e40:	00000000 	nop
9d001e44:	006e616e 	0x6e616e
9d001e48:	ffffffff 	sdc3	$31,-1(ra)
9d001e4c:	7fefffff 	0x7fefffff
9d001e50:	00000000 	nop
9d001e54:	00100000 	sll	zero,s0,0x0
9d001e58:	00000000 	nop
9d001e5c:	41cdcd65 	0x41cdcd65
9d001e60:	00000000 	nop
9d001e64:	3ff00000 	0x3ff00000
9d001e68:	00000000 	nop
9d001e6c:	3fd00000 	0x3fd00000
9d001e70:	00000000 	nop
9d001e74:	3fe80000 	0x3fe80000
9d001e78:	00000000 	nop
9d001e7c:	3fe00000 	0x3fe00000
9d001e80:	00000000 	nop
9d001e84:	43400000 	c0	0x1400000
9d001e88:	00000000 	nop
9d001e8c:	fff00000 	sdc3	$16,0(ra)
9d001e90:	ffffffff 	sdc3	$31,-1(ra)
9d001e94:	7ff7ffff 	0x7ff7ffff
9d001e98:	00000000 	nop
9d001e9c:	7ff00000 	ext	s0,ra,0x0,0x1
9d001ea0:	00000000 	nop
9d001ea4:	3fb00000 	0x3fb00000
9d001ea8:	00000000 	nop
9d001eac:	c08ff000 	ll	t7,-4096(a0)
9d001eb0:	00000000 	nop
9d001eb4:	3ff00000 	0x3ff00000
9d001eb8:	00000000 	nop
9d001ebc:	3fe00000 	0x3fe00000
9d001ec0:	30773b76 	andi	s7,v1,0x3b76
9d001ec4:	7fde42d1 	pick.ph	t0,s8,s8
9d001ec8:	00000000 	nop
9d001ecc:	7fe00000 	ext	zero,ra,0x0,0x1
9d001ed0:	00000000 	nop
9d001ed4:	03600000 	0x3600000
9d001ed8:	00000000 	nop
9d001edc:	41f00000 	0x41f00000

Disassembly of section ._debug_exception:

bfc00480 <__DbgExecReturn>:
bfc00480:	409bf800 	mtc0	k1,c0_desave
bfc00484:	000000c0 	ehb
bfc00488:	3c1b9d01 	lui	k1,0x9d01
bfc0048c:	277bb36c 	addiu	k1,k1,-19604
bfc00490:	13600002 	beqz	k1,bfc0049c <__DbgExecReturn+0x1c>
bfc00494:	00000000 	nop
bfc00498:	409bc000 	mtc0	k1,c0_depc
bfc0049c:	401bf800 	mfc0	k1,c0_desave
bfc004a0:	000000c0 	ehb
bfc004a4:	4200001f 	deret
bfc004a8:	00000000 	nop

Disassembly of section .text.decfloat:

9d001ee0 <decfloat>:
9d001ee0:	27bdfdb0 	addiu	sp,sp,-592
9d001ee4:	afb30234 	sw	s3,564(sp)
9d001ee8:	afb1022c 	sw	s1,556(sp)
9d001eec:	afb00228 	sw	s0,552(sp)
9d001ef0:	afbf024c 	sw	ra,588(sp)
9d001ef4:	afbe0248 	sw	s8,584(sp)
9d001ef8:	afb70244 	sw	s7,580(sp)
9d001efc:	afb60240 	sw	s6,576(sp)
9d001f00:	afb5023c 	sw	s5,572(sp)
9d001f04:	afb40238 	sw	s4,568(sp)
9d001f08:	afb20230 	sw	s2,560(sp)
9d001f0c:	00808825 	move	s1,a0
9d001f10:	00a01025 	move	v0,a1
9d001f14:	afa60258 	sw	a2,600(sp)
9d001f18:	afa7025c 	sw	a3,604(sp)
9d001f1c:	00009825 	move	s3,zero
9d001f20:	24100030 	li	s0,48
9d001f24:	5050004e 	beql	v0,s0,9d002060 <decfloat+0x180>
9d001f28:	8e22003c 	lw	v0,60(s1)
9d001f2c:	2403002e 	li	v1,46
9d001f30:	1443006c 	bne	v0,v1,9d0020e4 <decfloat+0x204>
9d001f34:	00009025 	move	s2,zero
9d001f38:	8e22003c 	lw	v0,60(s1)
9d001f3c:	8e23004c 	lw	v1,76(s1)
9d001f40:	0043182b 	sltu	v1,v0,v1
9d001f44:	10600052 	beqz	v1,9d002090 <decfloat+0x1b0>
9d001f48:	24430001 	addiu	v1,v0,1
9d001f4c:	ae23003c 	sw	v1,60(s1)
9d001f50:	90420000 	lbu	v0,0(v0)
9d001f54:	00008025 	move	s0,zero
9d001f58:	0000a025 	move	s4,zero
9d001f5c:	24150030 	li	s5,48
9d001f60:	5055004f 	beql	v0,s5,9d0020a0 <decfloat+0x1c0>
9d001f64:	2602ffff 	addiu	v0,s0,-1
9d001f68:	24120001 	li	s2,1
9d001f6c:	afa00010 	sw	zero,16(sp)
9d001f70:	0000b825 	move	s7,zero
9d001f74:	0000f025 	move	s8,zero
9d001f78:	00003025 	move	a2,zero
9d001f7c:	0000b025 	move	s6,zero
9d001f80:	0000a825 	move	s5,zero
9d001f84:	2407002e 	li	a3,46
9d001f88:	24090030 	li	t1,48
9d001f8c:	240a0009 	li	t2,9
9d001f90:	244bffd0 	addiu	t3,v0,-48
9d001f94:	2d64000a 	sltiu	a0,t3,10
9d001f98:	14800055 	bnez	a0,9d0020f0 <decfloat+0x210>
9d001f9c:	00000000 	nop
9d001fa0:	10470055 	beq	v0,a3,9d0020f8 <decfloat+0x218>
9d001fa4:	00000000 	nop
9d001fa8:	03d2800a 	movz	s0,s8,s2
9d001fac:	00d2a00a 	movz	s4,a2,s2
9d001fb0:	12600314 	beqz	s3,9d002c04 <decfloat+0xd24>
9d001fb4:	34430020 	ori	v1,v0,0x20
9d001fb8:	24040065 	li	a0,101
9d001fbc:	14640330 	bne	v1,a0,9d002c80 <decfloat+0xda0>
9d001fc0:	8fa50264 	lw	a1,612(sp)
9d001fc4:	02202025 	move	a0,s1
9d001fc8:	0f401c18 	jal	9d007060 <scanexp>
9d001fcc:	afa60210 	sw	a2,528(sp)
9d001fd0:	1440000e 	bnez	v0,9d00200c <decfloat+0x12c>
9d001fd4:	8fa60210 	lw	a2,528(sp)
9d001fd8:	3c048000 	lui	a0,0x8000
9d001fdc:	5464000c 	bnel	v1,a0,9d002010 <decfloat+0x130>
9d001fe0:	02021021 	addu	v0,s0,v0
9d001fe4:	8fa30264 	lw	v1,612(sp)
9d001fe8:	50600314 	beqzl	v1,9d002c3c <decfloat+0xd5c>
9d001fec:	00003025 	move	a2,zero
9d001ff0:	8e24004c 	lw	a0,76(s1)
9d001ff4:	10800005 	beqz	a0,9d00200c <decfloat+0x12c>
9d001ff8:	00001825 	move	v1,zero
9d001ffc:	8e23003c 	lw	v1,60(s1)
9d002000:	2463ffff 	addiu	v1,v1,-1
9d002004:	ae23003c 	sw	v1,60(s1)
9d002008:	00001825 	move	v1,zero
9d00200c:	02021021 	addu	v0,s0,v0
9d002010:	0050202b 	sltu	a0,v0,s0
9d002014:	0283a021 	addu	s4,s4,v1
9d002018:	00408025 	move	s0,v0
9d00201c:	0094a021 	addu	s4,a0,s4
9d002020:	8fa40260 	lw	a0,608(sp)
9d002024:	8fb10010 	lw	s1,16(sp)
9d002028:	0f402a60 	jal	9d00a980 <__floatsidf>
9d00202c:	afa60210 	sw	a2,528(sp)
9d002030:	00409025 	move	s2,v0
9d002034:	00609825 	move	s3,v1
9d002038:	16200063 	bnez	s1,9d0021c8 <decfloat+0x2e8>
9d00203c:	8fa60210 	lw	a2,528(sp)
9d002040:	00003025 	move	a2,zero
9d002044:	00003825 	move	a3,zero
9d002048:	00402025 	move	a0,v0
9d00204c:	00602825 	move	a1,v1
9d002050:	0f401b4d 	jal	9d006d34 <__muldf3>
9d002054:	00000000 	nop
9d002058:	100002fe 	b	9d002c54 <decfloat+0xd74>
9d00205c:	8fbf024c 	lw	ra,588(sp)
9d002060:	8e23004c 	lw	v1,76(s1)
9d002064:	0043182b 	sltu	v1,v0,v1
9d002068:	10600005 	beqz	v1,9d002080 <decfloat+0x1a0>
9d00206c:	24430001 	addiu	v1,v0,1
9d002070:	ae23003c 	sw	v1,60(s1)
9d002074:	90420000 	lbu	v0,0(v0)
9d002078:	1000ffaa 	b	9d001f24 <decfloat+0x44>
9d00207c:	24130001 	li	s3,1
9d002080:	0f4023c5 	jal	9d008f14 <__shgetc>
9d002084:	02202025 	move	a0,s1
9d002088:	1000ffa6 	b	9d001f24 <decfloat+0x44>
9d00208c:	24130001 	li	s3,1
9d002090:	0f4023c5 	jal	9d008f14 <__shgetc>
9d002094:	02202025 	move	a0,s1
9d002098:	1000ffaf 	b	9d001f58 <decfloat+0x78>
9d00209c:	00008025 	move	s0,zero
9d0020a0:	0050182b 	sltu	v1,v0,s0
9d0020a4:	2694ffff 	addiu	s4,s4,-1
9d0020a8:	00408025 	move	s0,v0
9d0020ac:	0074a021 	addu	s4,v1,s4
9d0020b0:	8e22003c 	lw	v0,60(s1)
9d0020b4:	8e23004c 	lw	v1,76(s1)
9d0020b8:	0043182b 	sltu	v1,v0,v1
9d0020bc:	10600005 	beqz	v1,9d0020d4 <decfloat+0x1f4>
9d0020c0:	24430001 	addiu	v1,v0,1
9d0020c4:	ae23003c 	sw	v1,60(s1)
9d0020c8:	90420000 	lbu	v0,0(v0)
9d0020cc:	1000ffa4 	b	9d001f60 <decfloat+0x80>
9d0020d0:	24130001 	li	s3,1
9d0020d4:	0f4023c5 	jal	9d008f14 <__shgetc>
9d0020d8:	02202025 	move	a0,s1
9d0020dc:	1000ffa0 	b	9d001f60 <decfloat+0x80>
9d0020e0:	24130001 	li	s3,1
9d0020e4:	00008025 	move	s0,zero
9d0020e8:	1000ffa0 	b	9d001f6c <decfloat+0x8c>
9d0020ec:	0000a025 	move	s4,zero
9d0020f0:	1447000d 	bne	v0,a3,9d002128 <decfloat+0x248>
9d0020f4:	27c40001 	addiu	a0,s8,1
9d0020f8:	16400031 	bnez	s2,9d0021c0 <decfloat+0x2e0>
9d0020fc:	24120001 	li	s2,1
9d002100:	03c08025 	move	s0,s8
9d002104:	00c0a025 	move	s4,a2
9d002108:	8e22003c 	lw	v0,60(s1)
9d00210c:	8e24004c 	lw	a0,76(s1)
9d002110:	0044202b 	sltu	a0,v0,a0
9d002114:	10800022 	beqz	a0,9d0021a0 <decfloat+0x2c0>
9d002118:	24440001 	addiu	a0,v0,1
9d00211c:	ae24003c 	sw	a0,60(s1)
9d002120:	1000ff9b 	b	9d001f90 <decfloat+0xb0>
9d002124:	90420000 	lbu	v0,0(v0)
9d002128:	009e282b 	sltu	a1,a0,s8
9d00212c:	0080f025 	move	s8,a0
9d002130:	2ac4007d 	slti	a0,s6,125
9d002134:	10800014 	beqz	a0,9d002188 <decfloat+0x2a8>
9d002138:	00a63021 	addu	a2,a1,a2
9d00213c:	38420030 	xori	v0,v0,0x30
9d002140:	03c2b80b 	movn	s7,s8,v0
9d002144:	12a00007 	beqz	s5,9d002164 <decfloat+0x284>
9d002148:	00161080 	sll	v0,s6,0x2
9d00214c:	27a30010 	addiu	v1,sp,16
9d002150:	00622021 	addu	a0,v1,v0
9d002154:	8c840000 	lw	a0,0(a0)
9d002158:	2405000a 	li	a1,10
9d00215c:	70a41802 	mul	v1,a1,a0
9d002160:	006b5821 	addu	t3,v1,t3
9d002164:	27a30010 	addiu	v1,sp,16
9d002168:	00621021 	addu	v0,v1,v0
9d00216c:	26b50001 	addiu	s5,s5,1
9d002170:	ac4b0000 	sw	t3,0(v0)
9d002174:	16aaffe4 	bne	s5,t2,9d002108 <decfloat+0x228>
9d002178:	24130001 	li	s3,1
9d00217c:	26d60001 	addiu	s6,s6,1
9d002180:	1000ffe1 	b	9d002108 <decfloat+0x228>
9d002184:	0000a825 	move	s5,zero
9d002188:	1049ffdf 	beq	v0,t1,9d002108 <decfloat+0x228>
9d00218c:	8fa20200 	lw	v0,512(sp)
9d002190:	2417045c 	li	s7,1116
9d002194:	34420001 	ori	v0,v0,0x1
9d002198:	1000ffdb 	b	9d002108 <decfloat+0x228>
9d00219c:	afa20200 	sw	v0,512(sp)
9d0021a0:	02202025 	move	a0,s1
9d0021a4:	0f4023c5 	jal	9d008f14 <__shgetc>
9d0021a8:	afa60210 	sw	a2,528(sp)
9d0021ac:	240a0009 	li	t2,9
9d0021b0:	24090030 	li	t1,48
9d0021b4:	2407002e 	li	a3,46
9d0021b8:	1000ff75 	b	9d001f90 <decfloat+0xb0>
9d0021bc:	8fa60210 	lw	a2,528(sp)
9d0021c0:	1000ff7b 	b	9d001fb0 <decfloat+0xd0>
9d0021c4:	2402002e 	li	v0,46
9d0021c8:	17d00017 	bne	s8,s0,9d002228 <decfloat+0x348>
9d0021cc:	8fa2025c 	lw	v0,604(sp)
9d0021d0:	14d40016 	bne	a2,s4,9d00222c <decfloat+0x34c>
9d0021d4:	8fa3025c 	lw	v1,604(sp)
9d0021d8:	1e800015 	bgtz	s4,9d002230 <decfloat+0x350>
9d0021dc:	000217c2 	srl	v0,v0,0x1f
9d0021e0:	16800005 	bnez	s4,9d0021f8 <decfloat+0x318>
9d0021e4:	8fa20258 	lw	v0,600(sp)
9d0021e8:	2e02000a 	sltiu	v0,s0,10
9d0021ec:	1040000f 	beqz	v0,9d00222c <decfloat+0x34c>
9d0021f0:	8fa2025c 	lw	v0,604(sp)
9d0021f4:	8fa20258 	lw	v0,600(sp)
9d0021f8:	2842001f 	slti	v0,v0,31
9d0021fc:	10400005 	beqz	v0,9d002214 <decfloat+0x334>
9d002200:	00000000 	nop
9d002204:	8fa20258 	lw	v0,600(sp)
9d002208:	00511006 	srlv	v0,s1,v0
9d00220c:	54400006 	bnezl	v0,9d002228 <decfloat+0x348>
9d002210:	8fa2025c 	lw	v0,604(sp)
9d002214:	0f402cfd 	jal	9d00b3f4 <__floatunsidf>
9d002218:	02202025 	move	a0,s1
9d00221c:	02403025 	move	a2,s2
9d002220:	1000ff89 	b	9d002048 <decfloat+0x168>
9d002224:	02603825 	move	a3,s3
9d002228:	8fa3025c 	lw	v1,604(sp)
9d00222c:	000217c2 	srl	v0,v0,0x1f
9d002230:	00431021 	addu	v0,v0,v1
9d002234:	00021043 	sra	v0,v0,0x1
9d002238:	00021023 	negu	v0,v0
9d00223c:	00021fc3 	sra	v1,v0,0x1f
9d002240:	0074202a 	slt	a0,v1,s4
9d002244:	54800007 	bnezl	a0,9d002264 <decfloat+0x384>
9d002248:	3c109d00 	lui	s0,0x9d00
9d00224c:	56830010 	bnel	s4,v1,9d002290 <decfloat+0x3b0>
9d002250:	8fa2025c 	lw	v0,604(sp)
9d002254:	0050102b 	sltu	v0,v0,s0
9d002258:	5040000d 	beqzl	v0,9d002290 <decfloat+0x3b0>
9d00225c:	8fa2025c 	lw	v0,604(sp)
9d002260:	3c109d00 	lui	s0,0x9d00
9d002264:	8e061e48 	lw	a2,7752(s0)
9d002268:	8e071e4c 	lw	a3,7756(s0)
9d00226c:	3c02a000 	lui	v0,0xa000
9d002270:	24030022 	li	v1,34
9d002274:	ac431c78 	sw	v1,7288(v0)
9d002278:	02402025 	move	a0,s2
9d00227c:	0f401b4d 	jal	9d006d34 <__muldf3>
9d002280:	02602825 	move	a1,s3
9d002284:	8e061e48 	lw	a2,7752(s0)
9d002288:	1000ff6f 	b	9d002048 <decfloat+0x168>
9d00228c:	8e071e4c 	lw	a3,7756(s0)
9d002290:	2442ff96 	addiu	v0,v0,-106
9d002294:	00021fc3 	sra	v1,v0,0x1f
9d002298:	0283202a 	slt	a0,s4,v1
9d00229c:	54800006 	bnezl	a0,9d0022b8 <decfloat+0x3d8>
9d0022a0:	3c109d00 	lui	s0,0x9d00
9d0022a4:	1474000f 	bne	v1,s4,9d0022e4 <decfloat+0x404>
9d0022a8:	0202102b 	sltu	v0,s0,v0
9d0022ac:	1040000d 	beqz	v0,9d0022e4 <decfloat+0x404>
9d0022b0:	00000000 	nop
9d0022b4:	3c109d00 	lui	s0,0x9d00
9d0022b8:	8e061e50 	lw	a2,7760(s0)
9d0022bc:	8e071e54 	lw	a3,7764(s0)
9d0022c0:	3c02a000 	lui	v0,0xa000
9d0022c4:	24030022 	li	v1,34
9d0022c8:	ac431c78 	sw	v1,7288(v0)
9d0022cc:	02402025 	move	a0,s2
9d0022d0:	0f401b4d 	jal	9d006d34 <__muldf3>
9d0022d4:	02602825 	move	a1,s3
9d0022d8:	8e061e50 	lw	a2,7760(s0)
9d0022dc:	1000ff5a 	b	9d002048 <decfloat+0x168>
9d0022e0:	8e071e54 	lw	a3,7764(s0)
9d0022e4:	12a0000a 	beqz	s5,9d002310 <decfloat+0x430>
9d0022e8:	2ae20009 	slti	v0,s7,9
9d0022ec:	00161080 	sll	v0,s6,0x2
9d0022f0:	27a30010 	addiu	v1,sp,16
9d0022f4:	00621021 	addu	v0,v1,v0
9d0022f8:	2404000a 	li	a0,10
9d0022fc:	2aa30009 	slti	v1,s5,9
9d002300:	54600029 	bnezl	v1,9d0023a8 <decfloat+0x4c8>
9d002304:	8c430000 	lw	v1,0(v0)
9d002308:	26d60001 	addiu	s6,s6,1
9d00230c:	2ae20009 	slti	v0,s7,9
9d002310:	10400048 	beqz	v0,9d002434 <decfloat+0x554>
9d002314:	0200a025 	move	s4,s0
9d002318:	0217b82a 	slt	s7,s0,s7
9d00231c:	16e00046 	bnez	s7,9d002438 <decfloat+0x558>
9d002320:	26c3ffff 	addiu	v1,s6,-1
9d002324:	2a020012 	slti	v0,s0,18
9d002328:	10400044 	beqz	v0,9d00243c <decfloat+0x55c>
9d00232c:	00031080 	sll	v0,v1,0x2
9d002330:	24020009 	li	v0,9
9d002334:	1202ffb7 	beq	s0,v0,9d002214 <decfloat+0x334>
9d002338:	8fb10010 	lw	s1,16(sp)
9d00233c:	2a020009 	slti	v0,s0,9
9d002340:	5040001d 	beqzl	v0,9d0023b8 <decfloat+0x4d8>
9d002344:	2602fff7 	addiu	v0,s0,-9
9d002348:	0f402cfd 	jal	9d00b3f4 <__floatunsidf>
9d00234c:	02202025 	move	a0,s1
9d002350:	00602825 	move	a1,v1
9d002354:	02403025 	move	a2,s2
9d002358:	02603825 	move	a3,s3
9d00235c:	0f401b4d 	jal	9d006d34 <__muldf3>
9d002360:	00402025 	move	a0,v0
9d002364:	00409025 	move	s2,v0
9d002368:	24020008 	li	v0,8
9d00236c:	00508023 	subu	s0,v0,s0
9d002370:	3c029d01 	lui	v0,0x9d01
9d002374:	2442b7b8 	addiu	v0,v0,-18504
9d002378:	00108080 	sll	s0,s0,0x2
9d00237c:	02028021 	addu	s0,s0,v0
9d002380:	8e040000 	lw	a0,0(s0)
9d002384:	0f402a60 	jal	9d00a980 <__floatsidf>
9d002388:	00609825 	move	s3,v1
9d00238c:	00403025 	move	a2,v0
9d002390:	00603825 	move	a3,v1
9d002394:	02402025 	move	a0,s2
9d002398:	0f4012e5 	jal	9d004b94 <__divdf3>
9d00239c:	02602825 	move	a1,s3
9d0023a0:	1000022c 	b	9d002c54 <decfloat+0xd74>
9d0023a4:	8fbf024c 	lw	ra,588(sp)
9d0023a8:	26b50001 	addiu	s5,s5,1
9d0023ac:	70641802 	mul	v1,v1,a0
9d0023b0:	1000ffd2 	b	9d0022fc <decfloat+0x41c>
9d0023b4:	ac430000 	sw	v1,0(v0)
9d0023b8:	00021880 	sll	v1,v0,0x2
9d0023bc:	00431023 	subu	v0,v0,v1
9d0023c0:	8fa30258 	lw	v1,600(sp)
9d0023c4:	00431021 	addu	v0,v0,v1
9d0023c8:	2843001f 	slti	v1,v0,31
9d0023cc:	50600005 	beqzl	v1,9d0023e4 <decfloat+0x504>
9d0023d0:	2610fff6 	addiu	s0,s0,-10
9d0023d4:	00511006 	srlv	v0,s1,v0
9d0023d8:	54400017 	bnezl	v0,9d002438 <decfloat+0x558>
9d0023dc:	26c3ffff 	addiu	v1,s6,-1
9d0023e0:	2610fff6 	addiu	s0,s0,-10
9d0023e4:	3c029d01 	lui	v0,0x9d01
9d0023e8:	2442b7b8 	addiu	v0,v0,-18504
9d0023ec:	00108080 	sll	s0,s0,0x2
9d0023f0:	02028021 	addu	s0,s0,v0
9d0023f4:	0f402a60 	jal	9d00a980 <__floatsidf>
9d0023f8:	8e040000 	lw	a0,0(s0)
9d0023fc:	02202025 	move	a0,s1
9d002400:	0040a025 	move	s4,v0
9d002404:	0f402cfd 	jal	9d00b3f4 <__floatunsidf>
9d002408:	0060a825 	move	s5,v1
9d00240c:	00402025 	move	a0,v0
9d002410:	02403025 	move	a2,s2
9d002414:	02603825 	move	a3,s3
9d002418:	0f401b4d 	jal	9d006d34 <__muldf3>
9d00241c:	00602825 	move	a1,v1
9d002420:	00403025 	move	a2,v0
9d002424:	00603825 	move	a3,v1
9d002428:	02802025 	move	a0,s4
9d00242c:	1000ff08 	b	9d002050 <decfloat+0x170>
9d002430:	02a02825 	move	a1,s5
9d002434:	26c3ffff 	addiu	v1,s6,-1
9d002438:	00031080 	sll	v0,v1,0x2
9d00243c:	27a40010 	addiu	a0,sp,16
9d002440:	00821021 	addu	v0,a0,v0
9d002444:	8c420000 	lw	v0,0(v0)
9d002448:	5040fffa 	beqzl	v0,9d002434 <decfloat+0x554>
9d00244c:	0060b025 	move	s6,v1
9d002450:	24090009 	li	t1,9
9d002454:	0209001a 	div	zero,s0,t1
9d002458:	012001f4 	teq	t1,zero,0x7
9d00245c:	00004810 	mfhi	t1
9d002460:	1120001c 	beqz	t1,9d0024d4 <decfloat+0x5f4>
9d002464:	3c0c0089 	lui	t4,0x89
9d002468:	06020001 	bltzl	s0,9d002470 <decfloat+0x590>
9d00246c:	25290009 	addiu	t1,t1,9
9d002470:	24020008 	li	v0,8
9d002474:	00491023 	subu	v0,v0,t1
9d002478:	3c039d01 	lui	v1,0x9d01
9d00247c:	2463b7b8 	addiu	v1,v1,-18504
9d002480:	00021080 	sll	v0,v0,0x2
9d002484:	00431021 	addu	v0,v0,v1
9d002488:	8c460000 	lw	a2,0(v0)
9d00248c:	3c073b9a 	lui	a3,0x3b9a
9d002490:	27a50010 	addiu	a1,sp,16
9d002494:	00001825 	move	v1,zero
9d002498:	00005025 	move	t2,zero
9d00249c:	00002025 	move	a0,zero
9d0024a0:	34e7ca00 	ori	a3,a3,0xca00
9d0024a4:	54960014 	bnel	a0,s6,9d0024f8 <decfloat+0x618>
9d0024a8:	8ca20000 	lw	v0,0(a1)
9d0024ac:	10600006 	beqz	v1,9d0024c8 <decfloat+0x5e8>
9d0024b0:	0289a023 	subu	s4,s4,t1
9d0024b4:	00161080 	sll	v0,s6,0x2
9d0024b8:	27a40010 	addiu	a0,sp,16
9d0024bc:	00821021 	addu	v0,a0,v0
9d0024c0:	ac430000 	sw	v1,0(v0)
9d0024c4:	26d60001 	addiu	s6,s6,1
9d0024c8:	26940009 	addiu	s4,s4,9
9d0024cc:	01404825 	move	t1,t2
9d0024d0:	3c0c0089 	lui	t4,0x89
9d0024d4:	3c103b9a 	lui	s0,0x3b9a
9d0024d8:	3c0d3b9a 	lui	t5,0x3b9a
9d0024dc:	0000b825 	move	s7,zero
9d0024e0:	240e0012 	li	t6,18
9d0024e4:	258c705f 	addiu	t4,t4,28767
9d0024e8:	3610ca00 	ori	s0,s0,0xca00
9d0024ec:	00008825 	move	s1,zero
9d0024f0:	10000062 	b	9d00267c <decfloat+0x79c>
9d0024f4:	35adca01 	ori	t5,t5,0xca01
9d0024f8:	0046001b 	divu	zero,v0,a2
9d0024fc:	00c001f4 	teq	a2,zero,0x7
9d002500:	00005810 	mfhi	t3
9d002504:	00001012 	mflo	v0
9d002508:	00431021 	addu	v0,v0,v1
9d00250c:	aca20000 	sw	v0,0(a1)
9d002510:	00e6001a 	div	zero,a3,a2
9d002514:	00c001f4 	teq	a2,zero,0x7
9d002518:	00001812 	mflo	v1
9d00251c:	706b1802 	mul	v1,v1,t3
9d002520:	148a0005 	bne	a0,t2,9d002538 <decfloat+0x658>
9d002524:	248b0001 	addiu	t3,a0,1
9d002528:	54400004 	bnezl	v0,9d00253c <decfloat+0x65c>
9d00252c:	01602025 	move	a0,t3
9d002530:	316a007f 	andi	t2,t3,0x7f
9d002534:	2694fff7 	addiu	s4,s4,-9
9d002538:	01602025 	move	a0,t3
9d00253c:	1000ffd9 	b	9d0024a4 <decfloat+0x5c4>
9d002540:	24a50004 	addiu	a1,a1,4
9d002544:	26f7ffe3 	addiu	s7,s7,-29
9d002548:	32b5007f 	andi	s5,s5,0x7f
9d00254c:	00005025 	move	t2,zero
9d002550:	00155880 	sll	t3,s5,0x2
9d002554:	27a20010 	addiu	v0,sp,16
9d002558:	004b1021 	addu	v0,v0,t3
9d00255c:	8c5e0000 	lw	s8,0(v0)
9d002560:	001e10c2 	srl	v0,s8,0x3
9d002564:	001ef740 	sll	s8,s8,0x1d
9d002568:	03ca7821 	addu	t7,s8,t2
9d00256c:	01fef02b 	sltu	s8,t7,s8
9d002570:	03c2f021 	addu	s8,s8,v0
9d002574:	17c00005 	bnez	s8,9d00258c <decfloat+0x6ac>
9d002578:	01e02025 	move	a0,t7
9d00257c:	01ed102b 	sltu	v0,t7,t5
9d002580:	14400024 	bnez	v0,9d002614 <decfloat+0x734>
9d002584:	01e01025 	move	v0,t7
9d002588:	01e02025 	move	a0,t7
9d00258c:	02003025 	move	a2,s0
9d002590:	02203825 	move	a3,s1
9d002594:	03c02825 	move	a1,s8
9d002598:	afab0220 	sw	t3,544(sp)
9d00259c:	afa90218 	sw	t1,536(sp)
9d0025a0:	0f401a52 	jal	9d006948 <__udivdi3>
9d0025a4:	afaf0214 	sw	t7,532(sp)
9d0025a8:	8faf0214 	lw	t7,532(sp)
9d0025ac:	02003025 	move	a2,s0
9d0025b0:	02203825 	move	a3,s1
9d0025b4:	01e02025 	move	a0,t7
9d0025b8:	03c02825 	move	a1,s8
9d0025bc:	0f401954 	jal	9d006550 <__umoddi3>
9d0025c0:	afa20210 	sw	v0,528(sp)
9d0025c4:	3c030089 	lui	v1,0x89
9d0025c8:	8faa0210 	lw	t2,528(sp)
9d0025cc:	8fa90218 	lw	t1,536(sp)
9d0025d0:	8fab0220 	lw	t3,544(sp)
9d0025d4:	346c705f 	ori	t4,v1,0x705f
9d0025d8:	3c033b9a 	lui	v1,0x3b9a
9d0025dc:	240e0012 	li	t6,18
9d0025e0:	346dca01 	ori	t5,v1,0xca01
9d0025e4:	27a30010 	addiu	v1,sp,16
9d0025e8:	006b5821 	addu	t3,v1,t3
9d0025ec:	26c3ffff 	addiu	v1,s6,-1
9d0025f0:	3063007f 	andi	v1,v1,0x7f
9d0025f4:	14750009 	bne	v1,s5,9d00261c <decfloat+0x73c>
9d0025f8:	ad620000 	sw	v0,0(t3)
9d0025fc:	52a90009 	beql	s5,t1,9d002624 <decfloat+0x744>
9d002600:	01201825 	move	v1,t1
9d002604:	02a2b00a 	movz	s6,s5,v0
9d002608:	26b5ffff 	addiu	s5,s5,-1
9d00260c:	1000ffd0 	b	9d002550 <decfloat+0x670>
9d002610:	32b5007f 	andi	s5,s5,0x7f
9d002614:	1000fff3 	b	9d0025e4 <decfloat+0x704>
9d002618:	00005025 	move	t2,zero
9d00261c:	56a9fffb 	bnel	s5,t1,9d00260c <decfloat+0x72c>
9d002620:	26b5ffff 	addiu	s5,s5,-1
9d002624:	11400016 	beqz	t2,9d002680 <decfloat+0x7a0>
9d002628:	2a820012 	slti	v0,s4,18
9d00262c:	2529ffff 	addiu	t1,t1,-1
9d002630:	3129007f 	andi	t1,t1,0x7f
9d002634:	16c9000d 	bne	s6,t1,9d00266c <decfloat+0x78c>
9d002638:	26940009 	addiu	s4,s4,9
9d00263c:	2462ffff 	addiu	v0,v1,-1
9d002640:	3042007f 	andi	v0,v0,0x7f
9d002644:	27a40010 	addiu	a0,sp,16
9d002648:	00021080 	sll	v0,v0,0x2
9d00264c:	00032880 	sll	a1,v1,0x2
9d002650:	00821021 	addu	v0,a0,v0
9d002654:	00852821 	addu	a1,a0,a1
9d002658:	8ca50000 	lw	a1,0(a1)
9d00265c:	8c440000 	lw	a0,0(v0)
9d002660:	0060b025 	move	s6,v1
9d002664:	00852025 	or	a0,a0,a1
9d002668:	ac440000 	sw	a0,0(v0)
9d00266c:	00091080 	sll	v0,t1,0x2
9d002670:	27a30010 	addiu	v1,sp,16
9d002674:	00621021 	addu	v0,v1,v0
9d002678:	ac4a0000 	sw	t2,0(v0)
9d00267c:	2a820012 	slti	v0,s4,18
9d002680:	5440ffb0 	bnezl	v0,9d002544 <decfloat+0x664>
9d002684:	26d5ffff 	addiu	s5,s6,-1
9d002688:	168e0007 	bne	s4,t6,9d0026a8 <decfloat+0x7c8>
9d00268c:	00091080 	sll	v0,t1,0x2
9d002690:	27a30010 	addiu	v1,sp,16
9d002694:	00621021 	addu	v0,v1,v0
9d002698:	8c420000 	lw	v0,0(v0)
9d00269c:	004c102b 	sltu	v0,v0,t4
9d0026a0:	5440ffa8 	bnezl	v0,9d002544 <decfloat+0x664>
9d0026a4:	26d5ffff 	addiu	s5,s6,-1
9d0026a8:	3c040089 	lui	a0,0x89
9d0026ac:	3c050f2f 	lui	a1,0xf2f
9d0026b0:	3c063b9a 	lui	a2,0x3b9a
9d0026b4:	240a0012 	li	t2,18
9d0026b8:	2484705f 	addiu	a0,a0,28767
9d0026bc:	24a50a00 	addiu	a1,a1,2560
9d0026c0:	24070001 	li	a3,1
9d0026c4:	240b0009 	li	t3,9
9d0026c8:	34c6ca00 	ori	a2,a2,0xca00
9d0026cc:	11360012 	beq	t1,s6,9d002718 <decfloat+0x838>
9d0026d0:	27a30010 	addiu	v1,sp,16
9d0026d4:	00091080 	sll	v0,t1,0x2
9d0026d8:	00621021 	addu	v0,v1,v0
9d0026dc:	8c420000 	lw	v0,0(v0)
9d0026e0:	0044182b 	sltu	v1,v0,a0
9d0026e4:	1460000c 	bnez	v1,9d002718 <decfloat+0x838>
9d0026e8:	00000000 	nop
9d0026ec:	1444000c 	bne	v0,a0,9d002720 <decfloat+0x840>
9d0026f0:	25220001 	addiu	v0,t1,1
9d0026f4:	3042007f 	andi	v0,v0,0x7f
9d0026f8:	12c20007 	beq	s6,v0,9d002718 <decfloat+0x838>
9d0026fc:	00021080 	sll	v0,v0,0x2
9d002700:	27a30010 	addiu	v1,sp,16
9d002704:	00621021 	addu	v0,v1,v0
9d002708:	8c420000 	lw	v0,0(v0)
9d00270c:	0045102b 	sltu	v0,v0,a1
9d002710:	10400004 	beqz	v0,9d002724 <decfloat+0x844>
9d002714:	2a82001c 	slti	v0,s4,28
9d002718:	128a0030 	beq	s4,t2,9d0027dc <decfloat+0x8fc>
9d00271c:	00000000 	nop
9d002720:	2a82001c 	slti	v0,s4,28
9d002724:	01601825 	move	v1,t3
9d002728:	00e2180b 	movn	v1,a3,v0
9d00272c:	0067c004 	sllv	t8,a3,v1
9d002730:	00601025 	move	v0,v1
9d002734:	02e3b821 	addu	s7,s7,v1
9d002738:	0066c807 	srav	t9,a2,v1
9d00273c:	2718ffff 	addiu	t8,t8,-1
9d002740:	01201825 	move	v1,t1
9d002744:	00006025 	move	t4,zero
9d002748:	1476000b 	bne	v1,s6,9d002778 <decfloat+0x898>
9d00274c:	00037880 	sll	t7,v1,0x2
9d002750:	1180ffde 	beqz	t4,9d0026cc <decfloat+0x7ec>
9d002754:	26c20001 	addiu	v0,s6,1
9d002758:	3042007f 	andi	v0,v0,0x7f
9d00275c:	10490016 	beq	v0,t1,9d0027b8 <decfloat+0x8d8>
9d002760:	00164080 	sll	t0,s6,0x2
9d002764:	27a30010 	addiu	v1,sp,16
9d002768:	00684021 	addu	t0,v1,t0
9d00276c:	ad0c0000 	sw	t4,0(t0)
9d002770:	1000ffd6 	b	9d0026cc <decfloat+0x7ec>
9d002774:	0040b025 	move	s6,v0
9d002778:	27a80010 	addiu	t0,sp,16
9d00277c:	010f7821 	addu	t7,t0,t7
9d002780:	8dee0000 	lw	t6,0(t7)
9d002784:	004e6806 	srlv	t5,t6,v0
9d002788:	01ac6821 	addu	t5,t5,t4
9d00278c:	030e6024 	and	t4,t8,t6
9d002790:	aded0000 	sw	t5,0(t7)
9d002794:	71996002 	mul	t4,t4,t9
9d002798:	14690005 	bne	v1,t1,9d0027b0 <decfloat+0x8d0>
9d00279c:	246e0001 	addiu	t6,v1,1
9d0027a0:	55a0ffe9 	bnezl	t5,9d002748 <decfloat+0x868>
9d0027a4:	31c3007f 	andi	v1,t6,0x7f
9d0027a8:	31c9007f 	andi	t1,t6,0x7f
9d0027ac:	2694fff7 	addiu	s4,s4,-9
9d0027b0:	1000ffe5 	b	9d002748 <decfloat+0x868>
9d0027b4:	31c3007f 	andi	v1,t6,0x7f
9d0027b8:	26c2ffff 	addiu	v0,s6,-1
9d0027bc:	3042007f 	andi	v0,v0,0x7f
9d0027c0:	27a30010 	addiu	v1,sp,16
9d0027c4:	00021080 	sll	v0,v0,0x2
9d0027c8:	00621021 	addu	v0,v1,v0
9d0027cc:	8c430000 	lw	v1,0(v0)
9d0027d0:	34630001 	ori	v1,v1,0x1
9d0027d4:	1000ffbd 	b	9d0026cc <decfloat+0x7ec>
9d0027d8:	ac430000 	sw	v1,0(v0)
9d0027dc:	15360007 	bne	t1,s6,9d0027fc <decfloat+0x91c>
9d0027e0:	25340001 	addiu	s4,t1,1
9d0027e4:	3296007f 	andi	s6,s4,0x7f
9d0027e8:	26c2ffff 	addiu	v0,s6,-1
9d0027ec:	00021080 	sll	v0,v0,0x2
9d0027f0:	27a30010 	addiu	v1,sp,16
9d0027f4:	00621021 	addu	v0,v1,v0
9d0027f8:	ac400000 	sw	zero,0(v0)
9d0027fc:	00091080 	sll	v0,t1,0x2
9d002800:	27a30010 	addiu	v1,sp,16
9d002804:	00621021 	addu	v0,v1,v0
9d002808:	8c440000 	lw	a0,0(v0)
9d00280c:	afa90210 	sw	t1,528(sp)
9d002810:	0f402cfd 	jal	9d00b3f4 <__floatunsidf>
9d002814:	3294007f 	andi	s4,s4,0x7f
9d002818:	00402025 	move	a0,v0
9d00281c:	00602825 	move	a1,v1
9d002820:	00003025 	move	a2,zero
9d002824:	0f40174c 	jal	9d005d30 <__adddf3>
9d002828:	00003825 	move	a3,zero
9d00282c:	00402025 	move	a0,v0
9d002830:	00602825 	move	a1,v1
9d002834:	16d40008 	bne	s6,s4,9d002858 <decfloat+0x978>
9d002838:	8fa90210 	lw	t1,528(sp)
9d00283c:	26c80001 	addiu	t0,s6,1
9d002840:	3116007f 	andi	s6,t0,0x7f
9d002844:	26c3ffff 	addiu	v1,s6,-1
9d002848:	00031880 	sll	v1,v1,0x2
9d00284c:	27a20010 	addiu	v0,sp,16
9d002850:	00431821 	addu	v1,v0,v1
9d002854:	ac600000 	sw	zero,0(v1)
9d002858:	3c029d00 	lui	v0,0x9d00
9d00285c:	8c461e58 	lw	a2,7768(v0)
9d002860:	8c471e5c 	lw	a3,7772(v0)
9d002864:	afa90210 	sw	t1,528(sp)
9d002868:	0f401b4d 	jal	9d006d34 <__muldf3>
9d00286c:	0014a080 	sll	s4,s4,0x2
9d002870:	00408025 	move	s0,v0
9d002874:	27a20010 	addiu	v0,sp,16
9d002878:	0054a021 	addu	s4,v0,s4
9d00287c:	8e840000 	lw	a0,0(s4)
9d002880:	0f402cfd 	jal	9d00b3f4 <__floatunsidf>
9d002884:	00608825 	move	s1,v1
9d002888:	00402025 	move	a0,v0
9d00288c:	02003025 	move	a2,s0
9d002890:	02203825 	move	a3,s1
9d002894:	0f40174c 	jal	9d005d30 <__adddf3>
9d002898:	00602825 	move	a1,v1
9d00289c:	00403025 	move	a2,v0
9d0028a0:	00603825 	move	a3,v1
9d0028a4:	02402025 	move	a0,s2
9d0028a8:	0f401b4d 	jal	9d006d34 <__muldf3>
9d0028ac:	02602825 	move	a1,s3
9d0028b0:	0060a825 	move	s5,v1
9d0028b4:	8fa3025c 	lw	v1,604(sp)
9d0028b8:	0040a025 	move	s4,v0
9d0028bc:	26e20035 	addiu	v0,s7,53
9d0028c0:	00431023 	subu	v0,v0,v1
9d0028c4:	8fa30258 	lw	v1,600(sp)
9d0028c8:	afa20214 	sw	v0,532(sp)
9d0028cc:	0043102a 	slt	v0,v0,v1
9d0028d0:	104000b5 	beqz	v0,9d002ba8 <decfloat+0xcc8>
9d0028d4:	8fa90210 	lw	t1,528(sp)
9d0028d8:	8fa20214 	lw	v0,532(sp)
9d0028dc:	044200b5 	bltzl	v0,9d002bb4 <decfloat+0xcd4>
9d0028e0:	24020001 	li	v0,1
9d0028e4:	0040f025 	move	s8,v0
9d0028e8:	24020001 	li	v0,1
9d0028ec:	afa20210 	sw	v0,528(sp)
9d0028f0:	2bc20035 	slti	v0,s8,53
9d0028f4:	504000b2 	beqzl	v0,9d002bc0 <decfloat+0xce0>
9d0028f8:	afa00218 	sw	zero,536(sp)
9d0028fc:	3c029d00 	lui	v0,0x9d00
9d002900:	8c501e60 	lw	s0,7776(v0)
9d002904:	8c511e64 	lw	s1,7780(v0)
9d002908:	24060069 	li	a2,105
9d00290c:	02002025 	move	a0,s0
9d002910:	02202825 	move	a1,s1
9d002914:	00de3023 	subu	a2,a2,s8
9d002918:	0f40255b 	jal	9d00956c <scalbn>
9d00291c:	afa90220 	sw	t1,544(sp)
9d002920:	00402025 	move	a0,v0
9d002924:	02a03825 	move	a3,s5
9d002928:	02803025 	move	a2,s4
9d00292c:	0f402e01 	jal	9d00b804 <copysignl>
9d002930:	00602825 	move	a1,v1
9d002934:	24060035 	li	a2,53
9d002938:	02002025 	move	a0,s0
9d00293c:	02202825 	move	a1,s1
9d002940:	00de3023 	subu	a2,a2,s8
9d002944:	afa20218 	sw	v0,536(sp)
9d002948:	0f40255b 	jal	9d00956c <scalbn>
9d00294c:	afa3021c 	sw	v1,540(sp)
9d002950:	00403025 	move	a2,v0
9d002954:	02802025 	move	a0,s4
9d002958:	02a02825 	move	a1,s5
9d00295c:	0f401cc1 	jal	9d007304 <dpfmod>
9d002960:	00603825 	move	a3,v1
9d002964:	00403025 	move	a2,v0
9d002968:	02802025 	move	a0,s4
9d00296c:	02a02825 	move	a1,s5
9d002970:	00603825 	move	a3,v1
9d002974:	00408025 	move	s0,v0
9d002978:	0f40174a 	jal	9d005d28 <__subdf3>
9d00297c:	00608825 	move	s1,v1
9d002980:	8fa40218 	lw	a0,536(sp)
9d002984:	8fa5021c 	lw	a1,540(sp)
9d002988:	00403025 	move	a2,v0
9d00298c:	0f40174c 	jal	9d005d30 <__adddf3>
9d002990:	00603825 	move	a3,v1
9d002994:	8fa90220 	lw	t1,544(sp)
9d002998:	0040a025 	move	s4,v0
9d00299c:	0060a825 	move	s5,v1
9d0029a0:	25220002 	addiu	v0,t1,2
9d0029a4:	3042007f 	andi	v0,v0,0x7f
9d0029a8:	10560036 	beq	v0,s6,9d002a84 <decfloat+0xba4>
9d0029ac:	27a30010 	addiu	v1,sp,16
9d0029b0:	00021080 	sll	v0,v0,0x2
9d0029b4:	00621021 	addu	v0,v1,v0
9d0029b8:	8c430000 	lw	v1,0(v0)
9d0029bc:	3c021dcd 	lui	v0,0x1dcd
9d0029c0:	24426500 	addiu	v0,v0,25856
9d0029c4:	0062202b 	sltu	a0,v1,v0
9d0029c8:	10800081 	beqz	a0,9d002bd0 <decfloat+0xcf0>
9d0029cc:	00000000 	nop
9d0029d0:	14600005 	bnez	v1,9d0029e8 <decfloat+0xb08>
9d0029d4:	3c029d00 	lui	v0,0x9d00
9d0029d8:	25290003 	addiu	t1,t1,3
9d0029dc:	3129007f 	andi	t1,t1,0x7f
9d0029e0:	5136000e 	beql	t1,s6,9d002a1c <decfloat+0xb3c>
9d0029e4:	24020035 	li	v0,53
9d0029e8:	8c461e68 	lw	a2,7784(v0)
9d0029ec:	8c471e6c 	lw	a3,7788(v0)
9d0029f0:	02402025 	move	a0,s2
9d0029f4:	0f401b4d 	jal	9d006d34 <__muldf3>
9d0029f8:	02602825 	move	a1,s3
9d0029fc:	00403025 	move	a2,v0
9d002a00:	02002025 	move	a0,s0
9d002a04:	02202825 	move	a1,s1
9d002a08:	0f40174c 	jal	9d005d30 <__adddf3>
9d002a0c:	00603825 	move	a3,v1
9d002a10:	00408025 	move	s0,v0
9d002a14:	00608825 	move	s1,v1
9d002a18:	24020035 	li	v0,53
9d002a1c:	005e1023 	subu	v0,v0,s8
9d002a20:	28420002 	slti	v0,v0,2
9d002a24:	14400018 	bnez	v0,9d002a88 <decfloat+0xba8>
9d002a28:	8fa2025c 	lw	v0,604(sp)
9d002a2c:	3c029d00 	lui	v0,0x9d00
9d002a30:	8c521e60 	lw	s2,7776(v0)
9d002a34:	8c531e64 	lw	s3,7780(v0)
9d002a38:	02002025 	move	a0,s0
9d002a3c:	02403025 	move	a2,s2
9d002a40:	02603825 	move	a3,s3
9d002a44:	0f401cc1 	jal	9d007304 <dpfmod>
9d002a48:	02202825 	move	a1,s1
9d002a4c:	00402025 	move	a0,v0
9d002a50:	00003025 	move	a2,zero
9d002a54:	00003825 	move	a3,zero
9d002a58:	0f4022e5 	jal	9d008b94 <__eqdf2>
9d002a5c:	00602825 	move	a1,v1
9d002a60:	14400009 	bnez	v0,9d002a88 <decfloat+0xba8>
9d002a64:	8fa2025c 	lw	v0,604(sp)
9d002a68:	02002025 	move	a0,s0
9d002a6c:	02202825 	move	a1,s1
9d002a70:	02403025 	move	a2,s2
9d002a74:	0f40174c 	jal	9d005d30 <__adddf3>
9d002a78:	02603825 	move	a3,s3
9d002a7c:	00408025 	move	s0,v0
9d002a80:	00608825 	move	s1,v1
9d002a84:	8fa2025c 	lw	v0,604(sp)
9d002a88:	8fa30258 	lw	v1,600(sp)
9d002a8c:	02003025 	move	a2,s0
9d002a90:	00021023 	negu	v0,v0
9d002a94:	02203825 	move	a3,s1
9d002a98:	02802025 	move	a0,s4
9d002a9c:	02a02825 	move	a1,s5
9d002aa0:	0f40174c 	jal	9d005d30 <__adddf3>
9d002aa4:	0043b023 	subu	s6,v0,v1
9d002aa8:	8fa60218 	lw	a2,536(sp)
9d002aac:	8fa7021c 	lw	a3,540(sp)
9d002ab0:	00402025 	move	a0,v0
9d002ab4:	0f40174a 	jal	9d005d28 <__subdf3>
9d002ab8:	00602825 	move	a1,v1
9d002abc:	00409025 	move	s2,v0
9d002ac0:	26e20035 	addiu	v0,s7,53
9d002ac4:	00609825 	move	s3,v1
9d002ac8:	7c42f000 	ext	v0,v0,0x0,0x1f
9d002acc:	26c3ffff 	addiu	v1,s6,-1
9d002ad0:	0043102a 	slt	v0,v0,v1
9d002ad4:	1440002f 	bnez	v0,9d002b94 <decfloat+0xcb4>
9d002ad8:	02e03025 	move	a2,s7
9d002adc:	02402025 	move	a0,s2
9d002ae0:	0f402edc 	jal	9d00bb70 <fabsl>
9d002ae4:	02602825 	move	a1,s3
9d002ae8:	3c049d00 	lui	a0,0x9d00
9d002aec:	8c861e80 	lw	a2,7808(a0)
9d002af0:	8c871e84 	lw	a3,7812(a0)
9d002af4:	00602825 	move	a1,v1
9d002af8:	0f4022e5 	jal	9d008b94 <__eqdf2>
9d002afc:	00402025 	move	a0,v0
9d002b00:	04400012 	bltz	v0,9d002b4c <decfloat+0xc6c>
9d002b04:	26e20034 	addiu	v0,s7,52
9d002b08:	8fa20210 	lw	v0,528(sp)
9d002b0c:	10400006 	beqz	v0,9d002b28 <decfloat+0xc48>
9d002b10:	3c029d00 	lui	v0,0x9d00
9d002b14:	8fa20214 	lw	v0,532(sp)
9d002b18:	005ef026 	xor	s8,v0,s8
9d002b1c:	001e102b 	sltu	v0,zero,s8
9d002b20:	afa20210 	sw	v0,528(sp)
9d002b24:	3c029d00 	lui	v0,0x9d00
9d002b28:	8c461e78 	lw	a2,7800(v0)
9d002b2c:	8c471e7c 	lw	a3,7804(v0)
9d002b30:	02402025 	move	a0,s2
9d002b34:	0f401b4d 	jal	9d006d34 <__muldf3>
9d002b38:	02602825 	move	a1,s3
9d002b3c:	00409025 	move	s2,v0
9d002b40:	00609825 	move	s3,v1
9d002b44:	26f70001 	addiu	s7,s7,1
9d002b48:	26e20034 	addiu	v0,s7,52
9d002b4c:	26d60003 	addiu	s6,s6,3
9d002b50:	0056b02a 	slt	s6,v0,s6
9d002b54:	12c0000c 	beqz	s6,9d002b88 <decfloat+0xca8>
9d002b58:	3c02a000 	lui	v0,0xa000
9d002b5c:	8fa20210 	lw	v0,528(sp)
9d002b60:	1040000c 	beqz	v0,9d002b94 <decfloat+0xcb4>
9d002b64:	02e03025 	move	a2,s7
9d002b68:	00003025 	move	a2,zero
9d002b6c:	00003825 	move	a3,zero
9d002b70:	02002025 	move	a0,s0
9d002b74:	0f4022e5 	jal	9d008b94 <__eqdf2>
9d002b78:	02202825 	move	a1,s1
9d002b7c:	10400005 	beqz	v0,9d002b94 <decfloat+0xcb4>
9d002b80:	02e03025 	move	a2,s7
9d002b84:	3c02a000 	lui	v0,0xa000
9d002b88:	24030022 	li	v1,34
9d002b8c:	ac431c78 	sw	v1,7288(v0)
9d002b90:	02e03025 	move	a2,s7
9d002b94:	02402025 	move	a0,s2
9d002b98:	0f402ee3 	jal	9d00bb8c <scalbnl>
9d002b9c:	02602825 	move	a1,s3
9d002ba0:	1000002c 	b	9d002c54 <decfloat+0xd74>
9d002ba4:	8fbf024c 	lw	ra,588(sp)
9d002ba8:	8fbe0258 	lw	s8,600(sp)
9d002bac:	1000ff50 	b	9d0028f0 <decfloat+0xa10>
9d002bb0:	afa00210 	sw	zero,528(sp)
9d002bb4:	afa20210 	sw	v0,528(sp)
9d002bb8:	1000ff50 	b	9d0028fc <decfloat+0xa1c>
9d002bbc:	0000f025 	move	s8,zero
9d002bc0:	afa0021c 	sw	zero,540(sp)
9d002bc4:	00008025 	move	s0,zero
9d002bc8:	1000ff75 	b	9d0029a0 <decfloat+0xac0>
9d002bcc:	00008825 	move	s1,zero
9d002bd0:	10620005 	beq	v1,v0,9d002be8 <decfloat+0xd08>
9d002bd4:	25290003 	addiu	t1,t1,3
9d002bd8:	3c029d00 	lui	v0,0x9d00
9d002bdc:	8c461e70 	lw	a2,7792(v0)
9d002be0:	1000ff83 	b	9d0029f0 <decfloat+0xb10>
9d002be4:	8c471e74 	lw	a3,7796(v0)
9d002be8:	3129007f 	andi	t1,t1,0x7f
9d002bec:	1536fffb 	bne	t1,s6,9d002bdc <decfloat+0xcfc>
9d002bf0:	3c029d00 	lui	v0,0x9d00
9d002bf4:	3c029d00 	lui	v0,0x9d00
9d002bf8:	8c461e78 	lw	a2,7800(v0)
9d002bfc:	1000ff7c 	b	9d0029f0 <decfloat+0xb10>
9d002c00:	8c471e7c 	lw	a3,7804(v0)
9d002c04:	0440000a 	bltz	v0,9d002c30 <decfloat+0xd50>
9d002c08:	3c02a000 	lui	v0,0xa000
9d002c0c:	8e22004c 	lw	v0,76(s1)
9d002c10:	10400004 	beqz	v0,9d002c24 <decfloat+0xd44>
9d002c14:	00000000 	nop
9d002c18:	8e22003c 	lw	v0,60(s1)
9d002c1c:	2442ffff 	addiu	v0,v0,-1
9d002c20:	ae22003c 	sw	v0,60(s1)
9d002c24:	1660fcff 	bnez	s3,9d002024 <decfloat+0x144>
9d002c28:	8fa40260 	lw	a0,608(sp)
9d002c2c:	3c02a000 	lui	v0,0xa000
9d002c30:	24030016 	li	v1,22
9d002c34:	ac431c78 	sw	v1,7288(v0)
9d002c38:	00003025 	move	a2,zero
9d002c3c:	00003825 	move	a3,zero
9d002c40:	0f402c5a 	jal	9d00b168 <__shlim>
9d002c44:	02202025 	move	a0,s1
9d002c48:	00001025 	move	v0,zero
9d002c4c:	00001825 	move	v1,zero
9d002c50:	8fbf024c 	lw	ra,588(sp)
9d002c54:	8fbe0248 	lw	s8,584(sp)
9d002c58:	8fb70244 	lw	s7,580(sp)
9d002c5c:	8fb60240 	lw	s6,576(sp)
9d002c60:	8fb5023c 	lw	s5,572(sp)
9d002c64:	8fb40238 	lw	s4,568(sp)
9d002c68:	8fb30234 	lw	s3,564(sp)
9d002c6c:	8fb20230 	lw	s2,560(sp)
9d002c70:	8fb1022c 	lw	s1,556(sp)
9d002c74:	8fb00228 	lw	s0,552(sp)
9d002c78:	03e00008 	jr	ra
9d002c7c:	27bd0250 	addiu	sp,sp,592
9d002c80:	0443ffe3 	bgezl	v0,9d002c10 <decfloat+0xd30>
9d002c84:	8e22004c 	lw	v0,76(s1)
9d002c88:	1000fce6 	b	9d002024 <decfloat+0x144>
9d002c8c:	8fa40260 	lw	a0,608(sp)

Disassembly of section .text.__floatscan:

9d002c90 <__floatscan>:
9d002c90:	2ca70003 	sltiu	a3,a1,3
9d002c94:	00001025 	move	v0,zero
9d002c98:	10e0030c 	beqz	a3,9d0038cc <__floatscan+0xc3c>
9d002c9c:	00001825 	move	v1,zero
9d002ca0:	3c029d01 	lui	v0,0x9d01
9d002ca4:	2442b7b4 	addiu	v0,v0,-18508
9d002ca8:	00a21021 	addu	v0,a1,v0
9d002cac:	80420000 	lb	v0,0(v0)
9d002cb0:	27bdff80 	addiu	sp,sp,-128
9d002cb4:	00052840 	sll	a1,a1,0x1
9d002cb8:	afa20024 	sw	v0,36(sp)
9d002cbc:	3c029d01 	lui	v0,0x9d01
9d002cc0:	2442b7ac 	addiu	v0,v0,-18516
9d002cc4:	00a22821 	addu	a1,a1,v0
9d002cc8:	84a20000 	lh	v0,0(a1)
9d002ccc:	afb70074 	sw	s7,116(sp)
9d002cd0:	afb60070 	sw	s6,112(sp)
9d002cd4:	afb00058 	sw	s0,88(sp)
9d002cd8:	afbf007c 	sw	ra,124(sp)
9d002cdc:	afbe0078 	sw	s8,120(sp)
9d002ce0:	afb5006c 	sw	s5,108(sp)
9d002ce4:	afb40068 	sw	s4,104(sp)
9d002ce8:	afb30064 	sw	s3,100(sp)
9d002cec:	afb20060 	sw	s2,96(sp)
9d002cf0:	afb1005c 	sw	s1,92(sp)
9d002cf4:	00c0b025 	move	s6,a2
9d002cf8:	0080b825 	move	s7,a0
9d002cfc:	afa20018 	sw	v0,24(sp)
9d002d00:	24100020 	li	s0,32
9d002d04:	8ee2003c 	lw	v0,60(s7)
9d002d08:	8ee3004c 	lw	v1,76(s7)
9d002d0c:	0043182b 	sltu	v1,v0,v1
9d002d10:	10600039 	beqz	v1,9d002df8 <__floatscan+0x168>
9d002d14:	24430001 	addiu	v1,v0,1
9d002d18:	aee3003c 	sw	v1,60(s7)
9d002d1c:	90520000 	lbu	s2,0(v0)
9d002d20:	1250fff8 	beq	s2,s0,9d002d04 <__floatscan+0x74>
9d002d24:	2642fff7 	addiu	v0,s2,-9
9d002d28:	2c420005 	sltiu	v0,v0,5
9d002d2c:	5440fff6 	bnezl	v0,9d002d08 <__floatscan+0x78>
9d002d30:	8ee2003c 	lw	v0,60(s7)
9d002d34:	2402002b 	li	v0,43
9d002d38:	12420005 	beq	s2,v0,9d002d50 <__floatscan+0xc0>
9d002d3c:	00001025 	move	v0,zero
9d002d40:	2402002d 	li	v0,45
9d002d44:	1642000b 	bne	s2,v0,9d002d74 <__floatscan+0xe4>
9d002d48:	24110001 	li	s1,1
9d002d4c:	24020002 	li	v0,2
9d002d50:	24110001 	li	s1,1
9d002d54:	02228823 	subu	s1,s1,v0
9d002d58:	8ee3004c 	lw	v1,76(s7)
9d002d5c:	8ee2003c 	lw	v0,60(s7)
9d002d60:	0043182b 	sltu	v1,v0,v1
9d002d64:	10600028 	beqz	v1,9d002e08 <__floatscan+0x178>
9d002d68:	24430001 	addiu	v1,v0,1
9d002d6c:	aee3003c 	sw	v1,60(s7)
9d002d70:	90520000 	lbu	s2,0(v0)
9d002d74:	3c139d00 	lui	s3,0x9d00
9d002d78:	00008025 	move	s0,zero
9d002d7c:	26731e38 	addiu	s3,s3,7736
9d002d80:	24140007 	li	s4,7
9d002d84:	24150008 	li	s5,8
9d002d88:	02701821 	addu	v1,s3,s0
9d002d8c:	80630000 	lb	v1,0(v1)
9d002d90:	36420020 	ori	v0,s2,0x20
9d002d94:	10430020 	beq	v0,v1,9d002e18 <__floatscan+0x188>
9d002d98:	24020003 	li	v0,3
9d002d9c:	52020007 	beql	s0,v0,9d002dbc <__floatscan+0x12c>
9d002da0:	8ee3004c 	lw	v1,76(s7)
9d002da4:	2e020004 	sltiu	v0,s0,4
9d002da8:	1440003d 	bnez	v0,9d002ea0 <__floatscan+0x210>
9d002dac:	00000000 	nop
9d002db0:	52c00048 	beqzl	s6,9d002ed4 <__floatscan+0x244>
9d002db4:	8ee2004c 	lw	v0,76(s7)
9d002db8:	8ee3004c 	lw	v1,76(s7)
9d002dbc:	10600004 	beqz	v1,9d002dd0 <__floatscan+0x140>
9d002dc0:	00000000 	nop
9d002dc4:	8ee2003c 	lw	v0,60(s7)
9d002dc8:	2442ffff 	addiu	v0,v0,-1
9d002dcc:	aee2003c 	sw	v0,60(s7)
9d002dd0:	12c0001d 	beqz	s6,9d002e48 <__floatscan+0x1b8>
9d002dd4:	24040003 	li	a0,3
9d002dd8:	1204001c 	beq	s0,a0,9d002e4c <__floatscan+0x1bc>
9d002ddc:	2402ffff 	li	v0,-1
9d002de0:	1060fffd 	beqz	v1,9d002dd8 <__floatscan+0x148>
9d002de4:	2610ffff 	addiu	s0,s0,-1
9d002de8:	8ee2003c 	lw	v0,60(s7)
9d002dec:	2442ffff 	addiu	v0,v0,-1
9d002df0:	1000fff9 	b	9d002dd8 <__floatscan+0x148>
9d002df4:	aee2003c 	sw	v0,60(s7)
9d002df8:	0f4023c5 	jal	9d008f14 <__shgetc>
9d002dfc:	02e02025 	move	a0,s7
9d002e00:	1000ffc7 	b	9d002d20 <__floatscan+0x90>
9d002e04:	00409025 	move	s2,v0
9d002e08:	0f4023c5 	jal	9d008f14 <__shgetc>
9d002e0c:	02e02025 	move	a0,s7
9d002e10:	1000ffd8 	b	9d002d74 <__floatscan+0xe4>
9d002e14:	00409025 	move	s2,v0
9d002e18:	52140009 	beql	s0,s4,9d002e40 <__floatscan+0x1b0>
9d002e1c:	26100001 	addiu	s0,s0,1
9d002e20:	8ee2003c 	lw	v0,60(s7)
9d002e24:	8ee3004c 	lw	v1,76(s7)
9d002e28:	0043182b 	sltu	v1,v0,v1
9d002e2c:	10600018 	beqz	v1,9d002e90 <__floatscan+0x200>
9d002e30:	24430001 	addiu	v1,v0,1
9d002e34:	aee3003c 	sw	v1,60(s7)
9d002e38:	90520000 	lbu	s2,0(v0)
9d002e3c:	26100001 	addiu	s0,s0,1
9d002e40:	1615ffd2 	bne	s0,s5,9d002d8c <__floatscan+0xfc>
9d002e44:	02701821 	addu	v1,s3,s0
9d002e48:	2402ffff 	li	v0,-1
9d002e4c:	12220294 	beq	s1,v0,9d0038a0 <__floatscan+0xc10>
9d002e50:	3c029d00 	lui	v0,0x9d00
9d002e54:	3c029d00 	lui	v0,0x9d00
9d002e58:	8c431e9c 	lw	v1,7836(v0)
9d002e5c:	8c421e98 	lw	v0,7832(v0)
9d002e60:	8fbf007c 	lw	ra,124(sp)
9d002e64:	8fbe0078 	lw	s8,120(sp)
9d002e68:	8fb70074 	lw	s7,116(sp)
9d002e6c:	8fb60070 	lw	s6,112(sp)
9d002e70:	8fb5006c 	lw	s5,108(sp)
9d002e74:	8fb40068 	lw	s4,104(sp)
9d002e78:	8fb30064 	lw	s3,100(sp)
9d002e7c:	8fb20060 	lw	s2,96(sp)
9d002e80:	8fb1005c 	lw	s1,92(sp)
9d002e84:	8fb00058 	lw	s0,88(sp)
9d002e88:	03e00008 	jr	ra
9d002e8c:	27bd0080 	addiu	sp,sp,128
9d002e90:	0f4023c5 	jal	9d008f14 <__shgetc>
9d002e94:	02e02025 	move	a0,s7
9d002e98:	1000ffe8 	b	9d002e3c <__floatscan+0x1ac>
9d002e9c:	00409025 	move	s2,v0
9d002ea0:	1600000b 	bnez	s0,9d002ed0 <__floatscan+0x240>
9d002ea4:	3c139d00 	lui	s3,0x9d00
9d002ea8:	26731e44 	addiu	s3,s3,7748
9d002eac:	24140002 	li	s4,2
9d002eb0:	24150003 	li	s5,3
9d002eb4:	02701821 	addu	v1,s3,s0
9d002eb8:	80630000 	lb	v1,0(v1)
9d002ebc:	36420020 	ori	v0,s2,0x20
9d002ec0:	1043000a 	beq	v0,v1,9d002eec <__floatscan+0x25c>
9d002ec4:	00000000 	nop
9d002ec8:	12000069 	beqz	s0,9d003070 <__floatscan+0x3e0>
9d002ecc:	8fa20024 	lw	v0,36(sp)
9d002ed0:	8ee2004c 	lw	v0,76(s7)
9d002ed4:	50400053 	beqzl	v0,9d003024 <__floatscan+0x394>
9d002ed8:	3c02a000 	lui	v0,0xa000
9d002edc:	8ee2003c 	lw	v0,60(s7)
9d002ee0:	2442ffff 	addiu	v0,v0,-1
9d002ee4:	1000004e 	b	9d003020 <__floatscan+0x390>
9d002ee8:	aee2003c 	sw	v0,60(s7)
9d002eec:	52140009 	beql	s0,s4,9d002f14 <__floatscan+0x284>
9d002ef0:	26100001 	addiu	s0,s0,1
9d002ef4:	8ee2003c 	lw	v0,60(s7)
9d002ef8:	8ee3004c 	lw	v1,76(s7)
9d002efc:	0043182b 	sltu	v1,v0,v1
9d002f00:	1060000f 	beqz	v1,9d002f40 <__floatscan+0x2b0>
9d002f04:	24430001 	addiu	v1,v0,1
9d002f08:	aee3003c 	sw	v1,60(s7)
9d002f0c:	90520000 	lbu	s2,0(v0)
9d002f10:	26100001 	addiu	s0,s0,1
9d002f14:	1615ffe8 	bne	s0,s5,9d002eb8 <__floatscan+0x228>
9d002f18:	02701821 	addu	v1,s3,s0
9d002f1c:	8ee3003c 	lw	v1,60(s7)
9d002f20:	8ee2004c 	lw	v0,76(s7)
9d002f24:	0062102b 	sltu	v0,v1,v0
9d002f28:	54400009 	bnezl	v0,9d002f50 <__floatscan+0x2c0>
9d002f2c:	24620001 	addiu	v0,v1,1
9d002f30:	0f4023c5 	jal	9d008f14 <__shgetc>
9d002f34:	02e02025 	move	a0,s7
9d002f38:	10000008 	b	9d002f5c <__floatscan+0x2cc>
9d002f3c:	38420028 	xori	v0,v0,0x28
9d002f40:	0f4023c5 	jal	9d008f14 <__shgetc>
9d002f44:	02e02025 	move	a0,s7
9d002f48:	1000fff1 	b	9d002f10 <__floatscan+0x280>
9d002f4c:	00409025 	move	s2,v0
9d002f50:	aee2003c 	sw	v0,60(s7)
9d002f54:	90620000 	lbu	v0,0(v1)
9d002f58:	38420028 	xori	v0,v0,0x28
9d002f5c:	0002102b 	sltu	v0,zero,v0
9d002f60:	14400017 	bnez	v0,9d002fc0 <__floatscan+0x330>
9d002f64:	24100001 	li	s0,1
9d002f68:	2411ffdf 	li	s1,-33
9d002f6c:	2412005f 	li	s2,95
9d002f70:	8ee2003c 	lw	v0,60(s7)
9d002f74:	8ee3004c 	lw	v1,76(s7)
9d002f78:	0043182b 	sltu	v1,v0,v1
9d002f7c:	1060001a 	beqz	v1,9d002fe8 <__floatscan+0x358>
9d002f80:	00000000 	nop
9d002f84:	24430001 	addiu	v1,v0,1
9d002f88:	aee3003c 	sw	v1,60(s7)
9d002f8c:	90420000 	lbu	v0,0(v0)
9d002f90:	2443ffd0 	addiu	v1,v0,-48
9d002f94:	2c63000a 	sltiu	v1,v1,10
9d002f98:	14600007 	bnez	v1,9d002fb8 <__floatscan+0x328>
9d002f9c:	00511824 	and	v1,v0,s1
9d002fa0:	2463ffbf 	addiu	v1,v1,-65
9d002fa4:	2c63001a 	sltiu	v1,v1,26
9d002fa8:	5460fff1 	bnezl	v1,9d002f70 <__floatscan+0x2e0>
9d002fac:	26100001 	addiu	s0,s0,1
9d002fb0:	14520011 	bne	v0,s2,9d002ff8 <__floatscan+0x368>
9d002fb4:	24030029 	li	v1,41
9d002fb8:	1000ffed 	b	9d002f70 <__floatscan+0x2e0>
9d002fbc:	26100001 	addiu	s0,s0,1
9d002fc0:	8ee2004c 	lw	v0,76(s7)
9d002fc4:	54400005 	bnezl	v0,9d002fdc <__floatscan+0x34c>
9d002fc8:	8ee2003c 	lw	v0,60(s7)
9d002fcc:	3c029d00 	lui	v0,0x9d00
9d002fd0:	8c431e94 	lw	v1,7828(v0)
9d002fd4:	1000ffa2 	b	9d002e60 <__floatscan+0x1d0>
9d002fd8:	8c421e90 	lw	v0,7824(v0)
9d002fdc:	2442ffff 	addiu	v0,v0,-1
9d002fe0:	1000fffa 	b	9d002fcc <__floatscan+0x33c>
9d002fe4:	aee2003c 	sw	v0,60(s7)
9d002fe8:	0f4023c5 	jal	9d008f14 <__shgetc>
9d002fec:	02e02025 	move	a0,s7
9d002ff0:	1000ffe8 	b	9d002f94 <__floatscan+0x304>
9d002ff4:	2443ffd0 	addiu	v1,v0,-48
9d002ff8:	1043fff5 	beq	v0,v1,9d002fd0 <__floatscan+0x340>
9d002ffc:	3c029d00 	lui	v0,0x9d00
9d003000:	8ee3004c 	lw	v1,76(s7)
9d003004:	10600004 	beqz	v1,9d003018 <__floatscan+0x388>
9d003008:	00000000 	nop
9d00300c:	8ee2003c 	lw	v0,60(s7)
9d003010:	2442ffff 	addiu	v0,v0,-1
9d003014:	aee2003c 	sw	v0,60(s7)
9d003018:	16c00010 	bnez	s6,9d00305c <__floatscan+0x3cc>
9d00301c:	2404ffff 	li	a0,-1
9d003020:	3c02a000 	lui	v0,0xa000
9d003024:	24030016 	li	v1,22
9d003028:	ac431c78 	sw	v1,7288(v0)
9d00302c:	00003025 	move	a2,zero
9d003030:	00003825 	move	a3,zero
9d003034:	0f402c5a 	jal	9d00b168 <__shlim>
9d003038:	02e02025 	move	a0,s7
9d00303c:	00001025 	move	v0,zero
9d003040:	1000ff87 	b	9d002e60 <__floatscan+0x1d0>
9d003044:	00001825 	move	v1,zero
9d003048:	50600005 	beqzl	v1,9d003060 <__floatscan+0x3d0>
9d00304c:	2610ffff 	addiu	s0,s0,-1
9d003050:	8ee2003c 	lw	v0,60(s7)
9d003054:	2442ffff 	addiu	v0,v0,-1
9d003058:	aee2003c 	sw	v0,60(s7)
9d00305c:	2610ffff 	addiu	s0,s0,-1
9d003060:	1604fff9 	bne	s0,a0,9d003048 <__floatscan+0x3b8>
9d003064:	3c029d00 	lui	v0,0x9d00
9d003068:	1000ffda 	b	9d002fd4 <__floatscan+0x344>
9d00306c:	8c431e94 	lw	v1,7828(v0)
9d003070:	afa20020 	sw	v0,32(sp)
9d003074:	24020030 	li	v0,48
9d003078:	16420201 	bne	s2,v0,9d003880 <__floatscan+0xbf0>
9d00307c:	8fa70018 	lw	a3,24(sp)
9d003080:	8ee2003c 	lw	v0,60(s7)
9d003084:	8ee3004c 	lw	v1,76(s7)
9d003088:	0043182b 	sltu	v1,v0,v1
9d00308c:	1060004c 	beqz	v1,9d0031c0 <__floatscan+0x530>
9d003090:	00000000 	nop
9d003094:	24430001 	addiu	v1,v0,1
9d003098:	aee3003c 	sw	v1,60(s7)
9d00309c:	90420000 	lbu	v0,0(v0)
9d0030a0:	34420020 	ori	v0,v0,0x20
9d0030a4:	24040078 	li	a0,120
9d0030a8:	144401ef 	bne	v0,a0,9d003868 <__floatscan+0xbd8>
9d0030ac:	8ee3004c 	lw	v1,76(s7)
9d0030b0:	8ee2003c 	lw	v0,60(s7)
9d0030b4:	0043182b 	sltu	v1,v0,v1
9d0030b8:	10600045 	beqz	v1,9d0031d0 <__floatscan+0x540>
9d0030bc:	00000000 	nop
9d0030c0:	24430001 	addiu	v1,v0,1
9d0030c4:	aee3003c 	sw	v1,60(s7)
9d0030c8:	90420000 	lbu	v0,0(v0)
9d0030cc:	00001825 	move	v1,zero
9d0030d0:	24120030 	li	s2,48
9d0030d4:	50520042 	beql	v0,s2,9d0031e0 <__floatscan+0x550>
9d0030d8:	8ee2003c 	lw	v0,60(s7)
9d0030dc:	2404002e 	li	a0,46
9d0030e0:	1044004c 	beq	v0,a0,9d003214 <__floatscan+0x584>
9d0030e4:	0000f025 	move	s8,zero
9d0030e8:	00006025 	move	t4,zero
9d0030ec:	00006825 	move	t5,zero
9d0030f0:	3c049d00 	lui	a0,0x9d00
9d0030f4:	8c861e60 	lw	a2,7776(a0)
9d0030f8:	8c871e64 	lw	a3,7780(a0)
9d0030fc:	afa40034 	sw	a0,52(sp)
9d003100:	3c049d00 	lui	a0,0x9d00
9d003104:	8c851e7c 	lw	a1,7804(a0)
9d003108:	8c841e78 	lw	a0,7800(a0)
9d00310c:	0000a025 	move	s4,zero
9d003110:	afa5003c 	sw	a1,60(sp)
9d003114:	afa40038 	sw	a0,56(sp)
9d003118:	3c049d00 	lui	a0,0x9d00
9d00311c:	8c851ea4 	lw	a1,7844(a0)
9d003120:	8c841ea0 	lw	a0,7840(a0)
9d003124:	0000a825 	move	s5,zero
9d003128:	afa00030 	sw	zero,48(sp)
9d00312c:	afa60028 	sw	a2,40(sp)
9d003130:	afa7002c 	sw	a3,44(sp)
9d003134:	00009025 	move	s2,zero
9d003138:	00009825 	move	s3,zero
9d00313c:	afa40040 	sw	a0,64(sp)
9d003140:	afa50044 	sw	a1,68(sp)
9d003144:	244effd0 	addiu	t6,v0,-48
9d003148:	2dc4000a 	sltiu	a0,t6,10
9d00314c:	14800056 	bnez	a0,9d0032a8 <__floatscan+0x618>
9d003150:	2404002e 	li	a0,46
9d003154:	34440020 	ori	a0,v0,0x20
9d003158:	2484ff9f 	addiu	a0,a0,-97
9d00315c:	2c840006 	sltiu	a0,a0,6
9d003160:	14800051 	bnez	a0,9d0032a8 <__floatscan+0x618>
9d003164:	2404002e 	li	a0,46
9d003168:	10440051 	beq	v0,a0,9d0032b0 <__floatscan+0x620>
9d00316c:	00000000 	nop
9d003170:	546000ba 	bnezl	v1,9d00345c <__floatscan+0x7cc>
9d003174:	028df00a 	movz	s8,s4,t5
9d003178:	8ee2004c 	lw	v0,76(s7)
9d00317c:	104001cb 	beqz	v0,9d0038ac <__floatscan+0xc1c>
9d003180:	00000000 	nop
9d003184:	12c000ad 	beqz	s6,9d00343c <__floatscan+0x7ac>
9d003188:	8ee2003c 	lw	v0,60(s7)
9d00318c:	55a00002 	bnezl	t5,9d003198 <__floatscan+0x508>
9d003190:	2442fffd 	addiu	v0,v0,-3
9d003194:	2442fffe 	addiu	v0,v0,-2
9d003198:	aee2003c 	sw	v0,60(s7)
9d00319c:	0f402a60 	jal	9d00a980 <__floatsidf>
9d0031a0:	02202025 	move	a0,s1
9d0031a4:	00003025 	move	a2,zero
9d0031a8:	00003825 	move	a3,zero
9d0031ac:	00402025 	move	a0,v0
9d0031b0:	0f401b4d 	jal	9d006d34 <__muldf3>
9d0031b4:	00602825 	move	a1,v1
9d0031b8:	1000ff2a 	b	9d002e64 <__floatscan+0x1d4>
9d0031bc:	8fbf007c 	lw	ra,124(sp)
9d0031c0:	0f4023c5 	jal	9d008f14 <__shgetc>
9d0031c4:	02e02025 	move	a0,s7
9d0031c8:	1000ffb6 	b	9d0030a4 <__floatscan+0x414>
9d0031cc:	34420020 	ori	v0,v0,0x20
9d0031d0:	0f4023c5 	jal	9d008f14 <__shgetc>
9d0031d4:	02e02025 	move	a0,s7
9d0031d8:	1000ffbd 	b	9d0030d0 <__floatscan+0x440>
9d0031dc:	00001825 	move	v1,zero
9d0031e0:	8ee3004c 	lw	v1,76(s7)
9d0031e4:	0043182b 	sltu	v1,v0,v1
9d0031e8:	10600006 	beqz	v1,9d003204 <__floatscan+0x574>
9d0031ec:	00000000 	nop
9d0031f0:	24430001 	addiu	v1,v0,1
9d0031f4:	aee3003c 	sw	v1,60(s7)
9d0031f8:	90420000 	lbu	v0,0(v0)
9d0031fc:	1000ffb5 	b	9d0030d4 <__floatscan+0x444>
9d003200:	24030001 	li	v1,1
9d003204:	0f4023c5 	jal	9d008f14 <__shgetc>
9d003208:	02e02025 	move	a0,s7
9d00320c:	1000ffb1 	b	9d0030d4 <__floatscan+0x444>
9d003210:	24030001 	li	v1,1
9d003214:	8ee2003c 	lw	v0,60(s7)
9d003218:	8ee4004c 	lw	a0,76(s7)
9d00321c:	0044202b 	sltu	a0,v0,a0
9d003220:	1080000a 	beqz	a0,9d00324c <__floatscan+0x5bc>
9d003224:	24440001 	addiu	a0,v0,1
9d003228:	aee4003c 	sw	a0,60(s7)
9d00322c:	90420000 	lbu	v0,0(v0)
9d003230:	0000f025 	move	s8,zero
9d003234:	00006025 	move	t4,zero
9d003238:	24120030 	li	s2,48
9d00323c:	50520008 	beql	v0,s2,9d003260 <__floatscan+0x5d0>
9d003240:	8ee2003c 	lw	v0,60(s7)
9d003244:	1000ffaa 	b	9d0030f0 <__floatscan+0x460>
9d003248:	240d0001 	li	t5,1
9d00324c:	02e02025 	move	a0,s7
9d003250:	0f4023c5 	jal	9d008f14 <__shgetc>
9d003254:	afa30028 	sw	v1,40(sp)
9d003258:	1000fff5 	b	9d003230 <__floatscan+0x5a0>
9d00325c:	8fa30028 	lw	v1,40(sp)
9d003260:	8ee3004c 	lw	v1,76(s7)
9d003264:	0043182b 	sltu	v1,v0,v1
9d003268:	1060000b 	beqz	v1,9d003298 <__floatscan+0x608>
9d00326c:	02e02025 	move	a0,s7
9d003270:	24430001 	addiu	v1,v0,1
9d003274:	aee3003c 	sw	v1,60(s7)
9d003278:	90420000 	lbu	v0,0(v0)
9d00327c:	27c3ffff 	addiu	v1,s8,-1
9d003280:	007e202b 	sltu	a0,v1,s8
9d003284:	258cffff 	addiu	t4,t4,-1
9d003288:	0060f025 	move	s8,v1
9d00328c:	008c6021 	addu	t4,a0,t4
9d003290:	1000ffea 	b	9d00323c <__floatscan+0x5ac>
9d003294:	24030001 	li	v1,1
9d003298:	0f4023c5 	jal	9d008f14 <__shgetc>
9d00329c:	afac0028 	sw	t4,40(sp)
9d0032a0:	1000fff6 	b	9d00327c <__floatscan+0x5ec>
9d0032a4:	8fac0028 	lw	t4,40(sp)
9d0032a8:	54440011 	bnel	v0,a0,9d0032f0 <__floatscan+0x660>
9d0032ac:	2843003a 	slti	v1,v0,58
9d0032b0:	15a00182 	bnez	t5,9d0038bc <__floatscan+0xc2c>
9d0032b4:	02802825 	move	a1,s4
9d0032b8:	02a05025 	move	t2,s5
9d0032bc:	240d0001 	li	t5,1
9d0032c0:	8ee2003c 	lw	v0,60(s7)
9d0032c4:	8ee4004c 	lw	a0,76(s7)
9d0032c8:	0044202b 	sltu	a0,v0,a0
9d0032cc:	10800050 	beqz	a0,9d003410 <__floatscan+0x780>
9d0032d0:	24440001 	addiu	a0,v0,1
9d0032d4:	aee4003c 	sw	a0,60(s7)
9d0032d8:	90420000 	lbu	v0,0(v0)
9d0032dc:	0280f025 	move	s8,s4
9d0032e0:	02a06025 	move	t4,s5
9d0032e4:	00a0a025 	move	s4,a1
9d0032e8:	1000ff96 	b	9d003144 <__floatscan+0x4b4>
9d0032ec:	0140a825 	move	s5,t2
9d0032f0:	14600002 	bnez	v1,9d0032fc <__floatscan+0x66c>
9d0032f4:	34420020 	ori	v0,v0,0x20
9d0032f8:	244effa9 	addiu	t6,v0,-87
9d0032fc:	1ea0002c 	bgtz	s5,9d0033b0 <__floatscan+0x720>
9d003300:	00000000 	nop
9d003304:	56a00005 	bnezl	s5,9d00331c <__floatscan+0x68c>
9d003308:	00108100 	sll	s0,s0,0x4
9d00330c:	2e820008 	sltiu	v0,s4,8
9d003310:	1040000a 	beqz	v0,9d00333c <__floatscan+0x6ac>
9d003314:	2e82000e 	sltiu	v0,s4,14
9d003318:	00108100 	sll	s0,s0,0x4
9d00331c:	01d08021 	addu	s0,t6,s0
9d003320:	26850001 	addiu	a1,s4,1
9d003324:	00b4502b 	sltu	t2,a1,s4
9d003328:	01555021 	addu	t2,t2,s5
9d00332c:	03c0a025 	move	s4,s8
9d003330:	0180a825 	move	s5,t4
9d003334:	1000ffe2 	b	9d0032c0 <__floatscan+0x630>
9d003338:	24030001 	li	v1,1
9d00333c:	1040001c 	beqz	v0,9d0033b0 <__floatscan+0x720>
9d003340:	8fa5002c 	lw	a1,44(sp)
9d003344:	8fa60040 	lw	a2,64(sp)
9d003348:	8fa70044 	lw	a3,68(sp)
9d00334c:	8fa40028 	lw	a0,40(sp)
9d003350:	afac0050 	sw	t4,80(sp)
9d003354:	afad0048 	sw	t5,72(sp)
9d003358:	0f401b4d 	jal	9d006d34 <__muldf3>
9d00335c:	afae004c 	sw	t6,76(sp)
9d003360:	8fae004c 	lw	t6,76(sp)
9d003364:	afa20028 	sw	v0,40(sp)
9d003368:	afa3002c 	sw	v1,44(sp)
9d00336c:	0f402a60 	jal	9d00a980 <__floatsidf>
9d003370:	01c02025 	move	a0,t6
9d003374:	8fa60028 	lw	a2,40(sp)
9d003378:	8fa7002c 	lw	a3,44(sp)
9d00337c:	00402025 	move	a0,v0
9d003380:	0f401b4d 	jal	9d006d34 <__muldf3>
9d003384:	00602825 	move	a1,v1
9d003388:	00403025 	move	a2,v0
9d00338c:	02402025 	move	a0,s2
9d003390:	02602825 	move	a1,s3
9d003394:	0f40174c 	jal	9d005d30 <__adddf3>
9d003398:	00603825 	move	a3,v1
9d00339c:	00409025 	move	s2,v0
9d0033a0:	00609825 	move	s3,v1
9d0033a4:	8fad0048 	lw	t5,72(sp)
9d0033a8:	1000ffdd 	b	9d003320 <__floatscan+0x690>
9d0033ac:	8fac0050 	lw	t4,80(sp)
9d0033b0:	11c0ffdc 	beqz	t6,9d003324 <__floatscan+0x694>
9d0033b4:	26850001 	addiu	a1,s4,1
9d0033b8:	8fa20030 	lw	v0,48(sp)
9d0033bc:	5440ffda 	bnezl	v0,9d003328 <__floatscan+0x698>
9d0033c0:	00b4502b 	sltu	t2,a1,s4
9d0033c4:	8fa60038 	lw	a2,56(sp)
9d0033c8:	8fa7003c 	lw	a3,60(sp)
9d0033cc:	8fa40028 	lw	a0,40(sp)
9d0033d0:	8fa5002c 	lw	a1,44(sp)
9d0033d4:	afac004c 	sw	t4,76(sp)
9d0033d8:	0f401b4d 	jal	9d006d34 <__muldf3>
9d0033dc:	afad0048 	sw	t5,72(sp)
9d0033e0:	00403025 	move	a2,v0
9d0033e4:	02402025 	move	a0,s2
9d0033e8:	02602825 	move	a1,s3
9d0033ec:	0f40174c 	jal	9d005d30 <__adddf3>
9d0033f0:	00603825 	move	a3,v1
9d0033f4:	00409025 	move	s2,v0
9d0033f8:	24020001 	li	v0,1
9d0033fc:	00609825 	move	s3,v1
9d003400:	afa20030 	sw	v0,48(sp)
9d003404:	8fac004c 	lw	t4,76(sp)
9d003408:	1000ffc5 	b	9d003320 <__floatscan+0x690>
9d00340c:	8fad0048 	lw	t5,72(sp)
9d003410:	02e02025 	move	a0,s7
9d003414:	afaa0054 	sw	t2,84(sp)
9d003418:	afa50050 	sw	a1,80(sp)
9d00341c:	afa3004c 	sw	v1,76(sp)
9d003420:	0f4023c5 	jal	9d008f14 <__shgetc>
9d003424:	afad0048 	sw	t5,72(sp)
9d003428:	8faa0054 	lw	t2,84(sp)
9d00342c:	8fa50050 	lw	a1,80(sp)
9d003430:	8fa3004c 	lw	v1,76(sp)
9d003434:	1000ffa9 	b	9d0032dc <__floatscan+0x64c>
9d003438:	8fad0048 	lw	t5,72(sp)
9d00343c:	2442ffff 	addiu	v0,v0,-1
9d003440:	aee2003c 	sw	v0,60(s7)
9d003444:	00003025 	move	a2,zero
9d003448:	00003825 	move	a3,zero
9d00344c:	0f402c5a 	jal	9d00b168 <__shlim>
9d003450:	02e02025 	move	a0,s7
9d003454:	1000ff51 	b	9d00319c <__floatscan+0x50c>
9d003458:	00000000 	nop
9d00345c:	02ad600a 	movz	t4,s5,t5
9d003460:	5ea00007 	bgtzl	s5,9d003480 <__floatscan+0x7f0>
9d003464:	34420020 	ori	v0,v0,0x20
9d003468:	16a00018 	bnez	s5,9d0034cc <__floatscan+0x83c>
9d00346c:	26830001 	addiu	v1,s4,1
9d003470:	2e830008 	sltiu	v1,s4,8
9d003474:	14600015 	bnez	v1,9d0034cc <__floatscan+0x83c>
9d003478:	26830001 	addiu	v1,s4,1
9d00347c:	34420020 	ori	v0,v0,0x20
9d003480:	24030070 	li	v1,112
9d003484:	54430040 	bnel	v0,v1,9d003588 <__floatscan+0x8f8>
9d003488:	8ee2004c 	lw	v0,76(s7)
9d00348c:	02c02825 	move	a1,s6
9d003490:	02e02025 	move	a0,s7
9d003494:	0f401c18 	jal	9d007060 <scanexp>
9d003498:	afac0028 	sw	t4,40(sp)
9d00349c:	14400013 	bnez	v0,9d0034ec <__floatscan+0x85c>
9d0034a0:	8fac0028 	lw	t4,40(sp)
9d0034a4:	3c048000 	lui	a0,0x8000
9d0034a8:	14640010 	bne	v1,a0,9d0034ec <__floatscan+0x85c>
9d0034ac:	00000000 	nop
9d0034b0:	12c0fedf 	beqz	s6,9d003030 <__floatscan+0x3a0>
9d0034b4:	00003025 	move	a2,zero
9d0034b8:	8ee3004c 	lw	v1,76(s7)
9d0034bc:	54600008 	bnezl	v1,9d0034e0 <__floatscan+0x850>
9d0034c0:	8ee3003c 	lw	v1,60(s7)
9d0034c4:	10000008 	b	9d0034e8 <__floatscan+0x858>
9d0034c8:	00001025 	move	v0,zero
9d0034cc:	0074202b 	sltu	a0,v1,s4
9d0034d0:	00108100 	sll	s0,s0,0x4
9d0034d4:	0060a025 	move	s4,v1
9d0034d8:	1000ffe1 	b	9d003460 <__floatscan+0x7d0>
9d0034dc:	0095a821 	addu	s5,a0,s5
9d0034e0:	2463ffff 	addiu	v1,v1,-1
9d0034e4:	aee3003c 	sw	v1,60(s7)
9d0034e8:	00001825 	move	v1,zero
9d0034ec:	1200ff2b 	beqz	s0,9d00319c <__floatscan+0x50c>
9d0034f0:	27c4fff8 	addiu	a0,s8,-8
9d0034f4:	009e482b 	sltu	t1,a0,s8
9d0034f8:	258cffff 	addiu	t4,t4,-1
9d0034fc:	012c4821 	addu	t1,t1,t4
9d003500:	00042f82 	srl	a1,a0,0x1e
9d003504:	00094880 	sll	t1,t1,0x2
9d003508:	00042080 	sll	a0,a0,0x2
9d00350c:	00a94825 	or	t1,a1,t1
9d003510:	00821021 	addu	v0,a0,v0
9d003514:	0044202b 	sltu	a0,v0,a0
9d003518:	01231821 	addu	v1,t1,v1
9d00351c:	00831821 	addu	v1,a0,v1
9d003520:	8fa40018 	lw	a0,24(sp)
9d003524:	0040a025 	move	s4,v0
9d003528:	00042023 	negu	a0,a0
9d00352c:	00042fc3 	sra	a1,a0,0x1f
9d003530:	00a3302a 	slt	a2,a1,v1
9d003534:	14c00006 	bnez	a2,9d003550 <__floatscan+0x8c0>
9d003538:	0060a825 	move	s5,v1
9d00353c:	54650018 	bnel	v1,a1,9d0035a0 <__floatscan+0x910>
9d003540:	8fa40018 	lw	a0,24(sp)
9d003544:	0082202b 	sltu	a0,a0,v0
9d003548:	10800015 	beqz	a0,9d0035a0 <__floatscan+0x910>
9d00354c:	8fa40018 	lw	a0,24(sp)
9d003550:	3c02a000 	lui	v0,0xa000
9d003554:	24030022 	li	v1,34
9d003558:	3c109d00 	lui	s0,0x9d00
9d00355c:	02202025 	move	a0,s1
9d003560:	0f402a60 	jal	9d00a980 <__floatsidf>
9d003564:	ac431c78 	sw	v1,7288(v0)
9d003568:	8e061e48 	lw	a2,7752(s0)
9d00356c:	8e071e4c 	lw	a3,7756(s0)
9d003570:	00402025 	move	a0,v0
9d003574:	0f401b4d 	jal	9d006d34 <__muldf3>
9d003578:	00602825 	move	a1,v1
9d00357c:	8e061e48 	lw	a2,7752(s0)
9d003580:	1000ff0a 	b	9d0031ac <__floatscan+0x51c>
9d003584:	8e071e4c 	lw	a3,7756(s0)
9d003588:	5040ffd7 	beqzl	v0,9d0034e8 <__floatscan+0x858>
9d00358c:	00001025 	move	v0,zero
9d003590:	8ee2003c 	lw	v0,60(s7)
9d003594:	2442ffff 	addiu	v0,v0,-1
9d003598:	1000ffca 	b	9d0034c4 <__floatscan+0x834>
9d00359c:	aee2003c 	sw	v0,60(s7)
9d0035a0:	2484ff96 	addiu	a0,a0,-106
9d0035a4:	00042fc3 	sra	a1,a0,0x1f
9d0035a8:	0065302a 	slt	a2,v1,a1
9d0035ac:	54c00007 	bnezl	a2,9d0035cc <__floatscan+0x93c>
9d0035b0:	3c02a000 	lui	v0,0xa000
9d0035b4:	54a300a2 	bnel	a1,v1,9d003840 <__floatscan+0xbb0>
9d0035b8:	3c029d00 	lui	v0,0x9d00
9d0035bc:	0044102b 	sltu	v0,v0,a0
9d0035c0:	5040009f 	beqzl	v0,9d003840 <__floatscan+0xbb0>
9d0035c4:	3c029d00 	lui	v0,0x9d00
9d0035c8:	3c02a000 	lui	v0,0xa000
9d0035cc:	24030022 	li	v1,34
9d0035d0:	3c109d00 	lui	s0,0x9d00
9d0035d4:	02202025 	move	a0,s1
9d0035d8:	0f402a60 	jal	9d00a980 <__floatsidf>
9d0035dc:	ac431c78 	sw	v1,7288(v0)
9d0035e0:	8e061e50 	lw	a2,7760(s0)
9d0035e4:	8e071e54 	lw	a3,7764(s0)
9d0035e8:	00402025 	move	a0,v0
9d0035ec:	0f401b4d 	jal	9d006d34 <__muldf3>
9d0035f0:	00602825 	move	a1,v1
9d0035f4:	8e061e50 	lw	a2,7760(s0)
9d0035f8:	1000feec 	b	9d0031ac <__floatscan+0x51c>
9d0035fc:	8e071e54 	lw	a3,7764(s0)
9d003600:	02e03825 	move	a3,s7
9d003604:	02402025 	move	a0,s2
9d003608:	02602825 	move	a1,s3
9d00360c:	0f4022e5 	jal	9d008b94 <__eqdf2>
9d003610:	00108040 	sll	s0,s0,0x1
9d003614:	04400088 	bltz	v0,9d003838 <__floatscan+0xba8>
9d003618:	02403025 	move	a2,s2
9d00361c:	8fa60028 	lw	a2,40(sp)
9d003620:	8fa7002c 	lw	a3,44(sp)
9d003624:	02402025 	move	a0,s2
9d003628:	0f40174a 	jal	9d005d28 <__subdf3>
9d00362c:	02602825 	move	a1,s3
9d003630:	26100001 	addiu	s0,s0,1
9d003634:	00403025 	move	a2,v0
9d003638:	00603825 	move	a3,v1
9d00363c:	02402025 	move	a0,s2
9d003640:	0f40174c 	jal	9d005d30 <__adddf3>
9d003644:	02602825 	move	a1,s3
9d003648:	00409025 	move	s2,v0
9d00364c:	2682ffff 	addiu	v0,s4,-1
9d003650:	00609825 	move	s3,v1
9d003654:	26b5ffff 	addiu	s5,s5,-1
9d003658:	0054182b 	sltu	v1,v0,s4
9d00365c:	0075a821 	addu	s5,v1,s5
9d003660:	0040a025 	move	s4,v0
9d003664:	0601ffe6 	bgez	s0,9d003600 <__floatscan+0x970>
9d003668:	02c03025 	move	a2,s6
9d00366c:	8fa20024 	lw	v0,36(sp)
9d003670:	8fa40018 	lw	a0,24(sp)
9d003674:	26830020 	addiu	v1,s4,32
9d003678:	00022fc3 	sra	a1,v0,0x1f
9d00367c:	0074102b 	sltu	v0,v1,s4
9d003680:	00551021 	addu	v0,v0,s5
9d003684:	0004afc3 	sra	s5,a0,0x1f
9d003688:	00642023 	subu	a0,v1,a0
9d00368c:	0055a823 	subu	s5,v0,s5
9d003690:	0064182b 	sltu	v1,v1,a0
9d003694:	02a3a823 	subu	s5,s5,v1
9d003698:	02a5102a 	slt	v0,s5,a1
9d00369c:	14400008 	bnez	v0,9d0036c0 <__floatscan+0xa30>
9d0036a0:	8fa20018 	lw	v0,24(sp)
9d0036a4:	14b5000b 	bne	a1,s5,9d0036d4 <__floatscan+0xa44>
9d0036a8:	8fa20020 	lw	v0,32(sp)
9d0036ac:	8fa20024 	lw	v0,36(sp)
9d0036b0:	0082202b 	sltu	a0,a0,v0
9d0036b4:	10800007 	beqz	a0,9d0036d4 <__floatscan+0xa44>
9d0036b8:	8fa20020 	lw	v0,32(sp)
9d0036bc:	8fa20018 	lw	v0,24(sp)
9d0036c0:	0282b823 	subu	s7,s4,v0
9d0036c4:	26e20020 	addiu	v0,s7,32
9d0036c8:	04400065 	bltz	v0,9d003860 <__floatscan+0xbd0>
9d0036cc:	afa20020 	sw	v0,32(sp)
9d0036d0:	8fa20020 	lw	v0,32(sp)
9d0036d4:	0000b025 	move	s6,zero
9d0036d8:	28420035 	slti	v0,v0,53
9d0036dc:	10400022 	beqz	v0,9d003768 <__floatscan+0xad8>
9d0036e0:	0000b825 	move	s7,zero
9d0036e4:	8fa20020 	lw	v0,32(sp)
9d0036e8:	24060054 	li	a2,84
9d0036ec:	00c23023 	subu	a2,a2,v0
9d0036f0:	8fa20034 	lw	v0,52(sp)
9d0036f4:	8c451e64 	lw	a1,7780(v0)
9d0036f8:	0f40255b 	jal	9d00956c <scalbn>
9d0036fc:	8c441e60 	lw	a0,7776(v0)
9d003700:	02202025 	move	a0,s1
9d003704:	0040b025 	move	s6,v0
9d003708:	0f402a60 	jal	9d00a980 <__floatsidf>
9d00370c:	0060b825 	move	s7,v1
9d003710:	00403025 	move	a2,v0
9d003714:	02c02025 	move	a0,s6
9d003718:	02e02825 	move	a1,s7
9d00371c:	0f402e01 	jal	9d00b804 <copysignl>
9d003720:	00603825 	move	a3,v1
9d003724:	0040b025 	move	s6,v0
9d003728:	8fa20020 	lw	v0,32(sp)
9d00372c:	285e0020 	slti	s8,v0,32
9d003730:	13c0000d 	beqz	s8,9d003768 <__floatscan+0xad8>
9d003734:	0060b825 	move	s7,v1
9d003738:	00003025 	move	a2,zero
9d00373c:	00003825 	move	a3,zero
9d003740:	02402025 	move	a0,s2
9d003744:	0f4022e5 	jal	9d008b94 <__eqdf2>
9d003748:	02602825 	move	a1,s3
9d00374c:	10400006 	beqz	v0,9d003768 <__floatscan+0xad8>
9d003750:	32020001 	andi	v0,s0,0x1
9d003754:	14400004 	bnez	v0,9d003768 <__floatscan+0xad8>
9d003758:	00000000 	nop
9d00375c:	26100001 	addiu	s0,s0,1
9d003760:	00009025 	move	s2,zero
9d003764:	00009825 	move	s3,zero
9d003768:	0f402a60 	jal	9d00a980 <__floatsidf>
9d00376c:	02202025 	move	a0,s1
9d003770:	00602825 	move	a1,v1
9d003774:	02403025 	move	a2,s2
9d003778:	02603825 	move	a3,s3
9d00377c:	00402025 	move	a0,v0
9d003780:	afa20018 	sw	v0,24(sp)
9d003784:	0f401b4d 	jal	9d006d34 <__muldf3>
9d003788:	afa3001c 	sw	v1,28(sp)
9d00378c:	02002025 	move	a0,s0
9d003790:	00409025 	move	s2,v0
9d003794:	0f402cfd 	jal	9d00b3f4 <__floatunsidf>
9d003798:	00609825 	move	s3,v1
9d00379c:	8fa80018 	lw	t0,24(sp)
9d0037a0:	8fa9001c 	lw	t1,28(sp)
9d0037a4:	00402025 	move	a0,v0
9d0037a8:	01003025 	move	a2,t0
9d0037ac:	01203825 	move	a3,t1
9d0037b0:	0f401b4d 	jal	9d006d34 <__muldf3>
9d0037b4:	00602825 	move	a1,v1
9d0037b8:	00402025 	move	a0,v0
9d0037bc:	02c03025 	move	a2,s6
9d0037c0:	02e03825 	move	a3,s7
9d0037c4:	0f40174c 	jal	9d005d30 <__adddf3>
9d0037c8:	00602825 	move	a1,v1
9d0037cc:	00402025 	move	a0,v0
9d0037d0:	02403025 	move	a2,s2
9d0037d4:	02603825 	move	a3,s3
9d0037d8:	0f40174c 	jal	9d005d30 <__adddf3>
9d0037dc:	00602825 	move	a1,v1
9d0037e0:	00402025 	move	a0,v0
9d0037e4:	02c03025 	move	a2,s6
9d0037e8:	02e03825 	move	a3,s7
9d0037ec:	0f40174a 	jal	9d005d28 <__subdf3>
9d0037f0:	00602825 	move	a1,v1
9d0037f4:	00402025 	move	a0,v0
9d0037f8:	00003025 	move	a2,zero
9d0037fc:	00003825 	move	a3,zero
9d003800:	00602825 	move	a1,v1
9d003804:	00408025 	move	s0,v0
9d003808:	0f4022e5 	jal	9d008b94 <__eqdf2>
9d00380c:	00608825 	move	s1,v1
9d003810:	14400004 	bnez	v0,9d003824 <__floatscan+0xb94>
9d003814:	02803025 	move	a2,s4
9d003818:	3c02a000 	lui	v0,0xa000
9d00381c:	24030022 	li	v1,34
9d003820:	ac431c78 	sw	v1,7288(v0)
9d003824:	02002025 	move	a0,s0
9d003828:	0f402ee3 	jal	9d00bb8c <scalbnl>
9d00382c:	02202825 	move	a1,s1
9d003830:	1000fd8c 	b	9d002e64 <__floatscan+0x1d4>
9d003834:	8fbf007c 	lw	ra,124(sp)
9d003838:	1000ff80 	b	9d00363c <__floatscan+0x9ac>
9d00383c:	02603825 	move	a3,s3
9d003840:	8c561e78 	lw	s6,7800(v0)
9d003844:	8c571e7c 	lw	s7,7804(v0)
9d003848:	8fa20034 	lw	v0,52(sp)
9d00384c:	8c431e64 	lw	v1,7780(v0)
9d003850:	8c421e60 	lw	v0,7776(v0)
9d003854:	afa3002c 	sw	v1,44(sp)
9d003858:	1000ff82 	b	9d003664 <__floatscan+0x9d4>
9d00385c:	afa20028 	sw	v0,40(sp)
9d003860:	1000ffa0 	b	9d0036e4 <__floatscan+0xa54>
9d003864:	afa00020 	sw	zero,32(sp)
9d003868:	10600005 	beqz	v1,9d003880 <__floatscan+0xbf0>
9d00386c:	8fa70018 	lw	a3,24(sp)
9d003870:	8ee2003c 	lw	v0,60(s7)
9d003874:	2442ffff 	addiu	v0,v0,-1
9d003878:	aee2003c 	sw	v0,60(s7)
9d00387c:	8fa70018 	lw	a3,24(sp)
9d003880:	8fa60024 	lw	a2,36(sp)
9d003884:	afb60014 	sw	s6,20(sp)
9d003888:	afb10010 	sw	s1,16(sp)
9d00388c:	02402825 	move	a1,s2
9d003890:	0f4007b8 	jal	9d001ee0 <decfloat>
9d003894:	02e02025 	move	a0,s7
9d003898:	1000fd72 	b	9d002e64 <__floatscan+0x1d4>
9d00389c:	8fbf007c 	lw	ra,124(sp)
9d0038a0:	8c431e8c 	lw	v1,7820(v0)
9d0038a4:	1000fd6e 	b	9d002e60 <__floatscan+0x1d0>
9d0038a8:	8c421e88 	lw	v0,7816(v0)
9d0038ac:	16c0fe3b 	bnez	s6,9d00319c <__floatscan+0x50c>
9d0038b0:	00003025 	move	a2,zero
9d0038b4:	1000fee5 	b	9d00344c <__floatscan+0x7bc>
9d0038b8:	00003825 	move	a3,zero
9d0038bc:	1460fee8 	bnez	v1,9d003460 <__floatscan+0x7d0>
9d0038c0:	2402002e 	li	v0,46
9d0038c4:	1000fe2d 	b	9d00317c <__floatscan+0x4ec>
9d0038c8:	8ee2004c 	lw	v0,76(s7)
9d0038cc:	03e00008 	jr	ra
9d0038d0:	00000000 	nop

Disassembly of section .text.__scanf_core:

9d0038d4 <__scanf_core>:
9d0038d4:	27bdfe20 	addiu	sp,sp,-480
9d0038d8:	afb701d4 	sw	s7,468(sp)
9d0038dc:	afb601d0 	sw	s6,464(sp)
9d0038e0:	afb501cc 	sw	s5,460(sp)
9d0038e4:	afb201c0 	sw	s2,448(sp)
9d0038e8:	afb001b8 	sw	s0,440(sp)
9d0038ec:	afbf01dc 	sw	ra,476(sp)
9d0038f0:	afbe01d8 	sw	s8,472(sp)
9d0038f4:	afb401c8 	sw	s4,456(sp)
9d0038f8:	afb301c4 	sw	s3,452(sp)
9d0038fc:	afb101bc 	sw	s1,444(sp)
9d003900:	00808025 	move	s0,a0
9d003904:	00c09025 	move	s2,a2
9d003908:	afa501b4 	sw	a1,436(sp)
9d00390c:	afa001b0 	sw	zero,432(sp)
9d003910:	0000a825 	move	s5,zero
9d003914:	27b7011c 	addiu	s7,sp,284
9d003918:	24160025 	li	s6,37
9d00391c:	8fa201b4 	lw	v0,436(sp)
9d003920:	80420000 	lb	v0,0(v0)
9d003924:	1040005d 	beqz	v0,9d003a9c <__scanf_core+0x1c8>
9d003928:	24020080 	li	v0,128
9d00392c:	27a501b4 	addiu	a1,sp,436
9d003930:	02002025 	move	a0,s0
9d003934:	afa0019c 	sw	zero,412(sp)
9d003938:	afa001a0 	sw	zero,416(sp)
9d00393c:	afa001a4 	sw	zero,420(sp)
9d003940:	afb701a8 	sw	s7,424(sp)
9d003944:	0f402a7e 	jal	9d00a9f8 <__consumews>
9d003948:	afa201ac 	sw	v0,428(sp)
9d00394c:	00408825 	move	s1,v0
9d003950:	2414ffff 	li	s4,-1
9d003954:	8fa301b4 	lw	v1,436(sp)
9d003958:	80620000 	lb	v0,0(v1)
9d00395c:	50400004 	beqzl	v0,9d003970 <__scanf_core+0x9c>
9d003960:	8fa201b0 	lw	v0,432(sp)
9d003964:	5456003d 	bnel	v0,s6,9d003a5c <__scanf_core+0x188>
9d003968:	8e02003c 	lw	v0,60(s0)
9d00396c:	8fa201b0 	lw	v0,432(sp)
9d003970:	00511021 	addu	v0,v0,s1
9d003974:	afa201b0 	sw	v0,432(sp)
9d003978:	80620000 	lb	v0,0(v1)
9d00397c:	14560031 	bne	v0,s6,9d003a44 <__scanf_core+0x170>
9d003980:	2402ffff 	li	v0,-1
9d003984:	24620001 	addiu	v0,v1,1
9d003988:	afa201b4 	sw	v0,436(sp)
9d00398c:	afa001a4 	sw	zero,420(sp)
9d003990:	80640001 	lb	a0,1(v1)
9d003994:	2402002a 	li	v0,42
9d003998:	14820004 	bne	a0,v0,9d0039ac <__scanf_core+0xd8>
9d00399c:	00008825 	move	s1,zero
9d0039a0:	24630002 	addiu	v1,v1,2
9d0039a4:	afa301b4 	sw	v1,436(sp)
9d0039a8:	24110001 	li	s1,1
9d0039ac:	0f4029e1 	jal	9d00a784 <atoi>
9d0039b0:	8fa401b4 	lw	a0,436(sp)
9d0039b4:	00403025 	move	a2,v0
9d0039b8:	00023fc3 	sra	a3,v0,0x1f
9d0039bc:	02002025 	move	a0,s0
9d0039c0:	0f402c5a 	jal	9d00b168 <__shlim>
9d0039c4:	afa201a4 	sw	v0,420(sp)
9d0039c8:	8fa301b4 	lw	v1,436(sp)
9d0039cc:	80620000 	lb	v0,0(v1)
9d0039d0:	2442ffd0 	addiu	v0,v0,-48
9d0039d4:	2c42000a 	sltiu	v0,v0,10
9d0039d8:	1440004c 	bnez	v0,9d003b0c <__scanf_core+0x238>
9d0039dc:	24630001 	addiu	v1,v1,1
9d0039e0:	0f402b84 	jal	9d00ae10 <__fmt_state>
9d0039e4:	27a401b4 	addiu	a0,sp,436
9d0039e8:	0040a025 	move	s4,v0
9d0039ec:	8fa201b4 	lw	v0,436(sp)
9d0039f0:	0f402e88 	jal	9d00ba20 <tolower>
9d0039f4:	80440000 	lb	a0,0(v0)
9d0039f8:	28430068 	slti	v1,v0,104
9d0039fc:	1060005f 	beqz	v1,9d003b7c <__scanf_core+0x2a8>
9d003a00:	24030070 	li	v1,112
9d003a04:	28430065 	slti	v1,v0,101
9d003a08:	106000bc 	beqz	v1,9d003cfc <__scanf_core+0x428>
9d003a0c:	24030061 	li	v1,97
9d003a10:	104300ba 	beq	v0,v1,9d003cfc <__scanf_core+0x428>
9d003a14:	28430062 	slti	v1,v0,98
9d003a18:	5060003e 	beqzl	v1,9d003b14 <__scanf_core+0x240>
9d003a1c:	24030063 	li	v1,99
9d003a20:	105600e0 	beq	v0,s6,9d003da4 <__scanf_core+0x4d0>
9d003a24:	8fa301b4 	lw	v1,436(sp)
9d003a28:	2404005b 	li	a0,91
9d003a2c:	104400fa 	beq	v0,a0,9d003e18 <__scanf_core+0x544>
9d003a30:	24020080 	li	v0,128
9d003a34:	8fa201b4 	lw	v0,436(sp)
9d003a38:	24420001 	addiu	v0,v0,1
9d003a3c:	afa201b4 	sw	v0,436(sp)
9d003a40:	2402ffff 	li	v0,-1
9d003a44:	166200ab 	bne	s3,v0,9d003cf4 <__scanf_core+0x420>
9d003a48:	00008825 	move	s1,zero
9d003a4c:	52a00013 	beqzl	s5,9d003a9c <__scanf_core+0x1c8>
9d003a50:	2415ffff 	li	s5,-1
9d003a54:	10000012 	b	9d003aa0 <__scanf_core+0x1cc>
9d003a58:	8fbf01dc 	lw	ra,476(sp)
9d003a5c:	8e03004c 	lw	v1,76(s0)
9d003a60:	0043182b 	sltu	v1,v0,v1
9d003a64:	1060001a 	beqz	v1,9d003ad0 <__scanf_core+0x1fc>
9d003a68:	24430001 	addiu	v1,v0,1
9d003a6c:	ae03003c 	sw	v1,60(s0)
9d003a70:	90530000 	lbu	s3,0(v0)
9d003a74:	8fa201b4 	lw	v0,436(sp)
9d003a78:	80420000 	lb	v0,0(v0)
9d003a7c:	10530019 	beq	v0,s3,9d003ae4 <__scanf_core+0x210>
9d003a80:	8fa201b0 	lw	v0,432(sp)
9d003a84:	8e02004c 	lw	v0,76(s0)
9d003a88:	10400005 	beqz	v0,9d003aa0 <__scanf_core+0x1cc>
9d003a8c:	8fbf01dc 	lw	ra,476(sp)
9d003a90:	8e02003c 	lw	v0,60(s0)
9d003a94:	2442ffff 	addiu	v0,v0,-1
9d003a98:	ae02003c 	sw	v0,60(s0)
9d003a9c:	8fbf01dc 	lw	ra,476(sp)
9d003aa0:	02a01025 	move	v0,s5
9d003aa4:	8fbe01d8 	lw	s8,472(sp)
9d003aa8:	8fb701d4 	lw	s7,468(sp)
9d003aac:	8fb601d0 	lw	s6,464(sp)
9d003ab0:	8fb501cc 	lw	s5,460(sp)
9d003ab4:	8fb401c8 	lw	s4,456(sp)
9d003ab8:	8fb301c4 	lw	s3,452(sp)
9d003abc:	8fb201c0 	lw	s2,448(sp)
9d003ac0:	8fb101bc 	lw	s1,444(sp)
9d003ac4:	8fb001b8 	lw	s0,440(sp)
9d003ac8:	03e00008 	jr	ra
9d003acc:	27bd01e0 	addiu	sp,sp,480
9d003ad0:	0f4023c5 	jal	9d008f14 <__shgetc>
9d003ad4:	02002025 	move	a0,s0
9d003ad8:	1454ffe6 	bne	v0,s4,9d003a74 <__scanf_core+0x1a0>
9d003adc:	00409825 	move	s3,v0
9d003ae0:	8fa201b0 	lw	v0,432(sp)
9d003ae4:	27a501b4 	addiu	a1,sp,436
9d003ae8:	02002025 	move	a0,s0
9d003aec:	24420001 	addiu	v0,v0,1
9d003af0:	afa201b0 	sw	v0,432(sp)
9d003af4:	8fa201b4 	lw	v0,436(sp)
9d003af8:	24420001 	addiu	v0,v0,1
9d003afc:	0f402a7e 	jal	9d00a9f8 <__consumews>
9d003b00:	afa201b4 	sw	v0,436(sp)
9d003b04:	1000ff93 	b	9d003954 <__scanf_core+0x80>
9d003b08:	02228821 	addu	s1,s1,v0
9d003b0c:	1000ffae 	b	9d0039c8 <__scanf_core+0xf4>
9d003b10:	afa301b4 	sw	v1,436(sp)
9d003b14:	1043008a 	beq	v0,v1,9d003d40 <__scanf_core+0x46c>
9d003b18:	24030064 	li	v1,100
9d003b1c:	1443ffc5 	bne	v0,v1,9d003a34 <__scanf_core+0x160>
9d003b20:	27a701b0 	addiu	a3,sp,432
9d003b24:	27a6019c 	addiu	a2,sp,412
9d003b28:	27a50018 	addiu	a1,sp,24
9d003b2c:	0f402f23 	jal	9d00bc8c <__scan_a>
9d003b30:	02002025 	move	a0,s0
9d003b34:	0442000c 	bltzl	v0,9d003b68 <__scanf_core+0x294>
9d003b38:	00408825 	move	s1,v0
9d003b3c:	8fa201b4 	lw	v0,436(sp)
9d003b40:	24420001 	addiu	v0,v0,1
9d003b44:	162000a8 	bnez	s1,9d003de8 <__scanf_core+0x514>
9d003b48:	afa201b4 	sw	v0,436(sp)
9d003b4c:	02403825 	move	a3,s2
9d003b50:	24060001 	li	a2,1
9d003b54:	02802825 	move	a1,s4
9d003b58:	0f4020d6 	jal	9d008358 <__push_int>
9d003b5c:	27a40018 	addiu	a0,sp,24
9d003b60:	04410064 	bgez	v0,9d003cf4 <__scanf_core+0x420>
9d003b64:	00408825 	move	s1,v0
9d003b68:	2402ffff 	li	v0,-1
9d003b6c:	1222ffb7 	beq	s1,v0,9d003a4c <__scanf_core+0x178>
9d003b70:	8fbf01dc 	lw	ra,476(sp)
9d003b74:	1000ffcb 	b	9d003aa4 <__scanf_core+0x1d0>
9d003b78:	02a01025 	move	v0,s5
9d003b7c:	10430041 	beq	v0,v1,9d003c84 <__scanf_core+0x3b0>
9d003b80:	28430071 	slti	v1,v0,113
9d003b84:	1060000e 	beqz	v1,9d003bc0 <__scanf_core+0x2ec>
9d003b88:	24030075 	li	v1,117
9d003b8c:	2403006e 	li	v1,110
9d003b90:	1043004b 	beq	v0,v1,9d003cc0 <__scanf_core+0x3ec>
9d003b94:	2843006f 	slti	v1,v0,111
9d003b98:	1060002c 	beqz	v1,9d003c4c <__scanf_core+0x378>
9d003b9c:	24030069 	li	v1,105
9d003ba0:	1443ffa4 	bne	v0,v1,9d003a34 <__scanf_core+0x160>
9d003ba4:	27a701b0 	addiu	a3,sp,432
9d003ba8:	27a6019c 	addiu	a2,sp,412
9d003bac:	27a50018 	addiu	a1,sp,24
9d003bb0:	0f402f23 	jal	9d00bc8c <__scan_a>
9d003bb4:	02002025 	move	a0,s0
9d003bb8:	1000ffde 	b	9d003b34 <__scanf_core+0x260>
9d003bbc:	00000000 	nop
9d003bc0:	10430014 	beq	v0,v1,9d003c14 <__scanf_core+0x340>
9d003bc4:	24030078 	li	v1,120
9d003bc8:	10430027 	beq	v0,v1,9d003c68 <__scanf_core+0x394>
9d003bcc:	24030073 	li	v1,115
9d003bd0:	1443ff99 	bne	v0,v1,9d003a38 <__scanf_core+0x164>
9d003bd4:	8fa201b4 	lw	v0,436(sp)
9d003bd8:	24020080 	li	v0,128
9d003bdc:	1682ff96 	bne	s4,v0,9d003a38 <__scanf_core+0x164>
9d003be0:	8fa201b4 	lw	v0,436(sp)
9d003be4:	24420001 	addiu	v0,v0,1
9d003be8:	afa201b4 	sw	v0,436(sp)
9d003bec:	16200005 	bnez	s1,9d003c04 <__scanf_core+0x330>
9d003bf0:	00001025 	move	v0,zero
9d003bf4:	8e420000 	lw	v0,0(s2)
9d003bf8:	24430004 	addiu	v1,v0,4
9d003bfc:	ae430000 	sw	v1,0(s2)
9d003c00:	8c420000 	lw	v0,0(v0)
9d003c04:	afa20010 	sw	v0,16(sp)
9d003c08:	27a701b0 	addiu	a3,sp,432
9d003c0c:	10000060 	b	9d003d90 <__scanf_core+0x4bc>
9d003c10:	24060001 	li	a2,1
9d003c14:	27a701b0 	addiu	a3,sp,432
9d003c18:	27a6019c 	addiu	a2,sp,412
9d003c1c:	27a50018 	addiu	a1,sp,24
9d003c20:	0f402f23 	jal	9d00bc8c <__scan_a>
9d003c24:	02002025 	move	a0,s0
9d003c28:	0442ffcf 	bltzl	v0,9d003b68 <__scanf_core+0x294>
9d003c2c:	00408825 	move	s1,v0
9d003c30:	8fa201b4 	lw	v0,436(sp)
9d003c34:	24420001 	addiu	v0,v0,1
9d003c38:	1620006b 	bnez	s1,9d003de8 <__scanf_core+0x514>
9d003c3c:	afa201b4 	sw	v0,436(sp)
9d003c40:	02403825 	move	a3,s2
9d003c44:	1000ffc3 	b	9d003b54 <__scanf_core+0x280>
9d003c48:	00003025 	move	a2,zero
9d003c4c:	27a701b0 	addiu	a3,sp,432
9d003c50:	27a6019c 	addiu	a2,sp,412
9d003c54:	27a50018 	addiu	a1,sp,24
9d003c58:	0f402f23 	jal	9d00bc8c <__scan_a>
9d003c5c:	02002025 	move	a0,s0
9d003c60:	1000fff1 	b	9d003c28 <__scanf_core+0x354>
9d003c64:	00000000 	nop
9d003c68:	27a701b0 	addiu	a3,sp,432
9d003c6c:	27a6019c 	addiu	a2,sp,412
9d003c70:	27a50018 	addiu	a1,sp,24
9d003c74:	0f402f23 	jal	9d00bc8c <__scan_a>
9d003c78:	02002025 	move	a0,s0
9d003c7c:	1000ffea 	b	9d003c28 <__scanf_core+0x354>
9d003c80:	00000000 	nop
9d003c84:	27a701b0 	addiu	a3,sp,432
9d003c88:	27a6019c 	addiu	a2,sp,412
9d003c8c:	27a50018 	addiu	a1,sp,24
9d003c90:	0f402f23 	jal	9d00bc8c <__scan_a>
9d003c94:	02002025 	move	a0,s0
9d003c98:	0442ffb3 	bltzl	v0,9d003b68 <__scanf_core+0x294>
9d003c9c:	00408825 	move	s1,v0
9d003ca0:	8fa201b4 	lw	v0,436(sp)
9d003ca4:	24420001 	addiu	v0,v0,1
9d003ca8:	1620004f 	bnez	s1,9d003de8 <__scanf_core+0x514>
9d003cac:	afa201b4 	sw	v0,436(sp)
9d003cb0:	02403825 	move	a3,s2
9d003cb4:	00003025 	move	a2,zero
9d003cb8:	1000ffa7 	b	9d003b58 <__scanf_core+0x284>
9d003cbc:	240500f0 	li	a1,240
9d003cc0:	8fa201b4 	lw	v0,436(sp)
9d003cc4:	24420001 	addiu	v0,v0,1
9d003cc8:	afa201b4 	sw	v0,436(sp)
9d003ccc:	8fa201b0 	lw	v0,432(sp)
9d003cd0:	afa20018 	sw	v0,24(sp)
9d003cd4:	000217c3 	sra	v0,v0,0x1f
9d003cd8:	16200043 	bnez	s1,9d003de8 <__scanf_core+0x514>
9d003cdc:	afa2001c 	sw	v0,28(sp)
9d003ce0:	02403825 	move	a3,s2
9d003ce4:	00003025 	move	a2,zero
9d003ce8:	02802825 	move	a1,s4
9d003cec:	0f4020d6 	jal	9d008358 <__push_int>
9d003cf0:	27a40018 	addiu	a0,sp,24
9d003cf4:	1000ff09 	b	9d00391c <__scanf_core+0x48>
9d003cf8:	02b1a821 	addu	s5,s5,s1
9d003cfc:	27a701b0 	addiu	a3,sp,432
9d003d00:	27a6019c 	addiu	a2,sp,412
9d003d04:	27a50018 	addiu	a1,sp,24
9d003d08:	0f401856 	jal	9d006158 <__scan_fp>
9d003d0c:	02002025 	move	a0,s0
9d003d10:	0442ff95 	bltzl	v0,9d003b68 <__scanf_core+0x294>
9d003d14:	00408825 	move	s1,v0
9d003d18:	8fa201b4 	lw	v0,436(sp)
9d003d1c:	24420001 	addiu	v0,v0,1
9d003d20:	16200031 	bnez	s1,9d003de8 <__scanf_core+0x514>
9d003d24:	afa201b4 	sw	v0,436(sp)
9d003d28:	02403025 	move	a2,s2
9d003d2c:	02802825 	move	a1,s4
9d003d30:	0f4027d8 	jal	9d009f60 <__push_float>
9d003d34:	27a40018 	addiu	a0,sp,24
9d003d38:	1000ff89 	b	9d003b60 <__scanf_core+0x28c>
9d003d3c:	00000000 	nop
9d003d40:	24020080 	li	v0,128
9d003d44:	1682ff3c 	bne	s4,v0,9d003a38 <__scanf_core+0x164>
9d003d48:	8fa201b4 	lw	v0,436(sp)
9d003d4c:	8fa201a4 	lw	v0,420(sp)
9d003d50:	54400004 	bnezl	v0,9d003d64 <__scanf_core+0x490>
9d003d54:	8fa201b4 	lw	v0,436(sp)
9d003d58:	24020001 	li	v0,1
9d003d5c:	afa201a4 	sw	v0,420(sp)
9d003d60:	8fa201b4 	lw	v0,436(sp)
9d003d64:	24420001 	addiu	v0,v0,1
9d003d68:	afa201b4 	sw	v0,436(sp)
9d003d6c:	16200005 	bnez	s1,9d003d84 <__scanf_core+0x4b0>
9d003d70:	00001025 	move	v0,zero
9d003d74:	8e420000 	lw	v0,0(s2)
9d003d78:	24430004 	addiu	v1,v0,4
9d003d7c:	ae430000 	sw	v1,0(s2)
9d003d80:	8c420000 	lw	v0,0(v0)
9d003d84:	afa20010 	sw	v0,16(sp)
9d003d88:	27a701b0 	addiu	a3,sp,432
9d003d8c:	00003025 	move	a2,zero
9d003d90:	27a5019c 	addiu	a1,sp,412
9d003d94:	0f402f25 	jal	9d00bc94 <__scan_s>
9d003d98:	02002025 	move	a0,s0
9d003d9c:	1000ff70 	b	9d003b60 <__scanf_core+0x28c>
9d003da0:	00000000 	nop
9d003da4:	24020080 	li	v0,128
9d003da8:	1682ff23 	bne	s4,v0,9d003a38 <__scanf_core+0x164>
9d003dac:	8fa201b4 	lw	v0,436(sp)
9d003db0:	24630001 	addiu	v1,v1,1
9d003db4:	afa301b4 	sw	v1,436(sp)
9d003db8:	8e02003c 	lw	v0,60(s0)
9d003dbc:	8e03004c 	lw	v1,76(s0)
9d003dc0:	0043182b 	sltu	v1,v0,v1
9d003dc4:	1060000a 	beqz	v1,9d003df0 <__scanf_core+0x51c>
9d003dc8:	24430001 	addiu	v1,v0,1
9d003dcc:	ae03003c 	sw	v1,60(s0)
9d003dd0:	90420000 	lbu	v0,0(v0)
9d003dd4:	5456000a 	bnel	v0,s6,9d003e00 <__scanf_core+0x52c>
9d003dd8:	8e02004c 	lw	v0,76(s0)
9d003ddc:	8fa201b0 	lw	v0,432(sp)
9d003de0:	24420001 	addiu	v0,v0,1
9d003de4:	afa201b0 	sw	v0,432(sp)
9d003de8:	1000ffc2 	b	9d003cf4 <__scanf_core+0x420>
9d003dec:	00008825 	move	s1,zero
9d003df0:	0f4023c5 	jal	9d008f14 <__shgetc>
9d003df4:	02002025 	move	a0,s0
9d003df8:	1000fff6 	b	9d003dd4 <__scanf_core+0x500>
9d003dfc:	00000000 	nop
9d003e00:	5040ffbc 	beqzl	v0,9d003cf4 <__scanf_core+0x420>
9d003e04:	00008825 	move	s1,zero
9d003e08:	8e02003c 	lw	v0,60(s0)
9d003e0c:	2442ffff 	addiu	v0,v0,-1
9d003e10:	1000fff5 	b	9d003de8 <__scanf_core+0x514>
9d003e14:	ae02003c 	sw	v0,60(s0)
9d003e18:	1682ff07 	bne	s4,v0,9d003a38 <__scanf_core+0x164>
9d003e1c:	8fa201b4 	lw	v0,436(sp)
9d003e20:	16200005 	bnez	s1,9d003e38 <__scanf_core+0x564>
9d003e24:	0000a025 	move	s4,zero
9d003e28:	8e420000 	lw	v0,0(s2)
9d003e2c:	24440004 	addiu	a0,v0,4
9d003e30:	ae440000 	sw	a0,0(s2)
9d003e34:	8c540000 	lw	s4,0(v0)
9d003e38:	24620001 	addiu	v0,v1,1
9d003e3c:	afa201b4 	sw	v0,436(sp)
9d003e40:	80640001 	lb	a0,1(v1)
9d003e44:	2402005e 	li	v0,94
9d003e48:	14820004 	bne	a0,v0,9d003e5c <__scanf_core+0x588>
9d003e4c:	00008825 	move	s1,zero
9d003e50:	24630002 	addiu	v1,v1,2
9d003e54:	afa301b4 	sw	v1,436(sp)
9d003e58:	24110001 	li	s1,1
9d003e5c:	27a40018 	addiu	a0,sp,24
9d003e60:	24060101 	li	a2,257
9d003e64:	0f402e49 	jal	9d00b924 <memset>
9d003e68:	02202825 	move	a1,s1
9d003e6c:	8fa201b4 	lw	v0,436(sp)
9d003e70:	a3a00018 	sb	zero,24(sp)
9d003e74:	2404002d 	li	a0,45
9d003e78:	80430000 	lb	v1,0(v0)
9d003e7c:	1464001f 	bne	v1,a0,9d003efc <__scanf_core+0x628>
9d003e80:	2404005d 	li	a0,93
9d003e84:	24420001 	addiu	v0,v0,1
9d003e88:	afa201b4 	sw	v0,436(sp)
9d003e8c:	24020001 	li	v0,1
9d003e90:	00511023 	subu	v0,v0,s1
9d003e94:	a3a20046 	sb	v0,70(sp)
9d003e98:	24020001 	li	v0,1
9d003e9c:	00518823 	subu	s1,v0,s1
9d003ea0:	2405005d 	li	a1,93
9d003ea4:	2406002d 	li	a2,45
9d003ea8:	322700ff 	andi	a3,s1,0xff
9d003eac:	8fa301b4 	lw	v1,436(sp)
9d003eb0:	80620000 	lb	v0,0(v1)
9d003eb4:	14450019 	bne	v0,a1,9d003f1c <__scanf_core+0x648>
9d003eb8:	00000000 	nop
9d003ebc:	16800039 	bnez	s4,9d003fa4 <__scanf_core+0x6d0>
9d003ec0:	00008825 	move	s1,zero
9d003ec4:	8e02003c 	lw	v0,60(s0)
9d003ec8:	8e03004c 	lw	v1,76(s0)
9d003ecc:	0043182b 	sltu	v1,v0,v1
9d003ed0:	10600055 	beqz	v1,9d004028 <__scanf_core+0x754>
9d003ed4:	24430001 	addiu	v1,v0,1
9d003ed8:	ae03003c 	sw	v1,60(s0)
9d003edc:	90530000 	lbu	s3,0(v0)
9d003ee0:	27a20018 	addiu	v0,sp,24
9d003ee4:	00531021 	addu	v0,v0,s3
9d003ee8:	90420001 	lbu	v0,1(v0)
9d003eec:	1440004b 	bnez	v0,9d00401c <__scanf_core+0x748>
9d003ef0:	8fa201b0 	lw	v0,432(sp)
9d003ef4:	10000038 	b	9d003fd8 <__scanf_core+0x704>
9d003ef8:	0000f025 	move	s8,zero
9d003efc:	5464ffe7 	bnel	v1,a0,9d003e9c <__scanf_core+0x5c8>
9d003f00:	24020001 	li	v0,1
9d003f04:	24420001 	addiu	v0,v0,1
9d003f08:	afa201b4 	sw	v0,436(sp)
9d003f0c:	24020001 	li	v0,1
9d003f10:	00511023 	subu	v0,v0,s1
9d003f14:	1000ffe0 	b	9d003e98 <__scanf_core+0x5c4>
9d003f18:	a3a20076 	sb	v0,118(sp)
9d003f1c:	1040ffe7 	beqz	v0,9d003ebc <__scanf_core+0x5e8>
9d003f20:	00000000 	nop
9d003f24:	10460009 	beq	v0,a2,9d003f4c <__scanf_core+0x678>
9d003f28:	8fa201b8 	lw	v0,440(sp)
9d003f2c:	8fa201b4 	lw	v0,436(sp)
9d003f30:	27a40018 	addiu	a0,sp,24
9d003f34:	80430000 	lb	v1,0(v0)
9d003f38:	24420001 	addiu	v0,v0,1
9d003f3c:	afa201b4 	sw	v0,436(sp)
9d003f40:	00831821 	addu	v1,a0,v1
9d003f44:	1000ffd9 	b	9d003eac <__scanf_core+0x5d8>
9d003f48:	a0710001 	sb	s1,1(v1)
9d003f4c:	80420000 	lb	v0,0(v0)
9d003f50:	5040fff7 	beqzl	v0,9d003f30 <__scanf_core+0x65c>
9d003f54:	8fa201b4 	lw	v0,436(sp)
9d003f58:	1045fff5 	beq	v0,a1,9d003f30 <__scanf_core+0x65c>
9d003f5c:	8fa201b4 	lw	v0,436(sp)
9d003f60:	24620001 	addiu	v0,v1,1
9d003f64:	afa201b4 	sw	v0,436(sp)
9d003f68:	8fa201b0 	lw	v0,432(sp)
9d003f6c:	80420000 	lb	v0,0(v0)
9d003f70:	80640001 	lb	a0,1(v1)
9d003f74:	0044202a 	slt	a0,v0,a0
9d003f78:	1080ffec 	beqz	a0,9d003f2c <__scanf_core+0x658>
9d003f7c:	24420001 	addiu	v0,v0,1
9d003f80:	27a40018 	addiu	a0,sp,24
9d003f84:	00822021 	addu	a0,a0,v0
9d003f88:	1000fff9 	b	9d003f70 <__scanf_core+0x69c>
9d003f8c:	a0870000 	sb	a3,0(a0)
9d003f90:	a0530000 	sb	s3,0(v0)
9d003f94:	8fa201b0 	lw	v0,432(sp)
9d003f98:	26310001 	addiu	s1,s1,1
9d003f9c:	24420001 	addiu	v0,v0,1
9d003fa0:	afa201b0 	sw	v0,432(sp)
9d003fa4:	8e02003c 	lw	v0,60(s0)
9d003fa8:	8e03004c 	lw	v1,76(s0)
9d003fac:	0043182b 	sltu	v1,v0,v1
9d003fb0:	10600016 	beqz	v1,9d00400c <__scanf_core+0x738>
9d003fb4:	0220f025 	move	s8,s1
9d003fb8:	24430001 	addiu	v1,v0,1
9d003fbc:	ae03003c 	sw	v1,60(s0)
9d003fc0:	90530000 	lbu	s3,0(v0)
9d003fc4:	27a20018 	addiu	v0,sp,24
9d003fc8:	00531021 	addu	v0,v0,s3
9d003fcc:	90420001 	lbu	v0,1(v0)
9d003fd0:	1440ffef 	bnez	v0,9d003f90 <__scanf_core+0x6bc>
9d003fd4:	02911021 	addu	v0,s4,s1
9d003fd8:	8e02004c 	lw	v0,76(s0)
9d003fdc:	10400004 	beqz	v0,9d003ff0 <__scanf_core+0x71c>
9d003fe0:	00000000 	nop
9d003fe4:	8e02003c 	lw	v0,60(s0)
9d003fe8:	2442ffff 	addiu	v0,v0,-1
9d003fec:	ae02003c 	sw	v0,60(s0)
9d003ff0:	13c0fe91 	beqz	s8,9d003a38 <__scanf_core+0x164>
9d003ff4:	8fa201b4 	lw	v0,436(sp)
9d003ff8:	1280fe90 	beqz	s4,9d003a3c <__scanf_core+0x168>
9d003ffc:	24420001 	addiu	v0,v0,1
9d004000:	029ea021 	addu	s4,s4,s8
9d004004:	1000fe8b 	b	9d003a34 <__scanf_core+0x160>
9d004008:	a2800000 	sb	zero,0(s4)
9d00400c:	0f4023c5 	jal	9d008f14 <__shgetc>
9d004010:	02002025 	move	a0,s0
9d004014:	1000ffeb 	b	9d003fc4 <__scanf_core+0x6f0>
9d004018:	00409825 	move	s3,v0
9d00401c:	24420001 	addiu	v0,v0,1
9d004020:	1000ffa8 	b	9d003ec4 <__scanf_core+0x5f0>
9d004024:	afa201b0 	sw	v0,432(sp)
9d004028:	0f4023c5 	jal	9d008f14 <__shgetc>
9d00402c:	02002025 	move	a0,s0
9d004030:	1000ffab 	b	9d003ee0 <__scanf_core+0x60c>
9d004034:	00409825 	move	s3,v0

Disassembly of section .text:

9d004038 <makeWaveform>:
  }

  return 0;
}

void makeWaveform() { // waveform with 1000 elements, first half 75% duty cycle,
9d004038:	00001025 	move	v0,zero
  int i = 0, center = 600, A = 200;
  for (i = 0; i < NUMSAMPS; ++i) {
    if (i < NUMSAMPS / 2) {
      Waveform[i] = center + A;
    } else {
      Waveform[i] = center - A;
9d00403c:	3c04a000 	lui	a0,0xa000
9d004040:	24840980 	addiu	a0,a0,2432
9d004044:	24060190 	li	a2,400
      Waveform[i] = center + A;
9d004048:	10000007 	b	9d004068 <makeWaveform+0x30>
9d00404c:	24050320 	li	a1,800
      Waveform[i] = center - A;
9d004050:	00641821 	addu	v1,v1,a0
9d004054:	ac660000 	sw	a2,0(v1)
  for (i = 0; i < NUMSAMPS; ++i) {
9d004058:	24430001 	addiu	v1,v0,1
9d00405c:	286303e8 	slti	v1,v1,1000
9d004060:	10600008 	beqz	v1,9d004084 <makeWaveform+0x4c>
9d004064:	24420001 	addiu	v0,v0,1
    if (i < NUMSAMPS / 2) {
9d004068:	284301f4 	slti	v1,v0,500
9d00406c:	1060fff8 	beqz	v1,9d004050 <makeWaveform+0x18>
9d004070:	00021880 	sll	v1,v0,0x2
      Waveform[i] = center + A;
9d004074:	00641821 	addu	v1,v1,a0
9d004078:	ac650000 	sw	a1,0(v1)
9d00407c:	1000fffa 	b	9d004068 <makeWaveform+0x30>
9d004080:	24420001 	addiu	v0,v0,1
    }
  }
}
9d004084:	03e00008 	jr	ra
9d004088:	00000000 	nop

9d00408c <main>:
int main(void) {
9d00408c:	27bdff58 	addiu	sp,sp,-168
9d004090:	afbf00a4 	sw	ra,164(sp)
9d004094:	afb500a0 	sw	s5,160(sp)
9d004098:	afb4009c 	sw	s4,156(sp)
9d00409c:	afb30098 	sw	s3,152(sp)
9d0040a0:	afb20094 	sw	s2,148(sp)
9d0040a4:	afb10090 	sw	s1,144(sp)
  NU32_Startup(); 
9d0040a8:	0f401fa2 	jal	9d007e88 <NU32_Startup>
9d0040ac:	afb0008c 	sw	s0,140(sp)
  makeWaveform(); 
9d0040b0:	0f40100e 	jal	9d004038 <makeWaveform>
9d0040b4:	00000000 	nop
  AD1CON1bits.SSRC = 0b111; // Set the conversion process to be automatic
9d0040b8:	3c03bf81 	lui	v1,0xbf81
9d0040bc:	94629000 	lhu	v0,-28672(v1)
9d0040c0:	24040007 	li	a0,7
9d0040c4:	7c823944 	ins	v0,a0,0x5,0x3
9d0040c8:	a4629000 	sh	v0,-28672(v1)
  AD1CON1bits.ASAM = 0;   // Set the sampling process to be manual
9d0040cc:	94629000 	lhu	v0,-28672(v1)
9d0040d0:	7c021084 	ins	v0,zero,0x2,0x1
9d0040d4:	a4629000 	sh	v0,-28672(v1)
  AD1CON3bits.ADCS = 2;   // Set Tad to be 2*(ADCS + 1)* Tpb = 75 ns
9d0040d8:	3c02bf81 	lui	v0,0xbf81
9d0040dc:	24040002 	li	a0,2
9d0040e0:	a0449020 	sb	a0,-28640(v0)
  AD1CON3bits.SAMC = 20;  // Set sampling time to be 2*Tad = 150 ns
9d0040e4:	94449020 	lhu	a0,-28640(v0)
9d0040e8:	24050014 	li	a1,20
9d0040ec:	7ca46204 	ins	a0,a1,0x8,0x5
9d0040f0:	a4449020 	sh	a0,-28640(v0)
  AD1PCFGbits.PCFG15 = 0; // AN15 is an adc pin
9d0040f4:	3c02bf81 	lui	v0,0xbf81
9d0040f8:	94449060 	lhu	a0,-28576(v0)
9d0040fc:	7c047bc4 	ins	a0,zero,0xf,0x1
9d004100:	a4449060 	sh	a0,-28576(v0)
  AD1CON1bits.ADON = 1;   // turn on A/D converter
9d004104:	94649000 	lhu	a0,-28672(v1)
9d004108:	24020001 	li	v0,1
9d00410c:	7c447bc4 	ins	a0,v0,0xf,0x1
9d004110:	a4649000 	sh	a0,-28672(v1)
  __builtin_enable_interrupts();
9d004114:	41636020 	ei	v1
  PR3 = 3999;
9d004118:	3c03bf80 	lui	v1,0xbf80
9d00411c:	24040f9f 	li	a0,3999
9d004120:	ac640a20 	sw	a0,2592(v1)
  TMR3 = 0;
9d004124:	3c03bf80 	lui	v1,0xbf80
9d004128:	ac600a10 	sw	zero,2576(v1)
  OC1CONbits.OCM = 0b110; // PWM mode with fault pin disabled
9d00412c:	3c03bf80 	lui	v1,0xbf80
9d004130:	94643000 	lhu	a0,12288(v1)
9d004134:	24050006 	li	a1,6
9d004138:	7ca41004 	ins	a0,a1,0x0,0x3
9d00413c:	a4643000 	sh	a0,12288(v1)
  OC1CONbits.OCTSEL = 1;  // user timer 3 for OC1
9d004140:	94643000 	lhu	a0,12288(v1)
9d004144:	7c4418c4 	ins	a0,v0,0x3,0x1
9d004148:	a4643000 	sh	a0,12288(v1)
  OC1RS = 3000;
9d00414c:	24040bb8 	li	a0,3000
9d004150:	3c05bf80 	lui	a1,0xbf80
9d004154:	aca43020 	sw	a0,12320(a1)
  OC1R = 3000;
9d004158:	3c05bf80 	lui	a1,0xbf80
9d00415c:	aca43010 	sw	a0,12304(a1)
  T3CONbits.ON = 1;
9d004160:	3c04bf80 	lui	a0,0xbf80
9d004164:	94850a00 	lhu	a1,2560(a0)
9d004168:	7c457bc4 	ins	a1,v0,0xf,0x1
9d00416c:	a4850a00 	sh	a1,2560(a0)
  OC1CONbits.ON = 1;      // turn OC1 on
9d004170:	94643000 	lhu	a0,12288(v1)
9d004174:	7c447bc4 	ins	a0,v0,0xf,0x1
9d004178:	a4643000 	sh	a0,12288(v1)
  T2CONbits.TCKPS = 1; 
9d00417c:	3c03bf80 	lui	v1,0xbf80
9d004180:	94640800 	lhu	a0,2048(v1)
9d004184:	7c443104 	ins	a0,v0,0x4,0x3
9d004188:	a4640800 	sh	a0,2048(v1)
  PR2 = 40999;
9d00418c:	3c04bf80 	lui	a0,0xbf80
9d004190:	3405a027 	li	a1,0xa027
9d004194:	ac850820 	sw	a1,2080(a0)
  TMR2 = 0;
9d004198:	3c04bf80 	lui	a0,0xbf80
9d00419c:	ac800810 	sw	zero,2064(a0)
  T2CONbits.ON = 1;
9d0041a0:	94640800 	lhu	a0,2048(v1)
9d0041a4:	7c447bc4 	ins	a0,v0,0xf,0x1
9d0041a8:	a4640800 	sh	a0,2048(v1)
  IPC2bits.T2IP = 5;
9d0041ac:	3c03bf88 	lui	v1,0xbf88
9d0041b0:	8c6410b0 	lw	a0,4272(v1)
9d0041b4:	24050005 	li	a1,5
9d0041b8:	7ca42084 	ins	a0,a1,0x2,0x3
9d0041bc:	ac6410b0 	sw	a0,4272(v1)
  IPC2bits.T2IS = 0;
9d0041c0:	8c6410b0 	lw	a0,4272(v1)
9d0041c4:	7c040804 	ins	a0,zero,0x0,0x2
9d0041c8:	ac6410b0 	sw	a0,4272(v1)
  IFS0bits.T2IF = 0;
9d0041cc:	3c03bf88 	lui	v1,0xbf88
9d0041d0:	8c641030 	lw	a0,4144(v1)
9d0041d4:	7c044204 	ins	a0,zero,0x8,0x1
9d0041d8:	ac641030 	sw	a0,4144(v1)
  IEC0bits.T2IE = 1;
9d0041dc:	3c03bf88 	lui	v1,0xbf88
9d0041e0:	8c641060 	lw	a0,4192(v1)
9d0041e4:	7c444204 	ins	a0,v0,0x8,0x1
9d0041e8:	ac641060 	sw	a0,4192(v1)
  __builtin_enable_interrupts();
9d0041ec:	41626020 	ei	v0
  float kptemp = 0, kitemp = 0; // temporary local gains
9d0041f0:	00001025 	move	v0,zero
9d0041f4:	afa2007c 	sw	v0,124(sp)
9d0041f8:	afa20080 	sw	v0,128(sp)
    sscanf(message, "%f %f", &kptemp, &kitemp);
9d0041fc:	3c159d00 	lui	s5,0x9d00
9d004200:	26b51e00 	addiu	s5,s5,7680
      sprintf(message, "%d %d %d\r\n", PLOTPTS - i, ADCarray[i], REFarray[i]); 
9d004204:	3c14a000 	lui	s4,0xa000
9d004208:	26940660 	addiu	s4,s4,1632
9d00420c:	3c13a000 	lui	s3,0xa000
9d004210:	26730340 	addiu	s3,s3,832
9d004214:	3c129d00 	lui	s2,0x9d00
9d004218:	26521e08 	addiu	s2,s2,7688
    NU32_ReadUART3(message,sizeof(message)); // wait till recieve gains from computer
9d00421c:	24050064 	li	a1,100
9d004220:	0f401fe7 	jal	9d007f9c <NU32_ReadUART3>
9d004224:	27a40018 	addiu	a0,sp,24
    sscanf(message, "%f %f", &kptemp, &kitemp);
9d004228:	27a70080 	addiu	a3,sp,128
9d00422c:	27a6007c 	addiu	a2,sp,124
9d004230:	02a02825 	move	a1,s5
9d004234:	0f402e21 	jal	9d00b884 <_dsscanf_eE>
9d004238:	27a40018 	addiu	a0,sp,24
    __builtin_disable_interrupts(); // keep ISR disabled as briefly as possible
9d00423c:	41626000 	di	v0
9d004240:	000000c0 	ehb
    Kp = kptemp; // copy local variables to globals used by ISR
9d004244:	8fa2007c 	lw	v0,124(sp)
9d004248:	af828014 	sw	v0,-32748(gp)
    Ki = kitemp;
9d00424c:	8fa20080 	lw	v0,128(sp)
9d004250:	af828010 	sw	v0,-32752(gp)
    __builtin_enable_interrupts(); // turn interupts back on
9d004254:	41626020 	ei	v0
    StoringData = 1; // messgae to ISR to start storing data
9d004258:	24020001 	li	v0,1
9d00425c:	af82802c 	sw	v0,-32724(gp)
    while (StoringData) {
9d004260:	8f90802c 	lw	s0,-32724(gp)
9d004264:	1600fffe 	bnez	s0,9d004260 <main+0x1d4>
9d004268:	241100c8 	li	s1,200
      sprintf(message, "%d %d %d\r\n", PLOTPTS - i, ADCarray[i], REFarray[i]); 
9d00426c:	00101080 	sll	v0,s0,0x2
9d004270:	00541821 	addu	v1,v0,s4
9d004274:	8c670000 	lw	a3,0(v1)
9d004278:	00531021 	addu	v0,v0,s3
9d00427c:	8c420000 	lw	v0,0(v0)
9d004280:	afa20010 	sw	v0,16(sp)
9d004284:	02303023 	subu	a2,s1,s0
9d004288:	02402825 	move	a1,s2
9d00428c:	0f402e17 	jal	9d00b85c <_dsprintf_cdnopuxX>
9d004290:	27a40018 	addiu	a0,sp,24
      NU32_WriteUART3(message);
9d004294:	0f401ffe 	jal	9d007ff8 <NU32_WriteUART3>
9d004298:	27a40018 	addiu	a0,sp,24
    for (i = 0; i < PLOTPTS; i++) {
9d00429c:	26100001 	addiu	s0,s0,1
9d0042a0:	1611fff3 	bne	s0,s1,9d004270 <main+0x1e4>
9d0042a4:	00101080 	sll	v0,s0,0x2
    NU32_ReadUART3(message,sizeof(message)); // wait till recieve gains from computer
9d0042a8:	1000ffdd 	b	9d004220 <main+0x194>
9d0042ac:	24050064 	li	a1,100

9d0042b0 <adc_sample_convert>:

unsigned int adc_sample_convert(int pin) {
  AD1CHSbits.CH0SA = pin; // set pin15
9d0042b0:	3c02bf81 	lui	v0,0xbf81
9d0042b4:	8c439040 	lw	v1,-28608(v0)
9d0042b8:	7c839c04 	ins	v1,a0,0x10,0x4
9d0042bc:	ac439040 	sw	v1,-28608(v0)
  AD1CON1bits.SAMP = 1;   // start sampling
9d0042c0:	3c02bf81 	lui	v0,0xbf81
9d0042c4:	94439000 	lhu	v1,-28672(v0)
9d0042c8:	24040001 	li	a0,1
9d0042cc:	7c830844 	ins	v1,a0,0x1,0x1
9d0042d0:	a4439000 	sh	v1,-28672(v0)
  while (!AD1CON1bits.DONE) {
9d0042d4:	00401825 	move	v1,v0
9d0042d8:	8c629000 	lw	v0,-28672(v1)
9d0042dc:	30420001 	andi	v0,v0,0x1
9d0042e0:	1040fffd 	beqz	v0,9d0042d8 <adc_sample_convert+0x28>
9d0042e4:	3c02bf81 	lui	v0,0xbf81
    ; 
  }
  return ADC1BUF0; // return result
9d0042e8:	8c429070 	lw	v0,-28560(v0)
9d0042ec:	03e00008 	jr	ra
9d0042f0:	00000000 	nop

9d0042f4 <Timer2ISR>:
void __ISR(_TIMER_2_VECTOR, IPL5SOFT) Timer2ISR(void) {
9d0042f4:	415de800 	rdpgpr	sp,sp
9d0042f8:	401a7000 	mfc0	k0,c0_epc
9d0042fc:	401b6000 	mfc0	k1,c0_status
9d004300:	27bdff78 	addiu	sp,sp,-136
9d004304:	afba0084 	sw	k0,132(sp)
9d004308:	401a6002 	mfc0	k0,c0_srsctl
9d00430c:	afbb0080 	sw	k1,128(sp)
9d004310:	afba007c 	sw	k0,124(sp)
9d004314:	7c1b7844 	ins	k1,zero,0x1,0xf
9d004318:	377b1400 	ori	k1,k1,0x1400
9d00431c:	409b6000 	mtc0	k1,c0_status
9d004320:	afbf006c 	sw	ra,108(sp)
9d004324:	afb90068 	sw	t9,104(sp)
9d004328:	afb80064 	sw	t8,100(sp)
9d00432c:	afb40060 	sw	s4,96(sp)
9d004330:	afb3005c 	sw	s3,92(sp)
9d004334:	afb20058 	sw	s2,88(sp)
9d004338:	afb10054 	sw	s1,84(sp)
9d00433c:	afb00050 	sw	s0,80(sp)
9d004340:	afaf004c 	sw	t7,76(sp)
9d004344:	afae0048 	sw	t6,72(sp)
9d004348:	afad0044 	sw	t5,68(sp)
9d00434c:	afac0040 	sw	t4,64(sp)
9d004350:	afab003c 	sw	t3,60(sp)
9d004354:	afaa0038 	sw	t2,56(sp)
9d004358:	afa90034 	sw	t1,52(sp)
9d00435c:	afa80030 	sw	t0,48(sp)
9d004360:	afa7002c 	sw	a3,44(sp)
9d004364:	afa60028 	sw	a2,40(sp)
9d004368:	afa50024 	sw	a1,36(sp)
9d00436c:	afa40020 	sw	a0,32(sp)
9d004370:	afa3001c 	sw	v1,28(sp)
9d004374:	afa20018 	sw	v0,24(sp)
9d004378:	afa10014 	sw	at,20(sp)
9d00437c:	00001012 	mflo	v0
9d004380:	afa20074 	sw	v0,116(sp)
9d004384:	00001810 	mfhi	v1
9d004388:	afa30070 	sw	v1,112(sp)
  OC1RS = Waveform[counter];
9d00438c:	8f918024 	lw	s1,-32732(gp)
9d004390:	00118080 	sll	s0,s1,0x2
9d004394:	3c02a000 	lui	v0,0xa000
9d004398:	24420980 	addiu	v0,v0,2432
9d00439c:	02028021 	addu	s0,s0,v0
9d0043a0:	8e030000 	lw	v1,0(s0)
9d0043a4:	3c02bf80 	lui	v0,0xbf80
9d0043a8:	ac433020 	sw	v1,12320(v0)
  adcval = adc_sample_convert(15);
9d0043ac:	0f4010ac 	jal	9d0042b0 <adc_sample_convert>
9d0043b0:	2404000f 	li	a0,15
9d0043b4:	00409825 	move	s3,v0
  int e = Waveform[counter] - adcval;
9d0043b8:	8e040000 	lw	a0,0(s0)
9d0043bc:	00822023 	subu	a0,a0,v0
  eint = eint + e;
9d0043c0:	8f908028 	lw	s0,-32728(gp)
9d0043c4:	00908021 	addu	s0,a0,s0
9d0043c8:	af908028 	sw	s0,-32728(gp)
  float u = Kp*e + Ki*eint;
9d0043cc:	8f928014 	lw	s2,-32748(gp)
9d0043d0:	8f948010 	lw	s4,-32752(gp)
9d0043d4:	0f402b55 	jal	9d00ad54 <__floatsisf>
9d0043d8:	00000000 	nop
9d0043dc:	02402825 	move	a1,s2
9d0043e0:	0f401f33 	jal	9d007ccc <__mulsf3>
9d0043e4:	00402025 	move	a0,v0
9d0043e8:	00409025 	move	s2,v0
9d0043ec:	0f402b55 	jal	9d00ad54 <__floatsisf>
9d0043f0:	02002025 	move	a0,s0
9d0043f4:	02802825 	move	a1,s4
9d0043f8:	0f401f33 	jal	9d007ccc <__mulsf3>
9d0043fc:	00402025 	move	a0,v0
9d004400:	00402825 	move	a1,v0
9d004404:	0f401e13 	jal	9d00784c <__addsf3>
9d004408:	02402025 	move	a0,s2
  float unew = u + 50.0;
9d00440c:	3c039d00 	lui	v1,0x9d00
9d004410:	8c651e18 	lw	a1,7704(v1)
9d004414:	0f401e13 	jal	9d00784c <__addsf3>
9d004418:	00402025 	move	a0,v0
9d00441c:	00409025 	move	s2,v0
   if(eint>1000){
9d004420:	2a0203e9 	slti	v0,s0,1001
9d004424:	54400010 	bnezl	v0,9d004468 <Timer2ISR+0x174>
9d004428:	2a10fc18 	slti	s0,s0,-1000
    eint = 1000;
9d00442c:	240203e8 	li	v0,1000
9d004430:	af828028 	sw	v0,-32728(gp)
  if (unew > 100.0){
9d004434:	3c029d00 	lui	v0,0x9d00
9d004438:	8c451e14 	lw	a1,7700(v0)
9d00443c:	0f402852 	jal	9d00a148 <__eqsf2>
9d004440:	02402025 	move	a0,s2
9d004444:	1c40000c 	bgtz	v0,9d004478 <Timer2ISR+0x184>
9d004448:	3c029d00 	lui	v0,0x9d00
  if(unew <= 0.0){
9d00444c:	00002825 	move	a1,zero
9d004450:	0f402879 	jal	9d00a1e4 <fpcmplt>
9d004454:	02402025 	move	a0,s2
9d004458:	58400008 	blezl	v0,9d00447c <Timer2ISR+0x188>
9d00445c:	00009025 	move	s2,zero
  OC1RS = (unsigned int)(unew * PR3 /100.0);
9d004460:	10000007 	b	9d004480 <Timer2ISR+0x18c>
9d004464:	3c02bf80 	lui	v0,0xbf80
  if(eint<-1000){
9d004468:	1200fff2 	beqz	s0,9d004434 <Timer2ISR+0x140>
9d00446c:	2402fc18 	li	v0,-1000
    eint = -1000;
9d004470:	1000fff0 	b	9d004434 <Timer2ISR+0x140>
9d004474:	af828028 	sw	v0,-32728(gp)
    unew = 100.0;
9d004478:	8c521e14 	lw	s2,7700(v0)
  OC1RS = (unsigned int)(unew * PR3 /100.0);
9d00447c:	3c02bf80 	lui	v0,0xbf80
9d004480:	8c440a20 	lw	a0,2592(v0)
9d004484:	0f402c93 	jal	9d00b24c <__floatunsisf>
9d004488:	00000000 	nop
9d00448c:	02402825 	move	a1,s2
9d004490:	0f401f33 	jal	9d007ccc <__mulsf3>
9d004494:	00402025 	move	a0,v0
9d004498:	0f402759 	jal	9d009d64 <__extendsfdf2>
9d00449c:	00402025 	move	a0,v0
9d0044a0:	3c049d00 	lui	a0,0x9d00
9d0044a4:	8c861e20 	lw	a2,7712(a0)
9d0044a8:	8c871e24 	lw	a3,7716(a0)
9d0044ac:	00402025 	move	a0,v0
9d0044b0:	0f4012e5 	jal	9d004b94 <__divdf3>
9d0044b4:	00602825 	move	a1,v1
9d0044b8:	00402025 	move	a0,v0
9d0044bc:	0f402957 	jal	9d00a55c <__fixunsdfsi>
9d0044c0:	00602825 	move	a1,v1
9d0044c4:	3c03bf80 	lui	v1,0xbf80
9d0044c8:	ac623020 	sw	v0,12320(v1)
  if (StoringData) {
9d0044cc:	8f82802c 	lw	v0,-32724(gp)
9d0044d0:	1040000c 	beqz	v0,9d004504 <Timer2ISR+0x210>
9d0044d4:	26220001 	addiu	v0,s1,1
    decctr++;
9d0044d8:	8f828020 	lw	v0,-32736(gp)
9d0044dc:	24420001 	addiu	v0,v0,1
    if (decctr == DECIMATION) {
9d0044e0:	2403000a 	li	v1,10
9d0044e4:	50430034 	beql	v0,v1,9d0045b8 <Timer2ISR+0x2c4>
9d0044e8:	af808020 	sw	zero,-32736(gp)
    decctr++;
9d0044ec:	af828020 	sw	v0,-32736(gp)
    if (plotind == PLOTPTS) { 
9d0044f0:	8f83801c 	lw	v1,-32740(gp)
9d0044f4:	240200c8 	li	v0,200
9d0044f8:	50620041 	beql	v1,v0,9d004600 <Timer2ISR+0x30c>
9d0044fc:	af80801c 	sw	zero,-32740(gp)
  counter++;
9d004500:	26220001 	addiu	v0,s1,1
9d004504:	384303e8 	xori	v1,v0,0x3e8
9d004508:	0003100a 	movz	v0,zero,v1
9d00450c:	af828024 	sw	v0,-32732(gp)
  IFS0bits.T2IF = 0; 
9d004510:	3c02bf88 	lui	v0,0xbf88
9d004514:	8c431030 	lw	v1,4144(v0)
9d004518:	7c034204 	ins	v1,zero,0x8,0x1
9d00451c:	ac431030 	sw	v1,4144(v0)
}
9d004520:	8fa20074 	lw	v0,116(sp)
9d004524:	00400013 	mtlo	v0
9d004528:	8fa30070 	lw	v1,112(sp)
9d00452c:	00600011 	mthi	v1
9d004530:	8fbf006c 	lw	ra,108(sp)
9d004534:	8fb90068 	lw	t9,104(sp)
9d004538:	8fb80064 	lw	t8,100(sp)
9d00453c:	8fb40060 	lw	s4,96(sp)
9d004540:	8fb3005c 	lw	s3,92(sp)
9d004544:	8fb20058 	lw	s2,88(sp)
9d004548:	8fb10054 	lw	s1,84(sp)
9d00454c:	8fb00050 	lw	s0,80(sp)
9d004550:	8faf004c 	lw	t7,76(sp)
9d004554:	8fae0048 	lw	t6,72(sp)
9d004558:	8fad0044 	lw	t5,68(sp)
9d00455c:	8fac0040 	lw	t4,64(sp)
9d004560:	8fab003c 	lw	t3,60(sp)
9d004564:	8faa0038 	lw	t2,56(sp)
9d004568:	8fa90034 	lw	t1,52(sp)
9d00456c:	8fa80030 	lw	t0,48(sp)
9d004570:	8fa7002c 	lw	a3,44(sp)
9d004574:	8fa60028 	lw	a2,40(sp)
9d004578:	8fa50024 	lw	a1,36(sp)
9d00457c:	8fa40020 	lw	a0,32(sp)
9d004580:	8fa3001c 	lw	v1,28(sp)
9d004584:	8fa20018 	lw	v0,24(sp)
9d004588:	8fa10014 	lw	at,20(sp)
9d00458c:	41606000 	di
9d004590:	000000c0 	ehb
9d004594:	8fba0084 	lw	k0,132(sp)
9d004598:	8fbb0080 	lw	k1,128(sp)
9d00459c:	409a7000 	mtc0	k0,c0_epc
9d0045a0:	8fba007c 	lw	k0,124(sp)
9d0045a4:	27bd0088 	addiu	sp,sp,136
9d0045a8:	409a6002 	mtc0	k0,c0_srsctl
9d0045ac:	41dde800 	wrpgpr	sp,sp
9d0045b0:	409b6000 	mtc0	k1,c0_status
9d0045b4:	42000018 	eret
      ADCarray[plotind] = adcval; 
9d0045b8:	8f83801c 	lw	v1,-32740(gp)
9d0045bc:	00032080 	sll	a0,v1,0x2
9d0045c0:	3c02a000 	lui	v0,0xa000
9d0045c4:	24420660 	addiu	v0,v0,1632
9d0045c8:	00821021 	addu	v0,a0,v0
9d0045cc:	ac530000 	sw	s3,0(v0)
      REFarray[plotind] = Waveform[counter];
9d0045d0:	00111080 	sll	v0,s1,0x2
9d0045d4:	3c05a000 	lui	a1,0xa000
9d0045d8:	24a50980 	addiu	a1,a1,2432
9d0045dc:	00451021 	addu	v0,v0,a1
9d0045e0:	8c450000 	lw	a1,0(v0)
9d0045e4:	3c02a000 	lui	v0,0xa000
9d0045e8:	24420340 	addiu	v0,v0,832
9d0045ec:	00822021 	addu	a0,a0,v0
9d0045f0:	ac850000 	sw	a1,0(a0)
      plotind++; 
9d0045f4:	24630001 	addiu	v1,v1,1
9d0045f8:	1000ffbd 	b	9d0044f0 <Timer2ISR+0x1fc>
9d0045fc:	af83801c 	sw	v1,-32740(gp)
      StoringData = 0;       
9d004600:	af80802c 	sw	zero,-32724(gp)
  counter++;
9d004604:	1000ffbf 	b	9d004504 <Timer2ISR+0x210>
9d004608:	26220001 	addiu	v0,s1,1

Disassembly of section .text.__printf_core:

9d00460c <__printf_core>:
9d00460c:	27bdff18 	addiu	sp,sp,-232
9d004610:	afb500d8 	sw	s5,216(sp)
9d004614:	3c159d00 	lui	s5,0x9d00
9d004618:	afb600dc 	sw	s6,220(sp)
9d00461c:	afb400d4 	sw	s4,212(sp)
9d004620:	afb300d0 	sw	s3,208(sp)
9d004624:	afb200cc 	sw	s2,204(sp)
9d004628:	afb100c8 	sw	s1,200(sp)
9d00462c:	afbf00e4 	sw	ra,228(sp)
9d004630:	afb700e0 	sw	s7,224(sp)
9d004634:	afb000c4 	sw	s0,196(sp)
9d004638:	00809025 	move	s2,a0
9d00463c:	00c08825 	move	s1,a2
9d004640:	afa500b0 	sw	a1,176(sp)
9d004644:	00009825 	move	s3,zero
9d004648:	27b60010 	addiu	s6,sp,16
9d00464c:	24140025 	li	s4,37
9d004650:	26b51e28 	addiu	s5,s5,7720
9d004654:	8fa500b0 	lw	a1,176(sp)
9d004658:	80a20000 	lb	v0,0(a1)
9d00465c:	104000e5 	beqz	v0,9d0049f4 <__printf_core+0x3e8>
9d004660:	2402ffff 	li	v0,-1
9d004664:	afa20094 	sw	v0,148(sp)
9d004668:	24020080 	li	v0,128
9d00466c:	afa00090 	sw	zero,144(sp)
9d004670:	afa00098 	sw	zero,152(sp)
9d004674:	afb6009c 	sw	s6,156(sp)
9d004678:	afa200a0 	sw	v0,160(sp)
9d00467c:	00008025 	move	s0,zero
9d004680:	00b01021 	addu	v0,a1,s0
9d004684:	80420000 	lb	v0,0(v0)
9d004688:	10400003 	beqz	v0,9d004698 <__printf_core+0x8c>
9d00468c:	00000000 	nop
9d004690:	5454fffb 	bnel	v0,s4,9d004680 <__printf_core+0x74>
9d004694:	26100001 	addiu	s0,s0,1
9d004698:	12000008 	beqz	s0,9d0046bc <__printf_core+0xb0>
9d00469c:	8fb700b0 	lw	s7,176(sp)
9d0046a0:	02003025 	move	a2,s0
9d0046a4:	0f402934 	jal	9d00a4d0 <__out>
9d0046a8:	02402025 	move	a0,s2
9d0046ac:	8fa200b0 	lw	v0,176(sp)
9d0046b0:	00501021 	addu	v0,v0,s0
9d0046b4:	afa200b0 	sw	v0,176(sp)
9d0046b8:	8fb700b0 	lw	s7,176(sp)
9d0046bc:	82e20000 	lb	v0,0(s7)
9d0046c0:	545400c5 	bnel	v0,s4,9d0049d8 <__printf_core+0x3cc>
9d0046c4:	02708021 	addu	s0,s3,s0
9d0046c8:	26f70001 	addiu	s7,s7,1
9d0046cc:	afb700b0 	sw	s7,176(sp)
9d0046d0:	2405002b 	li	a1,43
9d0046d4:	2406002d 	li	a2,45
9d0046d8:	24030030 	li	v1,48
9d0046dc:	24070020 	li	a3,32
9d0046e0:	24080023 	li	t0,35
9d0046e4:	8fa400b0 	lw	a0,176(sp)
9d0046e8:	80820000 	lb	v0,0(a0)
9d0046ec:	5045001b 	beql	v0,a1,9d00475c <__printf_core+0x150>
9d0046f0:	8fa20090 	lw	v0,144(sp)
9d0046f4:	2849002c 	slti	t1,v0,44
9d0046f8:	1120001e 	beqz	t1,9d004774 <__printf_core+0x168>
9d0046fc:	00000000 	nop
9d004700:	50470018 	beql	v0,a3,9d004764 <__printf_core+0x158>
9d004704:	8fa20090 	lw	v0,144(sp)
9d004708:	50480018 	beql	v0,t0,9d00476c <__printf_core+0x160>
9d00470c:	8fa20090 	lw	v0,144(sp)
9d004710:	2403002a 	li	v1,42
9d004714:	5043001e 	beql	v0,v1,9d004790 <__printf_core+0x184>
9d004718:	8e220000 	lw	v0,0(s1)
9d00471c:	0f4029e1 	jal	9d00a784 <atoi>
9d004720:	00000000 	nop
9d004724:	afa20098 	sw	v0,152(sp)
9d004728:	8fa300b0 	lw	v1,176(sp)
9d00472c:	80620000 	lb	v0,0(v1)
9d004730:	2442ffd0 	addiu	v0,v0,-48
9d004734:	2c42000a 	sltiu	v0,v0,10
9d004738:	10400021 	beqz	v0,9d0047c0 <__printf_core+0x1b4>
9d00473c:	24630001 	addiu	v1,v1,1
9d004740:	1000fff9 	b	9d004728 <__printf_core+0x11c>
9d004744:	afa300b0 	sw	v1,176(sp)
9d004748:	34420001 	ori	v0,v0,0x1
9d00474c:	24840001 	addiu	a0,a0,1
9d004750:	afa20090 	sw	v0,144(sp)
9d004754:	1000ffe3 	b	9d0046e4 <__printf_core+0xd8>
9d004758:	afa400b0 	sw	a0,176(sp)
9d00475c:	1000fffb 	b	9d00474c <__printf_core+0x140>
9d004760:	34420004 	ori	v0,v0,0x4
9d004764:	1000fff9 	b	9d00474c <__printf_core+0x140>
9d004768:	34420008 	ori	v0,v0,0x8
9d00476c:	1000fff7 	b	9d00474c <__printf_core+0x140>
9d004770:	34420010 	ori	v0,v0,0x10
9d004774:	5046fff4 	beql	v0,a2,9d004748 <__printf_core+0x13c>
9d004778:	8fa20090 	lw	v0,144(sp)
9d00477c:	5443ffe5 	bnel	v0,v1,9d004714 <__printf_core+0x108>
9d004780:	2403002a 	li	v1,42
9d004784:	8fa20090 	lw	v0,144(sp)
9d004788:	1000fff0 	b	9d00474c <__printf_core+0x140>
9d00478c:	34420002 	ori	v0,v0,0x2
9d004790:	24840001 	addiu	a0,a0,1
9d004794:	afa400b0 	sw	a0,176(sp)
9d004798:	24430004 	addiu	v1,v0,4
9d00479c:	8c420000 	lw	v0,0(v0)
9d0047a0:	ae230000 	sw	v1,0(s1)
9d0047a4:	04410006 	bgez	v0,9d0047c0 <__printf_core+0x1b4>
9d0047a8:	afa20098 	sw	v0,152(sp)
9d0047ac:	8fa30090 	lw	v1,144(sp)
9d0047b0:	00021023 	negu	v0,v0
9d0047b4:	afa20098 	sw	v0,152(sp)
9d0047b8:	38630001 	xori	v1,v1,0x1
9d0047bc:	afa30090 	sw	v1,144(sp)
9d0047c0:	8fa20090 	lw	v0,144(sp)
9d0047c4:	30430001 	andi	v1,v0,0x1
9d0047c8:	50600004 	beqzl	v1,9d0047dc <__printf_core+0x1d0>
9d0047cc:	8fa200b0 	lw	v0,176(sp)
9d0047d0:	7c020844 	ins	v0,zero,0x1,0x1
9d0047d4:	afa20090 	sw	v0,144(sp)
9d0047d8:	8fa200b0 	lw	v0,176(sp)
9d0047dc:	2403002e 	li	v1,46
9d0047e0:	80440000 	lb	a0,0(v0)
9d0047e4:	1483000d 	bne	a0,v1,9d00481c <__printf_core+0x210>
9d0047e8:	24440001 	addiu	a0,v0,1
9d0047ec:	afa00094 	sw	zero,148(sp)
9d0047f0:	afa400b0 	sw	a0,176(sp)
9d0047f4:	80450001 	lb	a1,1(v0)
9d0047f8:	2403002a 	li	v1,42
9d0047fc:	14a30024 	bne	a1,v1,9d004890 <__printf_core+0x284>
9d004800:	24420002 	addiu	v0,v0,2
9d004804:	afa200b0 	sw	v0,176(sp)
9d004808:	8e220000 	lw	v0,0(s1)
9d00480c:	24430004 	addiu	v1,v0,4
9d004810:	8c420000 	lw	v0,0(v0)
9d004814:	ae230000 	sw	v1,0(s1)
9d004818:	afa20094 	sw	v0,148(sp)
9d00481c:	0f402b84 	jal	9d00ae10 <__fmt_state>
9d004820:	27a400b0 	addiu	a0,sp,176
9d004824:	afa200b8 	sw	v0,184(sp)
9d004828:	8fa200b0 	lw	v0,176(sp)
9d00482c:	0f402e88 	jal	9d00ba20 <tolower>
9d004830:	80440000 	lb	a0,0(v0)
9d004834:	24030069 	li	v1,105
9d004838:	1043007a 	beq	v0,v1,9d004a24 <__printf_core+0x418>
9d00483c:	8fa500b8 	lw	a1,184(sp)
9d004840:	2843006a 	slti	v1,v0,106
9d004844:	1060002f 	beqz	v1,9d004904 <__printf_core+0x2f8>
9d004848:	24030070 	li	v1,112
9d00484c:	24030063 	li	v1,99
9d004850:	104300bc 	beq	v0,v1,9d004b44 <__printf_core+0x538>
9d004854:	28430064 	slti	v1,v0,100
9d004858:	10600018 	beqz	v1,9d0048bc <__printf_core+0x2b0>
9d00485c:	24030064 	li	v1,100
9d004860:	105400c5 	beq	v0,s4,9d004b78 <__printf_core+0x56c>
9d004864:	24030061 	li	v1,97
9d004868:	5043004e 	beql	v0,v1,9d0049a4 <__printf_core+0x398>
9d00486c:	02203025 	move	a2,s1
9d004870:	24020025 	li	v0,37
9d004874:	a3a200a8 	sb	v0,168(sp)
9d004878:	2402ffff 	li	v0,-1
9d00487c:	afb700b0 	sw	s7,176(sp)
9d004880:	afa00090 	sw	zero,144(sp)
9d004884:	afa00098 	sw	zero,152(sp)
9d004888:	100000b8 	b	9d004b6c <__printf_core+0x560>
9d00488c:	afa20094 	sw	v0,148(sp)
9d004890:	0f4029e1 	jal	9d00a784 <atoi>
9d004894:	00000000 	nop
9d004898:	afa20094 	sw	v0,148(sp)
9d00489c:	8fa300b0 	lw	v1,176(sp)
9d0048a0:	80620000 	lb	v0,0(v1)
9d0048a4:	2442ffd0 	addiu	v0,v0,-48
9d0048a8:	2c42000a 	sltiu	v0,v0,10
9d0048ac:	1040ffdb 	beqz	v0,9d00481c <__printf_core+0x210>
9d0048b0:	24630001 	addiu	v1,v1,1
9d0048b4:	1000fff9 	b	9d00489c <__printf_core+0x290>
9d0048b8:	afa300b0 	sw	v1,176(sp)
9d0048bc:	10430059 	beq	v0,v1,9d004a24 <__printf_core+0x418>
9d0048c0:	28420068 	slti	v0,v0,104
9d0048c4:	1040ffeb 	beqz	v0,9d004874 <__printf_core+0x268>
9d0048c8:	24020025 	li	v0,37
9d0048cc:	02203025 	move	a2,s1
9d0048d0:	0f402c1e 	jal	9d00b078 <__pop_float>
9d0048d4:	27a400a8 	addiu	a0,sp,168
9d0048d8:	10400097 	beqz	v0,9d004b38 <__printf_core+0x52c>
9d0048dc:	8fa200b0 	lw	v0,176(sp)
9d0048e0:	27a600a8 	addiu	a2,sp,168
9d0048e4:	27a50090 	addiu	a1,sp,144
9d0048e8:	24430001 	addiu	v1,v0,1
9d0048ec:	afa300b0 	sw	v1,176(sp)
9d0048f0:	80470000 	lb	a3,0(v0)
9d0048f4:	0f402f1f 	jal	9d00bc7c <__fmt_a>
9d0048f8:	02402025 	move	a0,s2
9d0048fc:	10000035 	b	9d0049d4 <__printf_core+0x3c8>
9d004900:	02028021 	addu	s0,s0,v0
9d004904:	10430072 	beq	v0,v1,9d004ad0 <__printf_core+0x4c4>
9d004908:	28430071 	slti	v1,v0,113
9d00490c:	10600014 	beqz	v1,9d004960 <__printf_core+0x354>
9d004910:	24030075 	li	v1,117
9d004914:	2403006e 	li	v1,110
9d004918:	10430082 	beq	v0,v1,9d004b24 <__printf_core+0x518>
9d00491c:	2403006f 	li	v1,111
9d004920:	1443ffd4 	bne	v0,v1,9d004874 <__printf_core+0x268>
9d004924:	24020025 	li	v0,37
9d004928:	02203825 	move	a3,s1
9d00492c:	00003025 	move	a2,zero
9d004930:	0f402074 	jal	9d0081d0 <__pop_int>
9d004934:	27a400a8 	addiu	a0,sp,168
9d004938:	1040007f 	beqz	v0,9d004b38 <__printf_core+0x52c>
9d00493c:	8fa200b0 	lw	v0,176(sp)
9d004940:	27a600a8 	addiu	a2,sp,168
9d004944:	27a50090 	addiu	a1,sp,144
9d004948:	24420001 	addiu	v0,v0,1
9d00494c:	02402025 	move	a0,s2
9d004950:	0f40251c 	jal	9d009470 <__fmt_o>
9d004954:	afa200b0 	sw	v0,176(sp)
9d004958:	1000001e 	b	9d0049d4 <__printf_core+0x3c8>
9d00495c:	02028021 	addu	s0,s0,v0
9d004960:	1043003e 	beq	v0,v1,9d004a5c <__printf_core+0x450>
9d004964:	24030078 	li	v1,120
9d004968:	1043004a 	beq	v0,v1,9d004a94 <__printf_core+0x488>
9d00496c:	24030073 	li	v1,115
9d004970:	1443ffc0 	bne	v0,v1,9d004874 <__printf_core+0x268>
9d004974:	24020025 	li	v0,37
9d004978:	24020080 	li	v0,128
9d00497c:	14a2006e 	bne	a1,v0,9d004b38 <__printf_core+0x52c>
9d004980:	8fa200b0 	lw	v0,176(sp)
9d004984:	00003825 	move	a3,zero
9d004988:	24420001 	addiu	v0,v0,1
9d00498c:	afa200b0 	sw	v0,176(sp)
9d004990:	8e220000 	lw	v0,0(s1)
9d004994:	24430004 	addiu	v1,v0,4
9d004998:	ae230000 	sw	v1,0(s1)
9d00499c:	1000005c 	b	9d004b10 <__printf_core+0x504>
9d0049a0:	8c460000 	lw	a2,0(v0)
9d0049a4:	0f402c1e 	jal	9d00b078 <__pop_float>
9d0049a8:	27a400a8 	addiu	a0,sp,168
9d0049ac:	10400062 	beqz	v0,9d004b38 <__printf_core+0x52c>
9d0049b0:	8fa200b0 	lw	v0,176(sp)
9d0049b4:	27a600a8 	addiu	a2,sp,168
9d0049b8:	27a50090 	addiu	a1,sp,144
9d0049bc:	24430001 	addiu	v1,v0,1
9d0049c0:	afa300b0 	sw	v1,176(sp)
9d0049c4:	80470000 	lb	a3,0(v0)
9d0049c8:	0f402f1f 	jal	9d00bc7c <__fmt_a>
9d0049cc:	02402025 	move	a0,s2
9d0049d0:	02028021 	addu	s0,s0,v0
9d0049d4:	02708021 	addu	s0,s3,s0
9d0049d8:	0213982a 	slt	s3,s0,s3
9d0049dc:	1260ff1d 	beqz	s3,9d004654 <__printf_core+0x48>
9d0049e0:	02009825 	move	s3,s0
9d0049e4:	3c02a000 	lui	v0,0xa000
9d0049e8:	2403004f 	li	v1,79
9d0049ec:	ac431c78 	sw	v1,7288(v0)
9d0049f0:	2413ffff 	li	s3,-1
9d0049f4:	8fbf00e4 	lw	ra,228(sp)
9d0049f8:	02601025 	move	v0,s3
9d0049fc:	8fb700e0 	lw	s7,224(sp)
9d004a00:	8fb600dc 	lw	s6,220(sp)
9d004a04:	8fb500d8 	lw	s5,216(sp)
9d004a08:	8fb400d4 	lw	s4,212(sp)
9d004a0c:	8fb300d0 	lw	s3,208(sp)
9d004a10:	8fb200cc 	lw	s2,204(sp)
9d004a14:	8fb100c8 	lw	s1,200(sp)
9d004a18:	8fb000c4 	lw	s0,196(sp)
9d004a1c:	03e00008 	jr	ra
9d004a20:	27bd00e8 	addiu	sp,sp,232
9d004a24:	02203825 	move	a3,s1
9d004a28:	24060001 	li	a2,1
9d004a2c:	0f402074 	jal	9d0081d0 <__pop_int>
9d004a30:	27a400a8 	addiu	a0,sp,168
9d004a34:	10400040 	beqz	v0,9d004b38 <__printf_core+0x52c>
9d004a38:	8fa200b0 	lw	v0,176(sp)
9d004a3c:	27a600a8 	addiu	a2,sp,168
9d004a40:	27a50090 	addiu	a1,sp,144
9d004a44:	24420001 	addiu	v0,v0,1
9d004a48:	02402025 	move	a0,s2
9d004a4c:	0f4021e9 	jal	9d0087a4 <__fmt_d>
9d004a50:	afa200b0 	sw	v0,176(sp)
9d004a54:	1000ffdf 	b	9d0049d4 <__printf_core+0x3c8>
9d004a58:	02028021 	addu	s0,s0,v0
9d004a5c:	02203825 	move	a3,s1
9d004a60:	00003025 	move	a2,zero
9d004a64:	0f402074 	jal	9d0081d0 <__pop_int>
9d004a68:	27a400a8 	addiu	a0,sp,168
9d004a6c:	10400032 	beqz	v0,9d004b38 <__printf_core+0x52c>
9d004a70:	8fa200b0 	lw	v0,176(sp)
9d004a74:	27a600a8 	addiu	a2,sp,168
9d004a78:	27a50090 	addiu	a1,sp,144
9d004a7c:	24420001 	addiu	v0,v0,1
9d004a80:	02402025 	move	a0,s2
9d004a84:	0f4026a7 	jal	9d009a9c <__fmt_u>
9d004a88:	afa200b0 	sw	v0,176(sp)
9d004a8c:	1000ffd1 	b	9d0049d4 <__printf_core+0x3c8>
9d004a90:	02028021 	addu	s0,s0,v0
9d004a94:	02203825 	move	a3,s1
9d004a98:	00003025 	move	a2,zero
9d004a9c:	0f402074 	jal	9d0081d0 <__pop_int>
9d004aa0:	27a400a8 	addiu	a0,sp,168
9d004aa4:	10400024 	beqz	v0,9d004b38 <__printf_core+0x52c>
9d004aa8:	8fa200b0 	lw	v0,176(sp)
9d004aac:	24430001 	addiu	v1,v0,1
9d004ab0:	afa300b0 	sw	v1,176(sp)
9d004ab4:	80470000 	lb	a3,0(v0)
9d004ab8:	27a600a8 	addiu	a2,sp,168
9d004abc:	27a50090 	addiu	a1,sp,144
9d004ac0:	0f401eaf 	jal	9d007abc <__fmt_x>
9d004ac4:	02402025 	move	a0,s2
9d004ac8:	1000ffc2 	b	9d0049d4 <__printf_core+0x3c8>
9d004acc:	02028021 	addu	s0,s0,v0
9d004ad0:	02203825 	move	a3,s1
9d004ad4:	00003025 	move	a2,zero
9d004ad8:	240500f0 	li	a1,240
9d004adc:	0f402074 	jal	9d0081d0 <__pop_int>
9d004ae0:	27a400a8 	addiu	a0,sp,168
9d004ae4:	10400014 	beqz	v0,9d004b38 <__printf_core+0x52c>
9d004ae8:	8fa200b0 	lw	v0,176(sp)
9d004aec:	8fa300ac 	lw	v1,172(sp)
9d004af0:	24420001 	addiu	v0,v0,1
9d004af4:	afa200b0 	sw	v0,176(sp)
9d004af8:	8fa200a8 	lw	v0,168(sp)
9d004afc:	00431025 	or	v0,v0,v1
9d004b00:	1440ffed 	bnez	v0,9d004ab8 <__printf_core+0x4ac>
9d004b04:	24070078 	li	a3,120
9d004b08:	00003825 	move	a3,zero
9d004b0c:	02a03025 	move	a2,s5
9d004b10:	27a50090 	addiu	a1,sp,144
9d004b14:	0f402784 	jal	9d009e10 <__fmt_s>
9d004b18:	02402025 	move	a0,s2
9d004b1c:	1000ffad 	b	9d0049d4 <__printf_core+0x3c8>
9d004b20:	02028021 	addu	s0,s0,v0
9d004b24:	02203825 	move	a3,s1
9d004b28:	02703021 	addu	a2,s3,s0
9d004b2c:	0f402599 	jal	9d009664 <__pop_ptr>
9d004b30:	27a400a8 	addiu	a0,sp,168
9d004b34:	8fa200b0 	lw	v0,176(sp)
9d004b38:	24420001 	addiu	v0,v0,1
9d004b3c:	1000ffa5 	b	9d0049d4 <__printf_core+0x3c8>
9d004b40:	afa200b0 	sw	v0,176(sp)
9d004b44:	24020080 	li	v0,128
9d004b48:	14a2fffb 	bne	a1,v0,9d004b38 <__printf_core+0x52c>
9d004b4c:	8fa200b0 	lw	v0,176(sp)
9d004b50:	24420001 	addiu	v0,v0,1
9d004b54:	afa200b0 	sw	v0,176(sp)
9d004b58:	8e220000 	lw	v0,0(s1)
9d004b5c:	24430004 	addiu	v1,v0,4
9d004b60:	8c420000 	lw	v0,0(v0)
9d004b64:	ae230000 	sw	v1,0(s1)
9d004b68:	a3a200a8 	sb	v0,168(sp)
9d004b6c:	24070001 	li	a3,1
9d004b70:	1000ffe7 	b	9d004b10 <__printf_core+0x504>
9d004b74:	27a600a8 	addiu	a2,sp,168
9d004b78:	24020080 	li	v0,128
9d004b7c:	14a2ffee 	bne	a1,v0,9d004b38 <__printf_core+0x52c>
9d004b80:	8fa200b0 	lw	v0,176(sp)
9d004b84:	a3b400a8 	sb	s4,168(sp)
9d004b88:	24420001 	addiu	v0,v0,1
9d004b8c:	1000fff7 	b	9d004b6c <__printf_core+0x560>
9d004b90:	afa200b0 	sw	v0,176(sp)

Disassembly of section .text.dp32mul:

9d004b94 <__divdf3>:
9d004b94:	00055040 000a5542 00054ac0 00047d42     @P..BU...J..B}..
9d004ba4:	012f4825 000442c0 3c0e8000 012e4825     %H/..B.....<%H..
9d004bb4:	00076840 000d6d42 000762c0 00067d42     @h..Bm...b..B}..
9d004bc4:	018f6025 00065ac0 018e6025 00a72826     %`...Z..%`..&(..
9d004bd4:	00ae2824 254fffff 2de107fe 102000cb     $(....O%...-.. .
9d004be4:	00000000                                ....

9d004be8 <Dlab1>:
9d004be8:	25afffff 	addiu	t7,t5,-1
9d004bec:	2de107fe 	sltiu	at,t7,2046
9d004bf0:	102000f4 	beqz	at,9d004fc4 <DspecB>
9d004bf4:	00000000 	nop

9d004bf8 <Dlab2>:
9d004bf8:	014d5023 	subu	t2,t2,t5
9d004bfc:	254a03ff 	addiu	t2,t2,1023
9d004c00:	00084042 	srl	t0,t0,0x1
9d004c04:	00097fc0 	sll	t7,t1,0x1f
9d004c08:	010f4025 	or	t0,t0,t7
9d004c0c:	00094842 	srl	t1,t1,0x1
9d004c10:	000c3c02 	srl	a3,t4,0x10
9d004c14:	00e001f4 	teq	a3,zero,0x7
9d004c18:	0127001b 	divu	zero,t1,a3
9d004c1c:	00007012 	mflo	t6
9d004c20:	00004810 	mfhi	t1
9d004c24:	3186ffff 	andi	a2,t4,0xffff
9d004c28:	00ce0019 	multu	a2,t6
9d004c2c:	00002012 	mflo	a0
9d004c30:	00094c00 	sll	t1,t1,0x10
9d004c34:	00087c02 	srl	t7,t0,0x10
9d004c38:	012f4825 	or	t1,t1,t7
9d004c3c:	0124782b 	sltu	t7,t1,a0
9d004c40:	11e00006 	beqz	t7,9d004c5c <i20>
9d004c44:	01244823 	subu	t1,t1,a0

9d004c48 <b21>:
9d004c48:	25ceffff 	addiu	t6,t6,-1
9d004c4c:	012c4821 	addu	t1,t1,t4
9d004c50:	012c082b 	sltu	at,t1,t4
9d004c54:	1020fffc 	beqz	at,9d004c48 <b21>
9d004c58:	00000000 	nop

9d004c5c <i20>:
9d004c5c:	00e001f4 	teq	a3,zero,0x7
9d004c60:	0127001b 	divu	zero,t1,a3
9d004c64:	00003812 	mflo	a3
9d004c68:	00004810 	mfhi	t1
9d004c6c:	00c70019 	multu	a2,a3
9d004c70:	00002012 	mflo	a0
9d004c74:	00094c00 	sll	t1,t1,0x10
9d004c78:	310fffff 	andi	t7,t0,0xffff
9d004c7c:	012f4825 	or	t1,t1,t7
9d004c80:	0124782b 	sltu	t7,t1,a0
9d004c84:	11e00006 	beqz	t7,9d004ca0 <i22>
9d004c88:	01244823 	subu	t1,t1,a0

9d004c8c <b23>:
9d004c8c:	24e7ffff 	addiu	a3,a3,-1
9d004c90:	012c4821 	addu	t1,t1,t4
9d004c94:	012c082b 	sltu	at,t1,t4
9d004c98:	1020fffc 	beqz	at,9d004c8c <b23>
9d004c9c:	00000000 	nop

9d004ca0 <i22>:
9d004ca0:	000e7400 	sll	t6,t6,0x10
9d004ca4:	01c77021 	addu	t6,t6,a3
9d004ca8:	01cb0019 	multu	t6,t3
9d004cac:	00003812 	mflo	a3
9d004cb0:	00002010 	mfhi	a0
9d004cb4:	24080000 	li	t0,0
9d004cb8:	0107782b 	sltu	t7,t0,a3
9d004cbc:	01074023 	subu	t0,t0,a3
9d004cc0:	012f102b 	sltu	v0,t1,t7
9d004cc4:	012f4823 	subu	t1,t1,t7
9d004cc8:	0124782b 	sltu	t7,t1,a0
9d004ccc:	01e27825 	or	t7,t7,v0
9d004cd0:	11e0000b 	beqz	t7,9d004d00 <i24>
9d004cd4:	01244823 	subu	t1,t1,a0

9d004cd8 <Dlab3>:
9d004cd8:	25ceffff 	addiu	t6,t6,-1
9d004cdc:	010b4021 	addu	t0,t0,t3
9d004ce0:	010b782b 	sltu	t7,t0,t3
9d004ce4:	012c4821 	addu	t1,t1,t4
9d004ce8:	012f4821 	addu	t1,t1,t7
9d004cec:	112c0002 	beq	t1,t4,9d004cf8 <L31>
9d004cf0:	00000000 	nop
9d004cf4:	012c782b 	sltu	t7,t1,t4

9d004cf8 <L31>:
9d004cf8:	11e0fff7 	beqz	t7,9d004cd8 <Dlab3>
9d004cfc:	00000000 	nop

9d004d00 <i24>:
9d004d00:	152c0006 	bne	t1,t4,9d004d1c <i25>
9d004d04:	00000000 	nop
9d004d08:	000b2025 	or	a0,zero,t3
9d004d0c:	00084825 	or	t1,zero,t0
9d004d10:	240d0000 	li	t5,0
9d004d14:	1000002a 	b	9d004dc0 <e25>
9d004d18:	000d3825 	or	a3,zero,t5

9d004d1c <i25>:
9d004d1c:	000c3c02 	srl	a3,t4,0x10
9d004d20:	00e001f4 	teq	a3,zero,0x7
9d004d24:	0127001b 	divu	zero,t1,a3
9d004d28:	00006812 	mflo	t5
9d004d2c:	00004810 	mfhi	t1
9d004d30:	3186ffff 	andi	a2,t4,0xffff
9d004d34:	00cd0019 	multu	a2,t5
9d004d38:	00002012 	mflo	a0
9d004d3c:	00094c00 	sll	t1,t1,0x10
9d004d40:	00087c02 	srl	t7,t0,0x10
9d004d44:	012f4825 	or	t1,t1,t7
9d004d48:	0124782b 	sltu	t7,t1,a0
9d004d4c:	11e00006 	beqz	t7,9d004d68 <i26>
9d004d50:	01244823 	subu	t1,t1,a0

9d004d54 <b27>:
9d004d54:	25adffff 	addiu	t5,t5,-1
9d004d58:	012c4821 	addu	t1,t1,t4
9d004d5c:	012c082b 	sltu	at,t1,t4
9d004d60:	1020fffc 	beqz	at,9d004d54 <b27>
9d004d64:	00000000 	nop

9d004d68 <i26>:
9d004d68:	00e001f4 	teq	a3,zero,0x7
9d004d6c:	0127001b 	divu	zero,t1,a3
9d004d70:	00003812 	mflo	a3
9d004d74:	00004810 	mfhi	t1
9d004d78:	00c70019 	multu	a2,a3
9d004d7c:	00002012 	mflo	a0
9d004d80:	00094c00 	sll	t1,t1,0x10
9d004d84:	310fffff 	andi	t7,t0,0xffff
9d004d88:	012f4825 	or	t1,t1,t7
9d004d8c:	0124782b 	sltu	t7,t1,a0
9d004d90:	11e00006 	beqz	t7,9d004dac <i28>
9d004d94:	01244823 	subu	t1,t1,a0

9d004d98 <b29>:
9d004d98:	24e7ffff 	addiu	a3,a3,-1
9d004d9c:	012c4821 	addu	t1,t1,t4
9d004da0:	012c082b 	sltu	at,t1,t4
9d004da4:	1020fffc 	beqz	at,9d004d98 <b29>
9d004da8:	00000000 	nop

9d004dac <i28>:
9d004dac:	000d6c00 	sll	t5,t5,0x10
9d004db0:	01a76821 	addu	t5,t5,a3
9d004db4:	01ab0019 	multu	t5,t3
9d004db8:	00003812 	mflo	a3
9d004dbc:	00002010 	mfhi	a0

9d004dc0 <e25>:
9d004dc0:	24080000 	li	t0,0
9d004dc4:	0107782b 	sltu	t7,t0,a3
9d004dc8:	01074023 	subu	t0,t0,a3
9d004dcc:	012f102b 	sltu	v0,t1,t7
9d004dd0:	012f4823 	subu	t1,t1,t7
9d004dd4:	0124782b 	sltu	t7,t1,a0
9d004dd8:	01e27825 	or	t7,t7,v0
9d004ddc:	11e0000b 	beqz	t7,9d004e0c <i30>
9d004de0:	01244823 	subu	t1,t1,a0

9d004de4 <Dlab4>:
9d004de4:	25adffff 	addiu	t5,t5,-1
9d004de8:	010b4021 	addu	t0,t0,t3
9d004dec:	010b782b 	sltu	t7,t0,t3
9d004df0:	012c4821 	addu	t1,t1,t4
9d004df4:	012f4821 	addu	t1,t1,t7
9d004df8:	112c0002 	beq	t1,t4,9d004e04 <L32>
9d004dfc:	00000000 	nop
9d004e00:	012c782b 	sltu	t7,t1,t4

9d004e04 <L32>:
9d004e04:	11e0fff7 	beqz	t7,9d004de4 <Dlab4>
9d004e08:	00000000 	nop

9d004e0c <i30>:
9d004e0c:	05c00006 	bltz	t6,9d004e28 <i31>
9d004e10:	00000000 	nop
9d004e14:	01a0782a 	slt	t7,t5,zero
9d004e18:	01ad6821 	addu	t5,t5,t5
9d004e1c:	01ce7021 	addu	t6,t6,t6
9d004e20:	01cf7021 	addu	t6,t6,t7
9d004e24:	254affff 	addiu	t2,t2,-1

9d004e28 <i31>:
9d004e28:	01287825 	or	t7,t1,t0
9d004e2c:	11e00002 	beqz	t7,9d004e38 <i32>
9d004e30:	00000000 	nop
9d004e34:	35ad0001 	ori	t5,t5,0x1

9d004e38 <i32>:
9d004e38:	000e4825 	or	t1,zero,t6
9d004e3c:	000d4025 	or	t0,zero,t5
9d004e40:	254fffff 	addiu	t7,t2,-1
9d004e44:	2de107fe 	sltiu	at,t7,2046
9d004e48:	10200015 	beqz	at,9d004ea0 <Doveund>
9d004e4c:	00000000 	nop
9d004e50:	25080400 	addiu	t0,t0,1024
9d004e54:	2d0f0400 	sltiu	t7,t0,1024
9d004e58:	012f4821 	addu	t1,t1,t7
9d004e5c:	012f782b 	sltu	t7,t1,t7
9d004e60:	014f5021 	addu	t2,t2,t7

9d004e64 <Dlab8>:
9d004e64:	00087ac2 	srl	t7,t0,0xb
9d004e68:	31ef0001 	andi	t7,t7,0x1
9d004e6c:	010f4023 	subu	t0,t0,t7
9d004e70:	000822c2 	srl	a0,t0,0xb
9d004e74:	00097d40 	sll	t7,t1,0x15
9d004e78:	008f2025 	or	a0,a0,t7
9d004e7c:	00097840 	sll	t7,t1,0x1
9d004e80:	000f7b02 	srl	t7,t7,0xc
9d004e84:	00af2825 	or	a1,a1,t7
9d004e88:	000a7d00 	sll	t7,t2,0x14
9d004e8c:	00af2825 	or	a1,a1,t7

9d004e90 <Dret>:
9d004e90:	00041025 	or	v0,zero,a0
9d004e94:	00051825 	or	v1,zero,a1

9d004e98 <D999>:
9d004e98:	03e00008 	jr	ra
9d004e9c:	00000000 	nop

9d004ea0 <Doveund>:
9d004ea0:	1d400044 	bgtz	t2,9d004fb4 <Dinf>
9d004ea4:	00000000 	nop
9d004ea8:	240e0001 	li	t6,1
9d004eac:	01ca7023 	subu	t6,t6,t2

9d004eb0 <L33>:
9d004eb0:	2dc10020 	sltiu	at,t6,32
9d004eb4:	14200007 	bnez	at,9d004ed4 <L34>
9d004eb8:	00000000 	nop
9d004ebc:	21ceffe0 	addi	t6,t6,-32
9d004ec0:	0008202b 	sltu	a0,zero,t0
9d004ec4:	1009000d 	beq	zero,t1,9d004efc <L35>
9d004ec8:	01244025 	or	t0,t1,a0
9d004ecc:	1000fff8 	b	9d004eb0 <L33>
9d004ed0:	34090000 	li	t1,0x0

9d004ed4 <L34>:
9d004ed4:	11c00009 	beqz	t6,9d004efc <L35>
9d004ed8:	00000000 	nop
9d004edc:	000e3022 	neg	a2,t6
9d004ee0:	00c82004 	sllv	a0,t0,a2
9d004ee4:	00c93004 	sllv	a2,t1,a2
9d004ee8:	01c84006 	srlv	t0,t0,t6
9d004eec:	01c94806 	srlv	t1,t1,t6
9d004ef0:	10800002 	beqz	a0,9d004efc <L35>
9d004ef4:	00c84025 	or	t0,a2,t0
9d004ef8:	35080002 	ori	t0,t0,0x2

9d004efc <L35>:
9d004efc:	25080400 	addiu	t0,t0,1024
9d004f00:	2d0f0400 	sltiu	t7,t0,1024
9d004f04:	012f4821 	addu	t1,t1,t7
9d004f08:	1000ffd6 	b	9d004e64 <Dlab8>
9d004f0c:	000957c2 	srl	t2,t1,0x1f

9d004f10 <DspecA>:
9d004f10:	0100782a 	slt	t7,t0,zero
9d004f14:	01084021 	addu	t0,t0,t0
9d004f18:	01294821 	addu	t1,t1,t1
9d004f1c:	15400017 	bnez	t2,9d004f7c <i33>
9d004f20:	012f4821 	addu	t1,t1,t7
9d004f24:	01287825 	or	t7,t1,t0
9d004f28:	11e00014 	beqz	t7,9d004f7c <i33>
9d004f2c:	00000000 	nop
9d004f30:	15200008 	bnez	t1,9d004f54 <L36>
9d004f34:	00000000 	nop
9d004f38:	15000003 	bnez	t0,9d004f48 <L37>
9d004f3c:	00000000 	nop
9d004f40:	1000ff29 	b	9d004be8 <Dlab1>
9d004f44:	240a0000 	li	t2,0

9d004f48 <L37>:
9d004f48:	01004825 	move	t1,t0
9d004f4c:	24080000 	li	t0,0
9d004f50:	254affe0 	addiu	t2,t2,-32

9d004f54 <L36>:
9d004f54:	712e7020 	clz	t6,t1
9d004f58:	11c0ff23 	beqz	t6,9d004be8 <Dlab1>
9d004f5c:	00000000 	nop
9d004f60:	014e5023 	subu	t2,t2,t6
9d004f64:	000e3022 	neg	a2,t6
9d004f68:	00c83006 	srlv	a2,t0,a2
9d004f6c:	01c84004 	sllv	t0,t0,t6
9d004f70:	01c94804 	sllv	t1,t1,t6
9d004f74:	1000ff1c 	b	9d004be8 <Dlab1>
9d004f78:	01264825 	or	t1,t1,a2

9d004f7c <i33>:
9d004f7c:	154d0005 	bne	t2,t5,9d004f94 <i35>
9d004f80:	00000000 	nop
9d004f84:	000c7840 	sll	t7,t4,0x1
9d004f88:	01eb7825 	or	t7,t7,t3
9d004f8c:	11e0002b 	beqz	t7,9d00503c <Dnan>
9d004f90:	00000000 	nop

9d004f94 <i35>:
9d004f94:	240107ff 	li	at,2047
9d004f98:	11a1000a 	beq	t5,at,9d004fc4 <DspecB>
9d004f9c:	00000000 	nop
9d004fa0:	1140ffbb 	beqz	t2,9d004e90 <Dret>
9d004fa4:	00000000 	nop
9d004fa8:	01287825 	or	t7,t1,t0
9d004fac:	15e00023 	bnez	t7,9d00503c <Dnan>
9d004fb0:	00000000 	nop

9d004fb4 <Dinf>:
9d004fb4:	3c017ff0 	lui	at,0x7ff0
9d004fb8:	00a12825 	or	a1,a1,at
9d004fbc:	1000ffb4 	b	9d004e90 <Dret>
9d004fc0:	24040000 	li	a0,0

9d004fc4 <DspecB>:
9d004fc4:	0160782a 	slt	t7,t3,zero
9d004fc8:	016b5821 	addu	t3,t3,t3
9d004fcc:	018c6021 	addu	t4,t4,t4
9d004fd0:	15a00017 	bnez	t5,9d005030 <i36>
9d004fd4:	018f6021 	addu	t4,t4,t7
9d004fd8:	018b7825 	or	t7,t4,t3
9d004fdc:	11e0fff5 	beqz	t7,9d004fb4 <Dinf>
9d004fe0:	00000000 	nop
9d004fe4:	15800008 	bnez	t4,9d005008 <L39>
9d004fe8:	00000000 	nop
9d004fec:	15600003 	bnez	t3,9d004ffc <L40>
9d004ff0:	00000000 	nop
9d004ff4:	1000ff00 	b	9d004bf8 <Dlab2>
9d004ff8:	240d0000 	li	t5,0

9d004ffc <L40>:
9d004ffc:	01606025 	move	t4,t3
9d005000:	240b0000 	li	t3,0
9d005004:	25adffe0 	addiu	t5,t5,-32

9d005008 <L39>:
9d005008:	718e7020 	clz	t6,t4
9d00500c:	11c0fefa 	beqz	t6,9d004bf8 <Dlab2>
9d005010:	00000000 	nop
9d005014:	01ae6823 	subu	t5,t5,t6
9d005018:	000e3022 	neg	a2,t6
9d00501c:	00cb3006 	srlv	a2,t3,a2
9d005020:	01cb5804 	sllv	t3,t3,t6
9d005024:	01cc6004 	sllv	t4,t4,t6
9d005028:	1000fef3 	b	9d004bf8 <Dlab2>
9d00502c:	01866025 	or	t4,t4,a2

9d005030 <i36>:
9d005030:	018b7825 	or	t7,t4,t3
9d005034:	11e00002 	beqz	t7,9d005040 <i38>
9d005038:	00000000 	nop

9d00503c <Dnan>:
9d00503c:	3c05fff8 	lui	a1,0xfff8

9d005040 <i38>:
9d005040:	1000ff93 	b	9d004e90 <Dret>
9d005044:	24040000 	li	a0,0
9d005048:	00000000 	nop

Disassembly of section .text.dreml:

9d00504c <dreml>:
9d00504c:	27bdffa8 	addiu	sp,sp,-88
9d005050:	afa70064 	sw	a3,100(sp)
9d005054:	afa5005c 	sw	a1,92(sp)
9d005058:	afbe0050 	sw	s8,80(sp)
9d00505c:	afb10034 	sw	s1,52(sp)
9d005060:	97be005e 	lhu	s8,94(sp)
9d005064:	97b10066 	lhu	s1,102(sp)
9d005068:	afb40040 	sw	s4,64(sp)
9d00506c:	afb00030 	sw	s0,48(sp)
9d005070:	24147ff0 	li	s4,32752
9d005074:	32307fff 	andi	s0,s1,0x7fff
9d005078:	33c27ff0 	andi	v0,s8,0x7ff0
9d00507c:	afbf0054 	sw	ra,84(sp)
9d005080:	afb7004c 	sw	s7,76(sp)
9d005084:	afb60048 	sw	s6,72(sp)
9d005088:	afb50044 	sw	s5,68(sp)
9d00508c:	afb3003c 	sw	s3,60(sp)
9d005090:	afb20038 	sw	s2,56(sp)
9d005094:	afa60060 	sw	a2,96(sp)
9d005098:	afa40058 	sw	a0,88(sp)
9d00509c:	105400a6 	beq	v0,s4,9d005338 <dreml+0x2ec>
9d0050a0:	a7b00066 	sh	s0,102(sp)
9d0050a4:	8fb20060 	lw	s2,96(sp)
9d0050a8:	8fb30064 	lw	s3,100(sp)
9d0050ac:	00003025 	move	a2,zero
9d0050b0:	00003825 	move	a3,zero
9d0050b4:	02402025 	move	a0,s2
9d0050b8:	0f4022e5 	jal	9d008b94 <__eqdf2>
9d0050bc:	02602825 	move	a1,s3
9d0050c0:	10400088 	beqz	v0,9d0052e4 <dreml+0x298>
9d0050c4:	32317ff0 	andi	s1,s1,0x7ff0
9d0050c8:	123400b3 	beq	s1,s4,9d005398 <dreml+0x34c>
9d0050cc:	00108103 	sra	s0,s0,0x4
9d0050d0:	321007fe 	andi	s0,s0,0x7fe
9d0050d4:	120000cb 	beqz	s0,9d005404 <dreml+0x3b8>
9d0050d8:	3c109d00 	lui	s0,0x9d00
9d0050dc:	8e061eb8 	lw	a2,7864(s0)
9d0050e0:	8e071ebc 	lw	a3,7868(s0)
9d0050e4:	02402025 	move	a0,s2
9d0050e8:	0f401b4d 	jal	9d006d34 <__muldf3>
9d0050ec:	02602825 	move	a1,s3
9d0050f0:	afa20020 	sw	v0,32(sp)
9d0050f4:	3c029d00 	lui	v0,0x9d00
9d0050f8:	8c461ec0 	lw	a2,7872(v0)
9d0050fc:	8c471ec4 	lw	a3,7876(v0)
9d005100:	02402025 	move	a0,s2
9d005104:	02602825 	move	a1,s3
9d005108:	0f4022e5 	jal	9d008b94 <__eqdf2>
9d00510c:	afa30024 	sw	v1,36(sp)
9d005110:	044100aa 	bgez	v0,9d0053bc <dreml+0x370>
9d005114:	33c87fff 	andi	t0,s8,0x7fff
9d005118:	02403025 	move	a2,s2
9d00511c:	02603825 	move	a3,s3
9d005120:	02402025 	move	a0,s2
9d005124:	02602825 	move	a1,s3
9d005128:	0f40174c 	jal	9d005d30 <__adddf3>
9d00512c:	afa80018 	sw	t0,24(sp)
9d005130:	8fa80018 	lw	t0,24(sp)
9d005134:	8fb00058 	lw	s0,88(sp)
9d005138:	7c1e7004 	ins	s8,zero,0x0,0xf
9d00513c:	a7a8005e 	sh	t0,94(sp)
9d005140:	8fb1005c 	lw	s1,92(sp)
9d005144:	00402025 	move	a0,v0
9d005148:	0040a825 	move	s5,v0
9d00514c:	00602825 	move	a1,v1
9d005150:	7c1e1620 	seh	v0,s8
9d005154:	02003025 	move	a2,s0
9d005158:	02203825 	move	a3,s1
9d00515c:	0003b402 	srl	s6,v1,0x10
9d005160:	0060a025 	move	s4,v1
9d005164:	0f402330 	jal	9d008cc0 <dpcmplt>
9d005168:	afa20028 	sw	v0,40(sp)
9d00516c:	32d77ff0 	andi	s7,s6,0x7ff0
9d005170:	04400003 	bltz	v0,9d005180 <dreml+0x134>
9d005174:	8fa80018 	lw	t0,24(sp)
9d005178:	10000029 	b	9d005220 <dreml+0x1d4>
9d00517c:	8fb40020 	lw	s4,32(sp)
9d005180:	31037ff0 	andi	v1,t0,0x7ff0
9d005184:	02c31821 	addu	v1,s6,v1
9d005188:	00771823 	subu	v1,v1,s7
9d00518c:	307effff 	andi	s8,v1,0xffff
9d005190:	afb40014 	sw	s4,20(sp)
9d005194:	afb50010 	sw	s5,16(sp)
9d005198:	a7be0016 	sh	s8,22(sp)
9d00519c:	8fa80010 	lw	t0,16(sp)
9d0051a0:	8fa90014 	lw	t1,20(sp)
9d0051a4:	02003025 	move	a2,s0
9d0051a8:	01002025 	move	a0,t0
9d0051ac:	01202825 	move	a1,t1
9d0051b0:	02203825 	move	a3,s1
9d0051b4:	afa80018 	sw	t0,24(sp)
9d0051b8:	0f4022e5 	jal	9d008b94 <__eqdf2>
9d0051bc:	afa9001c 	sw	t1,28(sp)
9d0051c0:	02002025 	move	a0,s0
9d0051c4:	02202825 	move	a1,s1
9d0051c8:	27c3fff0 	addiu	v1,s8,-16
9d0051cc:	8fa80018 	lw	t0,24(sp)
9d0051d0:	18400004 	blez	v0,9d0051e4 <dreml+0x198>
9d0051d4:	8fa9001c 	lw	t1,28(sp)
9d0051d8:	a7a30016 	sh	v1,22(sp)
9d0051dc:	8fa80010 	lw	t0,16(sp)
9d0051e0:	8fa90014 	lw	t1,20(sp)
9d0051e4:	01003025 	move	a2,t0
9d0051e8:	0f40174a 	jal	9d005d28 <__subdf3>
9d0051ec:	01203825 	move	a3,t1
9d0051f0:	00403025 	move	a2,v0
9d0051f4:	02a02025 	move	a0,s5
9d0051f8:	02802825 	move	a1,s4
9d0051fc:	00603825 	move	a3,v1
9d005200:	00408025 	move	s0,v0
9d005204:	00608825 	move	s1,v1
9d005208:	afa20058 	sw	v0,88(sp)
9d00520c:	0f402330 	jal	9d008cc0 <dpcmplt>
9d005210:	afa3005c 	sw	v1,92(sp)
9d005214:	0440ffda 	bltz	v0,9d005180 <dreml+0x134>
9d005218:	97a8005e 	lhu	t0,94(sp)
9d00521c:	8fb40020 	lw	s4,32(sp)
9d005220:	8fb50024 	lw	s5,36(sp)
9d005224:	02002025 	move	a0,s0
9d005228:	02803025 	move	a2,s4
9d00522c:	02a03825 	move	a3,s5
9d005230:	0f4022e5 	jal	9d008b94 <__eqdf2>
9d005234:	02202825 	move	a1,s1
9d005238:	18400017 	blez	v0,9d005298 <dreml+0x24c>
9d00523c:	97a2005e 	lhu	v0,94(sp)
9d005240:	02002025 	move	a0,s0
9d005244:	02202825 	move	a1,s1
9d005248:	02403025 	move	a2,s2
9d00524c:	0f40174a 	jal	9d005d28 <__subdf3>
9d005250:	02603825 	move	a3,s3
9d005254:	00402025 	move	a0,v0
9d005258:	02803025 	move	a2,s4
9d00525c:	02a03825 	move	a3,s5
9d005260:	00602825 	move	a1,v1
9d005264:	00408025 	move	s0,v0
9d005268:	0f4022e5 	jal	9d008b94 <__eqdf2>
9d00526c:	00608825 	move	s1,v1
9d005270:	04420089 	bltzl	v0,9d005498 <dreml+0x44c>
9d005274:	afb00058 	sw	s0,88(sp)
9d005278:	02403025 	move	a2,s2
9d00527c:	02603825 	move	a3,s3
9d005280:	02002025 	move	a0,s0
9d005284:	0f40174a 	jal	9d005d28 <__subdf3>
9d005288:	02202825 	move	a1,s1
9d00528c:	afa20058 	sw	v0,88(sp)
9d005290:	afa3005c 	sw	v1,92(sp)
9d005294:	97a2005e 	lhu	v0,94(sp)
9d005298:	8fa30028 	lw	v1,40(sp)
9d00529c:	0062f026 	xor	s8,v1,v0
9d0052a0:	a7be005e 	sh	s8,94(sp)
9d0052a4:	8fb20058 	lw	s2,88(sp)
9d0052a8:	8fb3005c 	lw	s3,92(sp)
9d0052ac:	8fbf0054 	lw	ra,84(sp)
9d0052b0:	02401025 	move	v0,s2
9d0052b4:	02601825 	move	v1,s3
9d0052b8:	8fbe0050 	lw	s8,80(sp)
9d0052bc:	8fb7004c 	lw	s7,76(sp)
9d0052c0:	8fb60048 	lw	s6,72(sp)
9d0052c4:	8fb50044 	lw	s5,68(sp)
9d0052c8:	8fb40040 	lw	s4,64(sp)
9d0052cc:	8fb3003c 	lw	s3,60(sp)
9d0052d0:	8fb20038 	lw	s2,56(sp)
9d0052d4:	8fb10034 	lw	s1,52(sp)
9d0052d8:	8fb00030 	lw	s0,48(sp)
9d0052dc:	03e00008 	jr	ra
9d0052e0:	27bd0058 	addiu	sp,sp,88
9d0052e4:	00003025 	move	a2,zero
9d0052e8:	00003825 	move	a3,zero
9d0052ec:	00c02025 	move	a0,a2
9d0052f0:	0f4012e5 	jal	9d004b94 <__divdf3>
9d0052f4:	00e02825 	move	a1,a3
9d0052f8:	00409025 	move	s2,v0
9d0052fc:	00609825 	move	s3,v1
9d005300:	8fbf0054 	lw	ra,84(sp)
9d005304:	02401025 	move	v0,s2
9d005308:	02601825 	move	v1,s3
9d00530c:	8fbe0050 	lw	s8,80(sp)
9d005310:	8fb7004c 	lw	s7,76(sp)
9d005314:	8fb60048 	lw	s6,72(sp)
9d005318:	8fb50044 	lw	s5,68(sp)
9d00531c:	8fb40040 	lw	s4,64(sp)
9d005320:	8fb3003c 	lw	s3,60(sp)
9d005324:	8fb20038 	lw	s2,56(sp)
9d005328:	8fb10034 	lw	s1,52(sp)
9d00532c:	8fb00030 	lw	s0,48(sp)
9d005330:	03e00008 	jr	ra
9d005334:	27bd0058 	addiu	sp,sp,88
9d005338:	8fa60060 	lw	a2,96(sp)
9d00533c:	0f40174a 	jal	9d005d28 <__subdf3>
9d005340:	8fa70064 	lw	a3,100(sp)
9d005344:	00403025 	move	a2,v0
9d005348:	00603825 	move	a3,v1
9d00534c:	00402025 	move	a0,v0
9d005350:	0f40174a 	jal	9d005d28 <__subdf3>
9d005354:	00602825 	move	a1,v1
9d005358:	8fbf0054 	lw	ra,84(sp)
9d00535c:	00409025 	move	s2,v0
9d005360:	00609825 	move	s3,v1
9d005364:	02401025 	move	v0,s2
9d005368:	02601825 	move	v1,s3
9d00536c:	8fbe0050 	lw	s8,80(sp)
9d005370:	8fb7004c 	lw	s7,76(sp)
9d005374:	8fb60048 	lw	s6,72(sp)
9d005378:	8fb50044 	lw	s5,68(sp)
9d00537c:	8fb40040 	lw	s4,64(sp)
9d005380:	8fb3003c 	lw	s3,60(sp)
9d005384:	8fb20038 	lw	s2,56(sp)
9d005388:	8fb10034 	lw	s1,52(sp)
9d00538c:	8fb00030 	lw	s0,48(sp)
9d005390:	03e00008 	jr	ra
9d005394:	27bd0058 	addiu	sp,sp,88
9d005398:	02403025 	move	a2,s2
9d00539c:	02603825 	move	a3,s3
9d0053a0:	02402025 	move	a0,s2
9d0053a4:	0f4022e5 	jal	9d008b94 <__eqdf2>
9d0053a8:	02602825 	move	a1,s3
9d0053ac:	1440ffd5 	bnez	v0,9d005304 <dreml+0x2b8>
9d0053b0:	8fbf0054 	lw	ra,84(sp)
9d0053b4:	1000ffbc 	b	9d0052a8 <dreml+0x25c>
9d0053b8:	8fb20058 	lw	s2,88(sp)
9d0053bc:	8e061eb8 	lw	a2,7864(s0)
9d0053c0:	8e071ebc 	lw	a3,7868(s0)
9d0053c4:	8fa40058 	lw	a0,88(sp)
9d0053c8:	0f401b4d 	jal	9d006d34 <__muldf3>
9d0053cc:	8fa5005c 	lw	a1,92(sp)
9d0053d0:	8fa60020 	lw	a2,32(sp)
9d0053d4:	8fa70024 	lw	a3,36(sp)
9d0053d8:	00402025 	move	a0,v0
9d0053dc:	0f401413 	jal	9d00504c <dreml>
9d0053e0:	00602825 	move	a1,v1
9d0053e4:	00403025 	move	a2,v0
9d0053e8:	00603825 	move	a3,v1
9d0053ec:	00402025 	move	a0,v0
9d0053f0:	0f40174c 	jal	9d005d30 <__adddf3>
9d0053f4:	00602825 	move	a1,v1
9d0053f8:	00409025 	move	s2,v0
9d0053fc:	1000ffc0 	b	9d005300 <dreml+0x2b4>
9d005400:	00609825 	move	s3,v1
9d005404:	3c029d00 	lui	v0,0x9d00
9d005408:	8c441eb0 	lw	a0,7856(v0)
9d00540c:	8c451eb4 	lw	a1,7860(v0)
9d005410:	0f40218e 	jal	9d008638 <__mchp_ldexp>
9d005414:	24060036 	li	a2,54
9d005418:	00403025 	move	a2,v0
9d00541c:	02402025 	move	a0,s2
9d005420:	02602825 	move	a1,s3
9d005424:	00603825 	move	a3,v1
9d005428:	00408025 	move	s0,v0
9d00542c:	0f401b4d 	jal	9d006d34 <__muldf3>
9d005430:	00608825 	move	s1,v1
9d005434:	8fa40058 	lw	a0,88(sp)
9d005438:	8fa5005c 	lw	a1,92(sp)
9d00543c:	00403025 	move	a2,v0
9d005440:	00603825 	move	a3,v1
9d005444:	00409025 	move	s2,v0
9d005448:	0f401413 	jal	9d00504c <dreml>
9d00544c:	00609825 	move	s3,v1
9d005450:	00402025 	move	a0,v0
9d005454:	02003025 	move	a2,s0
9d005458:	02203825 	move	a3,s1
9d00545c:	0f401b4d 	jal	9d006d34 <__muldf3>
9d005460:	00602825 	move	a1,v1
9d005464:	00402025 	move	a0,v0
9d005468:	02403025 	move	a2,s2
9d00546c:	02603825 	move	a3,s3
9d005470:	0f401413 	jal	9d00504c <dreml>
9d005474:	00602825 	move	a1,v1
9d005478:	00402025 	move	a0,v0
9d00547c:	02003025 	move	a2,s0
9d005480:	02203825 	move	a3,s1
9d005484:	0f4012e5 	jal	9d004b94 <__divdf3>
9d005488:	00602825 	move	a1,v1
9d00548c:	00409025 	move	s2,v0
9d005490:	1000ff9b 	b	9d005300 <dreml+0x2b4>
9d005494:	00609825 	move	s3,v1
9d005498:	1000ff7e 	b	9d005294 <dreml+0x248>
9d00549c:	afb1005c 	sw	s1,92(sp)

Disassembly of section .text:

9d0054a0 <__moddi3>:
9d0054a0:	04a10006 	bgez	a1,9d0054bc <__moddi3+0x1c>
9d0054a4:	00006025 	move	t4,zero
9d0054a8:	00042023 	negu	a0,a0
9d0054ac:	0004102b 	sltu	v0,zero,a0
9d0054b0:	00052823 	negu	a1,a1
9d0054b4:	00a22823 	subu	a1,a1,v0
9d0054b8:	240cffff 	li	t4,-1
9d0054bc:	04e10006 	bgez	a3,9d0054d8 <__moddi3+0x38>
9d0054c0:	00c04825 	move	t1,a2
9d0054c4:	00063023 	negu	a2,a2
9d0054c8:	0006102b 	sltu	v0,zero,a2
9d0054cc:	00073823 	negu	a3,a3
9d0054d0:	00e23823 	subu	a3,a3,v0
9d0054d4:	00c04825 	move	t1,a2
9d0054d8:	00801025 	move	v0,a0
9d0054dc:	14e000a1 	bnez	a3,9d005764 <__moddi3+0x2c4>
9d0054e0:	00a01825 	move	v1,a1
9d0054e4:	00a6302b 	sltu	a2,a1,a2
9d0054e8:	10c0003b 	beqz	a2,9d0055d8 <__moddi3+0x138>
9d0054ec:	712a5020 	clz	t2,t1
9d0054f0:	51400008 	beqzl	t2,9d005514 <__moddi3+0x74>
9d0054f4:	00092402 	srl	a0,t1,0x10
9d0054f8:	01451804 	sllv	v1,a1,t2
9d0054fc:	000a2823 	negu	a1,t2
9d005500:	00a42806 	srlv	a1,a0,a1
9d005504:	01494804 	sllv	t1,t1,t2
9d005508:	00a31825 	or	v1,a1,v1
9d00550c:	01441004 	sllv	v0,a0,t2
9d005510:	00092402 	srl	a0,t1,0x10
9d005514:	0064001b 	divu	zero,v1,a0
9d005518:	008001f4 	teq	a0,zero,0x7
9d00551c:	3127ffff 	andi	a3,t1,0xffff
9d005520:	00001812 	mflo	v1
9d005524:	00002810 	mfhi	a1
9d005528:	70673002 	mul	a2,v1,a3
9d00552c:	00051c00 	sll	v1,a1,0x10
9d005530:	00022c02 	srl	a1,v0,0x10
9d005534:	00651825 	or	v1,v1,a1
9d005538:	0066282b 	sltu	a1,v1,a2
9d00553c:	50a00009 	beqzl	a1,9d005564 <__moddi3+0xc4>
9d005540:	00661823 	subu	v1,v1,a2
9d005544:	00691821 	addu	v1,v1,t1
9d005548:	0069282b 	sltu	a1,v1,t1
9d00554c:	54a00005 	bnezl	a1,9d005564 <__moddi3+0xc4>
9d005550:	00661823 	subu	v1,v1,a2
9d005554:	0066282b 	sltu	a1,v1,a2
9d005558:	54a00001 	bnezl	a1,9d005560 <__moddi3+0xc0>
9d00555c:	00691821 	addu	v1,v1,t1
9d005560:	00661823 	subu	v1,v1,a2
9d005564:	0064001b 	divu	zero,v1,a0
9d005568:	008001f4 	teq	a0,zero,0x7
9d00556c:	3042ffff 	andi	v0,v0,0xffff
9d005570:	00001812 	mflo	v1
9d005574:	00003010 	mfhi	a2
9d005578:	70672002 	mul	a0,v1,a3
9d00557c:	00061c00 	sll	v1,a2,0x10
9d005580:	00621025 	or	v0,v1,v0
9d005584:	0044182b 	sltu	v1,v0,a0
9d005588:	50600009 	beqzl	v1,9d0055b0 <__moddi3+0x110>
9d00558c:	00441023 	subu	v0,v0,a0
9d005590:	00491021 	addu	v0,v0,t1
9d005594:	0049182b 	sltu	v1,v0,t1
9d005598:	54600005 	bnezl	v1,9d0055b0 <__moddi3+0x110>
9d00559c:	00441023 	subu	v0,v0,a0
9d0055a0:	0044182b 	sltu	v1,v0,a0
9d0055a4:	54600001 	bnezl	v1,9d0055ac <__moddi3+0x10c>
9d0055a8:	00491021 	addu	v0,v0,t1
9d0055ac:	00441023 	subu	v0,v0,a0
9d0055b0:	01421006 	srlv	v0,v0,t2
9d0055b4:	00001825 	move	v1,zero
9d0055b8:	11800005 	beqz	t4,9d0055d0 <__moddi3+0x130>
9d0055bc:	00000000 	nop
9d0055c0:	00021023 	negu	v0,v0
9d0055c4:	0002202b 	sltu	a0,zero,v0
9d0055c8:	00031823 	negu	v1,v1
9d0055cc:	00641823 	subu	v1,v1,a0
9d0055d0:	03e00008 	jr	ra
9d0055d4:	00000000 	nop
9d0055d8:	15200006 	bnez	t1,9d0055f4 <__moddi3+0x154>
9d0055dc:	00000000 	nop
9d0055e0:	24090001 	li	t1,1
9d0055e4:	0127001b 	divu	zero,t1,a3
9d0055e8:	00e001f4 	teq	a3,zero,0x7
9d0055ec:	00004812 	mflo	t1
9d0055f0:	712a5020 	clz	t2,t1
9d0055f4:	1540002b 	bnez	t2,9d0056a4 <__moddi3+0x204>
9d0055f8:	24070020 	li	a3,32
9d0055fc:	00a92823 	subu	a1,a1,t1
9d005600:	00092402 	srl	a0,t1,0x10
9d005604:	00a4001b 	divu	zero,a1,a0
9d005608:	008001f4 	teq	a0,zero,0x7
9d00560c:	3127ffff 	andi	a3,t1,0xffff
9d005610:	00002812 	mflo	a1
9d005614:	00001810 	mfhi	v1
9d005618:	70a73002 	mul	a2,a1,a3
9d00561c:	00032c00 	sll	a1,v1,0x10
9d005620:	00021c02 	srl	v1,v0,0x10
9d005624:	00a32825 	or	a1,a1,v1
9d005628:	00a6182b 	sltu	v1,a1,a2
9d00562c:	50600009 	beqzl	v1,9d005654 <__moddi3+0x1b4>
9d005630:	00a63023 	subu	a2,a1,a2
9d005634:	00a92821 	addu	a1,a1,t1
9d005638:	00a9182b 	sltu	v1,a1,t1
9d00563c:	54600005 	bnezl	v1,9d005654 <__moddi3+0x1b4>
9d005640:	00a63023 	subu	a2,a1,a2
9d005644:	00a6182b 	sltu	v1,a1,a2
9d005648:	54600001 	bnezl	v1,9d005650 <__moddi3+0x1b0>
9d00564c:	00a92821 	addu	a1,a1,t1
9d005650:	00a63023 	subu	a2,a1,a2
9d005654:	00c4001b 	divu	zero,a2,a0
9d005658:	008001f4 	teq	a0,zero,0x7
9d00565c:	3042ffff 	andi	v0,v0,0xffff
9d005660:	00003012 	mflo	a2
9d005664:	00002810 	mfhi	a1
9d005668:	70c71802 	mul	v1,a2,a3
9d00566c:	00053400 	sll	a2,a1,0x10
9d005670:	00c21025 	or	v0,a2,v0
9d005674:	0043202b 	sltu	a0,v0,v1
9d005678:	5080ffcd 	beqzl	a0,9d0055b0 <__moddi3+0x110>
9d00567c:	00431023 	subu	v0,v0,v1
9d005680:	00491021 	addu	v0,v0,t1
9d005684:	0049202b 	sltu	a0,v0,t1
9d005688:	5480ffc9 	bnezl	a0,9d0055b0 <__moddi3+0x110>
9d00568c:	00431023 	subu	v0,v0,v1
9d005690:	0043202b 	sltu	a0,v0,v1
9d005694:	54800001 	bnezl	a0,9d00569c <__moddi3+0x1fc>
9d005698:	00491021 	addu	v0,v0,t1
9d00569c:	1000ffc4 	b	9d0055b0 <__moddi3+0x110>
9d0056a0:	00431023 	subu	v0,v0,v1
9d0056a4:	00ea3823 	subu	a3,a3,t2
9d0056a8:	01494804 	sllv	t1,t1,t2
9d0056ac:	00e41806 	srlv	v1,a0,a3
9d0056b0:	00093402 	srl	a2,t1,0x10
9d0056b4:	00e53806 	srlv	a3,a1,a3
9d0056b8:	00e6001b 	divu	zero,a3,a2
9d0056bc:	00c001f4 	teq	a2,zero,0x7
9d0056c0:	01451004 	sllv	v0,a1,t2
9d0056c4:	312bffff 	andi	t3,t1,0xffff
9d0056c8:	00621825 	or	v1,v1,v0
9d0056cc:	01441004 	sllv	v0,a0,t2
9d0056d0:	00032c02 	srl	a1,v1,0x10
9d0056d4:	00003812 	mflo	a3
9d0056d8:	00002010 	mfhi	a0
9d0056dc:	70eb4002 	mul	t0,a3,t3
9d0056e0:	00043c00 	sll	a3,a0,0x10
9d0056e4:	00e53825 	or	a3,a3,a1
9d0056e8:	00e8202b 	sltu	a0,a3,t0
9d0056ec:	50800009 	beqzl	a0,9d005714 <__moddi3+0x274>
9d0056f0:	00e83823 	subu	a3,a3,t0
9d0056f4:	00e93821 	addu	a3,a3,t1
9d0056f8:	00e9202b 	sltu	a0,a3,t1
9d0056fc:	54800005 	bnezl	a0,9d005714 <__moddi3+0x274>
9d005700:	00e83823 	subu	a3,a3,t0
9d005704:	00e8202b 	sltu	a0,a3,t0
9d005708:	54800001 	bnezl	a0,9d005710 <__moddi3+0x270>
9d00570c:	00e93821 	addu	a3,a3,t1
9d005710:	00e83823 	subu	a3,a3,t0
9d005714:	00e6001b 	divu	zero,a3,a2
9d005718:	00c001f4 	teq	a2,zero,0x7
9d00571c:	3065ffff 	andi	a1,v1,0xffff
9d005720:	00003012 	mflo	a2
9d005724:	00003810 	mfhi	a3
9d005728:	00073c00 	sll	a3,a3,0x10
9d00572c:	00e52825 	or	a1,a3,a1
9d005730:	70cb3002 	mul	a2,a2,t3
9d005734:	00a6182b 	sltu	v1,a1,a2
9d005738:	5060ffb1 	beqzl	v1,9d005600 <__moddi3+0x160>
9d00573c:	00a62823 	subu	a1,a1,a2
9d005740:	00a92821 	addu	a1,a1,t1
9d005744:	00a9182b 	sltu	v1,a1,t1
9d005748:	5460ffad 	bnezl	v1,9d005600 <__moddi3+0x160>
9d00574c:	00a62823 	subu	a1,a1,a2
9d005750:	00a6182b 	sltu	v1,a1,a2
9d005754:	54600001 	bnezl	v1,9d00575c <__moddi3+0x2bc>
9d005758:	00a92821 	addu	a1,a1,t1
9d00575c:	1000ffa8 	b	9d005600 <__moddi3+0x160>
9d005760:	00a62823 	subu	a1,a1,a2
9d005764:	00a7402b 	sltu	t0,a1,a3
9d005768:	1500ff93 	bnez	t0,9d0055b8 <__moddi3+0x118>
9d00576c:	70ed6820 	clz	t5,a3
9d005770:	15a0000c 	bnez	t5,9d0057a4 <__moddi3+0x304>
9d005774:	240b0020 	li	t3,32
9d005778:	00e5402b 	sltu	t0,a3,a1
9d00577c:	55000005 	bnezl	t0,9d005794 <__moddi3+0x2f4>
9d005780:	00861023 	subu	v0,a0,a2
9d005784:	0086402b 	sltu	t0,a0,a2
9d005788:	1500ff8b 	bnez	t0,9d0055b8 <__moddi3+0x118>
9d00578c:	00000000 	nop
9d005790:	00861023 	subu	v0,a0,a2
9d005794:	00a72823 	subu	a1,a1,a3
9d005798:	0082182b 	sltu	v1,a0,v0
9d00579c:	1000ff86 	b	9d0055b8 <__moddi3+0x118>
9d0057a0:	00a31823 	subu	v1,a1,v1
9d0057a4:	016d5823 	subu	t3,t3,t5
9d0057a8:	01664006 	srlv	t0,a2,t3
9d0057ac:	01a73804 	sllv	a3,a3,t5
9d0057b0:	01073825 	or	a3,t0,a3
9d0057b4:	01a51004 	sllv	v0,a1,t5
9d0057b8:	00074c02 	srl	t1,a3,0x10
9d0057bc:	01652806 	srlv	a1,a1,t3
9d0057c0:	00a9001b 	divu	zero,a1,t1
9d0057c4:	012001f4 	teq	t1,zero,0x7
9d0057c8:	01644006 	srlv	t0,a0,t3
9d0057cc:	01021025 	or	v0,t0,v0
9d0057d0:	30e8ffff 	andi	t0,a3,0xffff
9d0057d4:	01a6c004 	sllv	t8,a2,t5
9d0057d8:	00023402 	srl	a2,v0,0x10
9d0057dc:	01a42004 	sllv	a0,a0,t5
9d0057e0:	00002812 	mflo	a1
9d0057e4:	00005010 	mfhi	t2
9d0057e8:	000a5400 	sll	t2,t2,0x10
9d0057ec:	01465025 	or	t2,t2,a2
9d0057f0:	71051802 	mul	v1,t0,a1
9d0057f4:	0143302b 	sltu	a2,t2,v1
9d0057f8:	10c0000a 	beqz	a2,9d005824 <__moddi3+0x384>
9d0057fc:	00a07825 	move	t7,a1
9d005800:	01475021 	addu	t2,t2,a3
9d005804:	0147302b 	sltu	a2,t2,a3
9d005808:	14c00006 	bnez	a2,9d005824 <__moddi3+0x384>
9d00580c:	24afffff 	addiu	t7,a1,-1
9d005810:	0143302b 	sltu	a2,t2,v1
9d005814:	50c00004 	beqzl	a2,9d005828 <__moddi3+0x388>
9d005818:	01435023 	subu	t2,t2,v1
9d00581c:	24affffe 	addiu	t7,a1,-2
9d005820:	01475021 	addu	t2,t2,a3
9d005824:	01435023 	subu	t2,t2,v1
9d005828:	0149001b 	divu	zero,t2,t1
9d00582c:	012001f4 	teq	t1,zero,0x7
9d005830:	00004812 	mflo	t1
9d005834:	00005010 	mfhi	t2
9d005838:	000a5400 	sll	t2,t2,0x10
9d00583c:	71091802 	mul	v1,t0,t1
9d005840:	3048ffff 	andi	t0,v0,0xffff
9d005844:	01484025 	or	t0,t2,t0
9d005848:	0103282b 	sltu	a1,t0,v1
9d00584c:	10a0000a 	beqz	a1,9d005878 <__moddi3+0x3d8>
9d005850:	01201025 	move	v0,t1
9d005854:	01074021 	addu	t0,t0,a3
9d005858:	0107282b 	sltu	a1,t0,a3
9d00585c:	14a00006 	bnez	a1,9d005878 <__moddi3+0x3d8>
9d005860:	2522ffff 	addiu	v0,t1,-1
9d005864:	0103282b 	sltu	a1,t0,v1
9d005868:	10a00004 	beqz	a1,9d00587c <__moddi3+0x3dc>
9d00586c:	000f7400 	sll	t6,t7,0x10
9d005870:	2522fffe 	addiu	v0,t1,-2
9d005874:	01074021 	addu	t0,t0,a3
9d005878:	000f7400 	sll	t6,t7,0x10
9d00587c:	01c27025 	or	t6,t6,v0
9d005880:	01d80019 	multu	t6,t8
9d005884:	01034023 	subu	t0,t0,v1
9d005888:	00007810 	mfhi	t7
9d00588c:	010f102b 	sltu	v0,t0,t7
9d005890:	01e01825 	move	v1,t7
9d005894:	00007012 	mflo	t6
9d005898:	14400006 	bnez	v0,9d0058b4 <__moddi3+0x414>
9d00589c:	00003012 	mflo	a2
9d0058a0:	150f0009 	bne	t0,t7,9d0058c8 <__moddi3+0x428>
9d0058a4:	00863023 	subu	a2,a0,a2
9d0058a8:	008e102b 	sltu	v0,a0,t6
9d0058ac:	50400007 	beqzl	v0,9d0058cc <__moddi3+0x42c>
9d0058b0:	01034023 	subu	t0,t0,v1
9d0058b4:	01d83023 	subu	a2,t6,t8
9d0058b8:	01e73823 	subu	a3,t7,a3
9d0058bc:	01c6702b 	sltu	t6,t6,a2
9d0058c0:	00ee1823 	subu	v1,a3,t6
9d0058c4:	00863023 	subu	a2,a0,a2
9d0058c8:	01034023 	subu	t0,t0,v1
9d0058cc:	0086182b 	sltu	v1,a0,a2
9d0058d0:	01031823 	subu	v1,t0,v1
9d0058d4:	01631004 	sllv	v0,v1,t3
9d0058d8:	01a63006 	srlv	a2,a2,t5
9d0058dc:	00461025 	or	v0,v0,a2
9d0058e0:	1000ff35 	b	9d0055b8 <__moddi3+0x118>
9d0058e4:	01a31806 	srlv	v1,v1,t5

9d0058e8 <__divdi3>:
9d0058e8:	04a10007 	bgez	a1,9d005908 <__divdi3+0x20>
9d0058ec:	00004825 	move	t1,zero
9d0058f0:	00041023 	negu	v0,a0
9d0058f4:	0002402b 	sltu	t0,zero,v0
9d0058f8:	00052823 	negu	a1,a1
9d0058fc:	00402025 	move	a0,v0
9d005900:	00a82823 	subu	a1,a1,t0
9d005904:	2409ffff 	li	t1,-1
9d005908:	04e10007 	bgez	a3,9d005928 <__divdi3+0x40>
9d00590c:	00c04025 	move	t0,a2
9d005910:	00063023 	negu	a2,a2
9d005914:	0006102b 	sltu	v0,zero,a2
9d005918:	00073823 	negu	a3,a3
9d00591c:	00094827 	nor	t1,zero,t1
9d005920:	00e23823 	subu	a3,a3,v0
9d005924:	00c04025 	move	t0,a2
9d005928:	00e01825 	move	v1,a3
9d00592c:	00805025 	move	t2,a0
9d005930:	14e000aa 	bnez	a3,9d005bdc <__divdi3+0x2f4>
9d005934:	00a01025 	move	v0,a1
9d005938:	00a6302b 	sltu	a2,a1,a2
9d00593c:	10c0003b 	beqz	a2,9d005a2c <__divdi3+0x144>
9d005940:	00000000 	nop
9d005944:	71052820 	clz	a1,t0
9d005948:	50a00008 	beqzl	a1,9d00596c <__divdi3+0x84>
9d00594c:	00082c02 	srl	a1,t0,0x10
9d005950:	00a22004 	sllv	a0,v0,a1
9d005954:	00051023 	negu	v0,a1
9d005958:	004a1006 	srlv	v0,t2,v0
9d00595c:	00a84004 	sllv	t0,t0,a1
9d005960:	00441025 	or	v0,v0,a0
9d005964:	00aa5004 	sllv	t2,t2,a1
9d005968:	00082c02 	srl	a1,t0,0x10
9d00596c:	0045001b 	divu	zero,v0,a1
9d005970:	00a001f4 	teq	a1,zero,0x7
9d005974:	310bffff 	andi	t3,t0,0xffff
9d005978:	000a1402 	srl	v0,t2,0x10
9d00597c:	00003812 	mflo	a3
9d005980:	00002010 	mfhi	a0
9d005984:	00042400 	sll	a0,a0,0x10
9d005988:	00821025 	or	v0,a0,v0
9d00598c:	71676002 	mul	t4,t3,a3
9d005990:	004c202b 	sltu	a0,v0,t4
9d005994:	1080000a 	beqz	a0,9d0059c0 <__divdi3+0xd8>
9d005998:	00e03025 	move	a2,a3
9d00599c:	00481021 	addu	v0,v0,t0
9d0059a0:	0048202b 	sltu	a0,v0,t0
9d0059a4:	14800006 	bnez	a0,9d0059c0 <__divdi3+0xd8>
9d0059a8:	24e6ffff 	addiu	a2,a3,-1
9d0059ac:	004c202b 	sltu	a0,v0,t4
9d0059b0:	50800004 	beqzl	a0,9d0059c4 <__divdi3+0xdc>
9d0059b4:	004c1023 	subu	v0,v0,t4
9d0059b8:	24e6fffe 	addiu	a2,a3,-2
9d0059bc:	00481021 	addu	v0,v0,t0
9d0059c0:	004c1023 	subu	v0,v0,t4
9d0059c4:	0045001b 	divu	zero,v0,a1
9d0059c8:	00a001f4 	teq	a1,zero,0x7
9d0059cc:	314affff 	andi	t2,t2,0xffff
9d0059d0:	00001012 	mflo	v0
9d0059d4:	00002810 	mfhi	a1
9d0059d8:	00052c00 	sll	a1,a1,0x10
9d0059dc:	00aa5025 	or	t2,a1,t2
9d0059e0:	71625802 	mul	t3,t3,v0
9d0059e4:	014b282b 	sltu	a1,t2,t3
9d0059e8:	10a00006 	beqz	a1,9d005a04 <__divdi3+0x11c>
9d0059ec:	00402025 	move	a0,v0
9d0059f0:	010a5021 	addu	t2,t0,t2
9d0059f4:	0148402b 	sltu	t0,t2,t0
9d0059f8:	2444ffff 	addiu	a0,v0,-1
9d0059fc:	1100003d 	beqz	t0,9d005af4 <__divdi3+0x20c>
9d005a00:	014b502b 	sltu	t2,t2,t3
9d005a04:	00061400 	sll	v0,a2,0x10
9d005a08:	00441025 	or	v0,v0,a0
9d005a0c:	11200005 	beqz	t1,9d005a24 <__divdi3+0x13c>
9d005a10:	00000000 	nop
9d005a14:	00021023 	negu	v0,v0
9d005a18:	0002202b 	sltu	a0,zero,v0
9d005a1c:	00031823 	negu	v1,v1
9d005a20:	00641823 	subu	v1,v1,a0
9d005a24:	03e00008 	jr	ra
9d005a28:	00000000 	nop
9d005a2c:	15000006 	bnez	t0,9d005a48 <__divdi3+0x160>
9d005a30:	71021020 	clz	v0,t0
9d005a34:	24080001 	li	t0,1
9d005a38:	0107001b 	divu	zero,t0,a3
9d005a3c:	00e001f4 	teq	a3,zero,0x7
9d005a40:	00004012 	mflo	t0
9d005a44:	71021020 	clz	v0,t0
9d005a48:	1440002e 	bnez	v0,9d005b04 <__divdi3+0x21c>
9d005a4c:	24030020 	li	v1,32
9d005a50:	00a82823 	subu	a1,a1,t0
9d005a54:	24030001 	li	v1,1
9d005a58:	00083c02 	srl	a3,t0,0x10
9d005a5c:	00a7001b 	divu	zero,a1,a3
9d005a60:	00e001f4 	teq	a3,zero,0x7
9d005a64:	310bffff 	andi	t3,t0,0xffff
9d005a68:	000a1402 	srl	v0,t2,0x10
9d005a6c:	00002812 	mflo	a1
9d005a70:	00002010 	mfhi	a0
9d005a74:	00042400 	sll	a0,a0,0x10
9d005a78:	00821025 	or	v0,a0,v0
9d005a7c:	71656002 	mul	t4,t3,a1
9d005a80:	004c202b 	sltu	a0,v0,t4
9d005a84:	1080000a 	beqz	a0,9d005ab0 <__divdi3+0x1c8>
9d005a88:	00a03025 	move	a2,a1
9d005a8c:	00481021 	addu	v0,v0,t0
9d005a90:	0048202b 	sltu	a0,v0,t0
9d005a94:	14800006 	bnez	a0,9d005ab0 <__divdi3+0x1c8>
9d005a98:	24a6ffff 	addiu	a2,a1,-1
9d005a9c:	004c202b 	sltu	a0,v0,t4
9d005aa0:	50800004 	beqzl	a0,9d005ab4 <__divdi3+0x1cc>
9d005aa4:	004c1023 	subu	v0,v0,t4
9d005aa8:	24a6fffe 	addiu	a2,a1,-2
9d005aac:	00481021 	addu	v0,v0,t0
9d005ab0:	004c1023 	subu	v0,v0,t4
9d005ab4:	0047001b 	divu	zero,v0,a3
9d005ab8:	00e001f4 	teq	a3,zero,0x7
9d005abc:	314affff 	andi	t2,t2,0xffff
9d005ac0:	00001012 	mflo	v0
9d005ac4:	00003810 	mfhi	a3
9d005ac8:	00073c00 	sll	a3,a3,0x10
9d005acc:	00ea5025 	or	t2,a3,t2
9d005ad0:	71622802 	mul	a1,t3,v0
9d005ad4:	0145382b 	sltu	a3,t2,a1
9d005ad8:	10e0ffca 	beqz	a3,9d005a04 <__divdi3+0x11c>
9d005adc:	00402025 	move	a0,v0
9d005ae0:	010a5021 	addu	t2,t0,t2
9d005ae4:	0148402b 	sltu	t0,t2,t0
9d005ae8:	1500ffc6 	bnez	t0,9d005a04 <__divdi3+0x11c>
9d005aec:	2444ffff 	addiu	a0,v0,-1
9d005af0:	0145502b 	sltu	t2,t2,a1
9d005af4:	5540ffc3 	bnezl	t2,9d005a04 <__divdi3+0x11c>
9d005af8:	2444fffe 	addiu	a0,v0,-2
9d005afc:	1000ffc2 	b	9d005a08 <__divdi3+0x120>
9d005b00:	00061400 	sll	v0,a2,0x10
9d005b04:	00621823 	subu	v1,v1,v0
9d005b08:	00484004 	sllv	t0,t0,v0
9d005b0c:	00453004 	sllv	a2,a1,v0
9d005b10:	00445004 	sllv	t2,a0,v0
9d005b14:	00652806 	srlv	a1,a1,v1
9d005b18:	00081402 	srl	v0,t0,0x10
9d005b1c:	00a2001b 	divu	zero,a1,v0
9d005b20:	004001f4 	teq	v0,zero,0x7
9d005b24:	3107ffff 	andi	a3,t0,0xffff
9d005b28:	00645806 	srlv	t3,a0,v1
9d005b2c:	01665825 	or	t3,t3,a2
9d005b30:	000b3402 	srl	a2,t3,0x10
9d005b34:	00002812 	mflo	a1
9d005b38:	00002010 	mfhi	a0
9d005b3c:	00042400 	sll	a0,a0,0x10
9d005b40:	00862025 	or	a0,a0,a2
9d005b44:	70e51802 	mul	v1,a3,a1
9d005b48:	0083602b 	sltu	t4,a0,v1
9d005b4c:	1180000a 	beqz	t4,9d005b78 <__divdi3+0x290>
9d005b50:	00a03025 	move	a2,a1
9d005b54:	00882021 	addu	a0,a0,t0
9d005b58:	0088602b 	sltu	t4,a0,t0
9d005b5c:	15800006 	bnez	t4,9d005b78 <__divdi3+0x290>
9d005b60:	24a6ffff 	addiu	a2,a1,-1
9d005b64:	0083602b 	sltu	t4,a0,v1
9d005b68:	51800004 	beqzl	t4,9d005b7c <__divdi3+0x294>
9d005b6c:	00832023 	subu	a0,a0,v1
9d005b70:	24a6fffe 	addiu	a2,a1,-2
9d005b74:	00882021 	addu	a0,a0,t0
9d005b78:	00832023 	subu	a0,a0,v1
9d005b7c:	0082001b 	divu	zero,a0,v0
9d005b80:	004001f4 	teq	v0,zero,0x7
9d005b84:	3165ffff 	andi	a1,t3,0xffff
9d005b88:	00001012 	mflo	v0
9d005b8c:	00002010 	mfhi	a0
9d005b90:	00042400 	sll	a0,a0,0x10
9d005b94:	00852825 	or	a1,a0,a1
9d005b98:	70e23802 	mul	a3,a3,v0
9d005b9c:	00a7182b 	sltu	v1,a1,a3
9d005ba0:	1060000a 	beqz	v1,9d005bcc <__divdi3+0x2e4>
9d005ba4:	00402025 	move	a0,v0
9d005ba8:	00a82821 	addu	a1,a1,t0
9d005bac:	00a8182b 	sltu	v1,a1,t0
9d005bb0:	14600006 	bnez	v1,9d005bcc <__divdi3+0x2e4>
9d005bb4:	2444ffff 	addiu	a0,v0,-1
9d005bb8:	00a7182b 	sltu	v1,a1,a3
9d005bbc:	50600004 	beqzl	v1,9d005bd0 <__divdi3+0x2e8>
9d005bc0:	00061c00 	sll	v1,a2,0x10
9d005bc4:	2444fffe 	addiu	a0,v0,-2
9d005bc8:	00a82821 	addu	a1,a1,t0
9d005bcc:	00061c00 	sll	v1,a2,0x10
9d005bd0:	00a72823 	subu	a1,a1,a3
9d005bd4:	1000ffa0 	b	9d005a58 <__divdi3+0x170>
9d005bd8:	00641825 	or	v1,v1,a0
9d005bdc:	00a7102b 	sltu	v0,a1,a3
9d005be0:	1440004f 	bnez	v0,9d005d20 <__divdi3+0x438>
9d005be4:	00001825 	move	v1,zero
9d005be8:	70eb5820 	clz	t3,a3
9d005bec:	15600008 	bnez	t3,9d005c10 <__divdi3+0x328>
9d005bf0:	240a0020 	li	t2,32
9d005bf4:	00e5282b 	sltu	a1,a3,a1
9d005bf8:	54a0ff84 	bnezl	a1,9d005a0c <__divdi3+0x124>
9d005bfc:	24020001 	li	v0,1
9d005c00:	0086102b 	sltu	v0,a0,a2
9d005c04:	38420001 	xori	v0,v0,0x1
9d005c08:	1000ff80 	b	9d005a0c <__divdi3+0x124>
9d005c0c:	00001825 	move	v1,zero
9d005c10:	014b5023 	subu	t2,t2,t3
9d005c14:	01461006 	srlv	v0,a2,t2
9d005c18:	01673804 	sllv	a3,a3,t3
9d005c1c:	00473825 	or	a3,v0,a3
9d005c20:	00074402 	srl	t0,a3,0x10
9d005c24:	01651004 	sllv	v0,a1,t3
9d005c28:	01452806 	srlv	a1,a1,t2
9d005c2c:	00a8001b 	divu	zero,a1,t0
9d005c30:	010001f4 	teq	t0,zero,0x7
9d005c34:	01446806 	srlv	t5,a0,t2
9d005c38:	30ecffff 	andi	t4,a3,0xffff
9d005c3c:	01a26825 	or	t5,t5,v0
9d005c40:	000d1c02 	srl	v1,t5,0x10
9d005c44:	01663004 	sllv	a2,a2,t3
9d005c48:	00002812 	mflo	a1
9d005c4c:	00005010 	mfhi	t2
9d005c50:	000a5400 	sll	t2,t2,0x10
9d005c54:	01435025 	or	t2,t2,v1
9d005c58:	71851002 	mul	v0,t4,a1
9d005c5c:	0142702b 	sltu	t6,t2,v0
9d005c60:	11c0000a 	beqz	t6,9d005c8c <__divdi3+0x3a4>
9d005c64:	00a01825 	move	v1,a1
9d005c68:	01475021 	addu	t2,t2,a3
9d005c6c:	0147702b 	sltu	t6,t2,a3
9d005c70:	15c00006 	bnez	t6,9d005c8c <__divdi3+0x3a4>
9d005c74:	24a3ffff 	addiu	v1,a1,-1
9d005c78:	0142702b 	sltu	t6,t2,v0
9d005c7c:	51c00004 	beqzl	t6,9d005c90 <__divdi3+0x3a8>
9d005c80:	01425023 	subu	t2,t2,v0
9d005c84:	24a3fffe 	addiu	v1,a1,-2
9d005c88:	01475021 	addu	t2,t2,a3
9d005c8c:	01425023 	subu	t2,t2,v0
9d005c90:	0148001b 	divu	zero,t2,t0
9d005c94:	010001f4 	teq	t0,zero,0x7
9d005c98:	31a5ffff 	andi	a1,t5,0xffff
9d005c9c:	00004012 	mflo	t0
9d005ca0:	00005010 	mfhi	t2
9d005ca4:	000a5400 	sll	t2,t2,0x10
9d005ca8:	01452825 	or	a1,t2,a1
9d005cac:	71886002 	mul	t4,t4,t0
9d005cb0:	00ac102b 	sltu	v0,a1,t4
9d005cb4:	1040000a 	beqz	v0,9d005ce0 <__divdi3+0x3f8>
9d005cb8:	01005025 	move	t2,t0
9d005cbc:	00a72821 	addu	a1,a1,a3
9d005cc0:	00a7102b 	sltu	v0,a1,a3
9d005cc4:	14400006 	bnez	v0,9d005ce0 <__divdi3+0x3f8>
9d005cc8:	250affff 	addiu	t2,t0,-1
9d005ccc:	00ac102b 	sltu	v0,a1,t4
9d005cd0:	10400004 	beqz	v0,9d005ce4 <__divdi3+0x3fc>
9d005cd4:	00031400 	sll	v0,v1,0x10
9d005cd8:	250afffe 	addiu	t2,t0,-2
9d005cdc:	00a72821 	addu	a1,a1,a3
9d005ce0:	00031400 	sll	v0,v1,0x10
9d005ce4:	004a1025 	or	v0,v0,t2
9d005ce8:	00460019 	multu	v0,a2
9d005cec:	00ac2823 	subu	a1,a1,t4
9d005cf0:	00003810 	mfhi	a3
9d005cf4:	00a7182b 	sltu	v1,a1,a3
9d005cf8:	14600007 	bnez	v1,9d005d18 <__divdi3+0x430>
9d005cfc:	00003012 	mflo	a2
9d005d00:	14a7ff42 	bne	a1,a3,9d005a0c <__divdi3+0x124>
9d005d04:	00001825 	move	v1,zero
9d005d08:	01642004 	sllv	a0,a0,t3
9d005d0c:	0086202b 	sltu	a0,a0,a2
9d005d10:	1080ff3e 	beqz	a0,9d005a0c <__divdi3+0x124>
9d005d14:	00000000 	nop
9d005d18:	1000ffbb 	b	9d005c08 <__divdi3+0x320>
9d005d1c:	2442ffff 	addiu	v0,v0,-1
9d005d20:	1000ff3a 	b	9d005a0c <__divdi3+0x124>
9d005d24:	00001025 	move	v0,zero

Disassembly of section .text.dp32subadd:

9d005d28 <__subdf3>:
9d005d28:	3c018000 00e13826                       ...<&8..

9d005d30 <__adddf3>:
9d005d30:	00055840 000b5d42 000552c0 00047d42     @X..B]...R..B}..
9d005d40:	014f5025 00044ac0 3c088000 01485025     %PO..J.....<%PH.
9d005d50:	00077040 000e7542 00076ac0 00067d42     @p..Bu...j..B}..
9d005d60:	01af6825 000662c0 01a86825 256fffff     %h...b..%h....o%
9d005d70:	2de107fe 1020008d 00000000              ...-.. .....

9d005d7c <Blab1>:
9d005d7c:	25cfffff 	addiu	t7,t6,-1
9d005d80:	2de107fe 	sltiu	at,t7,2046
9d005d84:	102000bb 	beqz	at,9d006074 <BspecB>
9d005d88:	00000000 	nop

9d005d8c <Blab2>:
9d005d8c:	3c018000 	lui	at,0x8000
9d005d90:	00a12824 	and	a1,a1,at
9d005d94:	016e4023 	subu	t0,t3,t6
9d005d98:	1100002c 	beqz	t0,9d005e4c <Badd3>
9d005d9c:	00000000 	nop
9d005da0:	19000015 	blez	t0,9d005df8 <i1>
9d005da4:	00000000 	nop

9d005da8 <L1>:
9d005da8:	2d010020 	sltiu	at,t0,32
9d005dac:	14200007 	bnez	at,9d005dcc <L2>
9d005db0:	00000000 	nop
9d005db4:	2108ffe0 	addi	t0,t0,-32
9d005db8:	000c302b 	sltu	a2,zero,t4
9d005dbc:	100d0023 	beq	zero,t5,9d005e4c <Badd3>
9d005dc0:	01a66025 	or	t4,t5,a2
9d005dc4:	1000fff8 	b	9d005da8 <L1>
9d005dc8:	340d0000 	li	t5,0x0

9d005dcc <L2>:
9d005dcc:	1100001f 	beqz	t0,9d005e4c <Badd3>
9d005dd0:	00000000 	nop
9d005dd4:	00082022 	neg	a0,t0
9d005dd8:	008c3004 	sllv	a2,t4,a0
9d005ddc:	008d2004 	sllv	a0,t5,a0
9d005de0:	010c6006 	srlv	t4,t4,t0
9d005de4:	010d6806 	srlv	t5,t5,t0
9d005de8:	10c00018 	beqz	a2,9d005e4c <Badd3>
9d005dec:	008c6025 	or	t4,a0,t4
9d005df0:	10000016 	b	9d005e4c <Badd3>
9d005df4:	358c0002 	ori	t4,t4,0x2

9d005df8 <i1>:
9d005df8:	000e5825 	or	t3,zero,t6
9d005dfc:	00084023 	negu	t0,t0

9d005e00 <L4>:
9d005e00:	2d010020 	sltiu	at,t0,32
9d005e04:	14200007 	bnez	at,9d005e24 <L5>
9d005e08:	00000000 	nop
9d005e0c:	2108ffe0 	addi	t0,t0,-32
9d005e10:	0009302b 	sltu	a2,zero,t1
9d005e14:	100a000d 	beq	zero,t2,9d005e4c <Badd3>
9d005e18:	01464825 	or	t1,t2,a2
9d005e1c:	1000fff8 	b	9d005e00 <L4>
9d005e20:	340a0000 	li	t2,0x0

9d005e24 <L5>:
9d005e24:	11000009 	beqz	t0,9d005e4c <Badd3>
9d005e28:	00000000 	nop
9d005e2c:	00082022 	neg	a0,t0
9d005e30:	00893004 	sllv	a2,t1,a0
9d005e34:	008a2004 	sllv	a0,t2,a0
9d005e38:	01094806 	srlv	t1,t1,t0
9d005e3c:	010a5006 	srlv	t2,t2,t0
9d005e40:	10c00002 	beqz	a2,9d005e4c <Badd3>
9d005e44:	00894825 	or	t1,a0,t1
9d005e48:	35290002 	ori	t1,t1,0x2

9d005e4c <Badd3>:
9d005e4c:	00a77826 	xor	t7,a1,a3
9d005e50:	05e0001c 	bltz	t7,9d005ec4 <Bsub1>
9d005e54:	00000000 	nop
9d005e58:	012c4821 	addu	t1,t1,t4
9d005e5c:	012c782b 	sltu	t7,t1,t4
9d005e60:	014d5021 	addu	t2,t2,t5
9d005e64:	014f5021 	addu	t2,t2,t7
9d005e68:	114d0002 	beq	t2,t5,9d005e74 <L7>
9d005e6c:	00000000 	nop
9d005e70:	014d782b 	sltu	t7,t2,t5

9d005e74 <L7>:
9d005e74:	11e00037 	beqz	t7,9d005f54 <Bres>
9d005e78:	00000000 	nop
9d005e7c:	312f0001 	andi	t7,t1,0x1
9d005e80:	11e00002 	beqz	t7,9d005e8c <i3>
9d005e84:	00000000 	nop
9d005e88:	35290002 	ori	t1,t1,0x2

9d005e8c <i3>:
9d005e8c:	00094842 	srl	t1,t1,0x1
9d005e90:	000a7fc0 	sll	t7,t2,0x1f
9d005e94:	012f4825 	or	t1,t1,t7
9d005e98:	000a5042 	srl	t2,t2,0x1
9d005e9c:	3c018000 	lui	at,0x8000
9d005ea0:	01415025 	or	t2,t2,at
9d005ea4:	256b0001 	addiu	t3,t3,1
9d005ea8:	240107ff 	li	at,2047
9d005eac:	15610029 	bne	t3,at,9d005f54 <Bres>
9d005eb0:	00000000 	nop
9d005eb4:	3c017ff0 	lui	at,0x7ff0
9d005eb8:	00a12825 	or	a1,a1,at
9d005ebc:	10000037 	b	9d005f9c <BretA>
9d005ec0:	24040000 	li	a0,0

9d005ec4 <Bsub1>:
9d005ec4:	012c782b 	sltu	t7,t1,t4
9d005ec8:	012c4823 	subu	t1,t1,t4
9d005ecc:	014f102b 	sltu	v0,t2,t7
9d005ed0:	014f5023 	subu	t2,t2,t7
9d005ed4:	014d782b 	sltu	t7,t2,t5
9d005ed8:	01e27825 	or	t7,t7,v0
9d005edc:	11e00007 	beqz	t7,9d005efc <i5>
9d005ee0:	014d5023 	subu	t2,t2,t5
9d005ee4:	3c018000 	lui	at,0x8000
9d005ee8:	00a12826 	xor	a1,a1,at
9d005eec:	0009782b 	sltu	t7,zero,t1
9d005ef0:	00094823 	negu	t1,t1
9d005ef4:	000a5023 	negu	t2,t2
9d005ef8:	014f5023 	subu	t2,t2,t7

9d005efc <i5>:
9d005efc:	15400008 	bnez	t2,9d005f20 <L8>
9d005f00:	00000000 	nop
9d005f04:	15200003 	bnez	t1,9d005f14 <L9>
9d005f08:	00000000 	nop
9d005f0c:	1000000d 	b	9d005f44 <L10>
9d005f10:	240b0000 	li	t3,0

9d005f14 <L9>:
9d005f14:	01205025 	move	t2,t1
9d005f18:	24090000 	li	t1,0
9d005f1c:	256bffe0 	addiu	t3,t3,-32

9d005f20 <L8>:
9d005f20:	71484020 	clz	t0,t2
9d005f24:	11000007 	beqz	t0,9d005f44 <L10>
9d005f28:	00000000 	nop
9d005f2c:	01685823 	subu	t3,t3,t0
9d005f30:	00082022 	neg	a0,t0
9d005f34:	00892006 	srlv	a0,t1,a0
9d005f38:	01094804 	sllv	t1,t1,t0
9d005f3c:	010a5004 	sllv	t2,t2,t0
9d005f40:	01445025 	or	t2,t2,a0

9d005f44 <L10>:
9d005f44:	01497825 	or	t7,t2,t1
9d005f48:	15e00002 	bnez	t7,9d005f54 <Bres>
9d005f4c:	00000000 	nop
9d005f50:	24050000 	li	a1,0

9d005f54 <Bres>:
9d005f54:	19600068 	blez	t3,9d0060f8 <Bund>
9d005f58:	00000000 	nop

9d005f5c <Blab8>:
9d005f5c:	25290400 	addiu	t1,t1,1024
9d005f60:	2d2f0400 	sltiu	t7,t1,1024
9d005f64:	014f5021 	addu	t2,t2,t7
9d005f68:	014f782b 	sltu	t7,t2,t7
9d005f6c:	016f5821 	addu	t3,t3,t7
9d005f70:	00097ac2 	srl	t7,t1,0xb
9d005f74:	31ef0001 	andi	t7,t7,0x1
9d005f78:	012f4823 	subu	t1,t1,t7
9d005f7c:	000922c2 	srl	a0,t1,0xb
9d005f80:	000a7d40 	sll	t7,t2,0x15
9d005f84:	008f2025 	or	a0,a0,t7
9d005f88:	000a7840 	sll	t7,t2,0x1
9d005f8c:	000f7b02 	srl	t7,t7,0xc
9d005f90:	00af2825 	or	a1,a1,t7
9d005f94:	000b7d00 	sll	t7,t3,0x14
9d005f98:	00af2825 	or	a1,a1,t7

9d005f9c <BretA>:
9d005f9c:	00041025 	or	v0,zero,a0
9d005fa0:	00051825 	or	v1,zero,a1

9d005fa4 <B999>:
9d005fa4:	03e00008 	jr	ra
9d005fa8:	00000000 	nop

9d005fac <BspecA>:
9d005fac:	0120782a 	slt	t7,t1,zero
9d005fb0:	01294821 	addu	t1,t1,t1
9d005fb4:	014a5021 	addu	t2,t2,t2
9d005fb8:	15600023 	bnez	t3,9d006048 <i7>
9d005fbc:	014f5021 	addu	t2,t2,t7
9d005fc0:	01497825 	or	t7,t2,t1
9d005fc4:	11e00014 	beqz	t7,9d006018 <i8>
9d005fc8:	00000000 	nop
9d005fcc:	15400008 	bnez	t2,9d005ff0 <L11>
9d005fd0:	00000000 	nop
9d005fd4:	15200003 	bnez	t1,9d005fe4 <L12>
9d005fd8:	00000000 	nop
9d005fdc:	1000ff67 	b	9d005d7c <Blab1>
9d005fe0:	240b0000 	li	t3,0

9d005fe4 <L12>:
9d005fe4:	01205025 	move	t2,t1
9d005fe8:	24090000 	li	t1,0
9d005fec:	256bffe0 	addiu	t3,t3,-32

9d005ff0 <L11>:
9d005ff0:	71484020 	clz	t0,t2
9d005ff4:	1100ff61 	beqz	t0,9d005d7c <Blab1>
9d005ff8:	00000000 	nop
9d005ffc:	01685823 	subu	t3,t3,t0
9d006000:	00082022 	neg	a0,t0
9d006004:	00892006 	srlv	a0,t1,a0
9d006008:	01094804 	sllv	t1,t1,t0
9d00600c:	010a5004 	sllv	t2,t2,t0
9d006010:	1000ff5a 	b	9d005d7c <Blab1>
9d006014:	01445025 	or	t2,t2,a0

9d006018 <i8>:
9d006018:	240107ff 	li	at,2047
9d00601c:	11c10015 	beq	t6,at,9d006074 <BspecB>
9d006020:	00000000 	nop
9d006024:	00e74021 	addu	t0,a3,a3
9d006028:	01067825 	or	t7,t0,a2
9d00602c:	15e00003 	bnez	t7,9d00603c <BretB>
9d006030:	00000000 	nop
9d006034:	04e0ffd9 	bltz	a3,9d005f9c <BretA>
9d006038:	00000000 	nop

9d00603c <BretB>:
9d00603c:	00061025 	or	v0,zero,a2
9d006040:	1000ffd8 	b	9d005fa4 <B999>
9d006044:	00071825 	or	v1,zero,a3

9d006048 <i7>:
9d006048:	01497825 	or	t7,t2,t1
9d00604c:	15e00027 	bnez	t7,9d0060ec <Bnan>
9d006050:	00000000 	nop
9d006054:	240107ff 	li	at,2047
9d006058:	15c1ffd0 	bne	t6,at,9d005f9c <BretA>
9d00605c:	00000000 	nop
9d006060:	00a77826 	xor	t7,a1,a3
9d006064:	05e00021 	bltz	t7,9d0060ec <Bnan>
9d006068:	00000000 	nop
9d00606c:	1000fff3 	b	9d00603c <BretB>
9d006070:	00000000 	nop

9d006074 <BspecB>:
9d006074:	0180782a 	slt	t7,t4,zero
9d006078:	018c6021 	addu	t4,t4,t4
9d00607c:	01ad6821 	addu	t5,t5,t5
9d006080:	15c00017 	bnez	t6,9d0060e0 <i11>
9d006084:	01af6821 	addu	t5,t5,t7
9d006088:	01ac7825 	or	t7,t5,t4
9d00608c:	11e0ffc3 	beqz	t7,9d005f9c <BretA>
9d006090:	00000000 	nop
9d006094:	15a00008 	bnez	t5,9d0060b8 <L14>
9d006098:	00000000 	nop
9d00609c:	15800003 	bnez	t4,9d0060ac <L15>
9d0060a0:	00000000 	nop
9d0060a4:	1000ff39 	b	9d005d8c <Blab2>
9d0060a8:	240e0000 	li	t6,0

9d0060ac <L15>:
9d0060ac:	01806825 	move	t5,t4
9d0060b0:	240c0000 	li	t4,0
9d0060b4:	25ceffe0 	addiu	t6,t6,-32

9d0060b8 <L14>:
9d0060b8:	71a84020 	clz	t0,t5
9d0060bc:	1100ff33 	beqz	t0,9d005d8c <Blab2>
9d0060c0:	00000000 	nop
9d0060c4:	01c87023 	subu	t6,t6,t0
9d0060c8:	00082022 	neg	a0,t0
9d0060cc:	008c2006 	srlv	a0,t4,a0
9d0060d0:	010c6004 	sllv	t4,t4,t0
9d0060d4:	010d6804 	sllv	t5,t5,t0
9d0060d8:	1000ff2c 	b	9d005d8c <Blab2>
9d0060dc:	01a46825 	or	t5,t5,a0

9d0060e0 <i11>:
9d0060e0:	01ac7825 	or	t7,t5,t4
9d0060e4:	11e0ffd5 	beqz	t7,9d00603c <BretB>
9d0060e8:	00000000 	nop

9d0060ec <Bnan>:
9d0060ec:	3c05fff8 	lui	a1,0xfff8
9d0060f0:	1000ffaa 	b	9d005f9c <BretA>
9d0060f4:	24040000 	li	a0,0

9d0060f8 <Bund>:
9d0060f8:	24080001 	li	t0,1
9d0060fc:	010b4023 	subu	t0,t0,t3

9d006100 <L17>:
9d006100:	2d010020 	sltiu	at,t0,32
9d006104:	14200007 	bnez	at,9d006124 <L18>
9d006108:	00000000 	nop
9d00610c:	2108ffe0 	addi	t0,t0,-32
9d006110:	0009302b 	sltu	a2,zero,t1
9d006114:	100a000d 	beq	zero,t2,9d00614c <L19>
9d006118:	01464825 	or	t1,t2,a2
9d00611c:	1000fff8 	b	9d006100 <L17>
9d006120:	340a0000 	li	t2,0x0

9d006124 <L18>:
9d006124:	11000009 	beqz	t0,9d00614c <L19>
9d006128:	00000000 	nop
9d00612c:	00082022 	neg	a0,t0
9d006130:	00893004 	sllv	a2,t1,a0
9d006134:	008a2004 	sllv	a0,t2,a0
9d006138:	01094806 	srlv	t1,t1,t0
9d00613c:	010a5006 	srlv	t2,t2,t0
9d006140:	10c00002 	beqz	a2,9d00614c <L19>
9d006144:	00894825 	or	t1,a0,t1
9d006148:	35290002 	ori	t1,t1,0x2

9d00614c <L19>:
9d00614c:	1000ff83 	b	9d005f5c <Blab8>
9d006150:	240b0000 	li	t3,0
9d006154:	00000000 	nop

Disassembly of section .text.__scan_fp:

9d006158 <__scan_fp>:
9d006158:	27bdffb0 	addiu	sp,sp,-80
9d00615c:	afb60040 	sw	s6,64(sp)
9d006160:	00e0b025 	move	s6,a3
9d006164:	afbe0048 	sw	s8,72(sp)
9d006168:	afb5003c 	sw	s5,60(sp)
9d00616c:	afb40038 	sw	s4,56(sp)
9d006170:	afb30034 	sw	s3,52(sp)
9d006174:	afb20030 	sw	s2,48(sp)
9d006178:	afb1002c 	sw	s1,44(sp)
9d00617c:	afb00028 	sw	s0,40(sp)
9d006180:	8cd10010 	lw	s1,16(a2)
9d006184:	8cd20008 	lw	s2,8(a2)
9d006188:	afbf004c 	sw	ra,76(sp)
9d00618c:	afb70044 	sw	s7,68(sp)
9d006190:	00809825 	move	s3,a0
9d006194:	afa50054 	sw	a1,84(sp)
9d006198:	0f4026d6 	jal	9d009b58 <__skipws>
9d00619c:	8cd0000c 	lw	s0,12(a2)
9d0061a0:	8ec30000 	lw	v1,0(s6)
9d0061a4:	0000f025 	move	s8,zero
9d0061a8:	0000a825 	move	s5,zero
9d0061ac:	00621021 	addu	v0,v1,v0
9d0061b0:	aec20000 	sw	v0,0(s6)
9d0061b4:	2622ffff 	addiu	v0,s1,-1
9d0061b8:	0052900a 	movz	s2,v0,s2
9d0061bc:	0052882a 	slt	s1,v0,s2
9d0061c0:	0251100a 	movz	v0,s2,s1
9d0061c4:	00408825 	move	s1,v0
9d0061c8:	00009025 	move	s2,zero
9d0061cc:	0000a025 	move	s4,zero
9d0061d0:	afa0001c 	sw	zero,28(sp)
9d0061d4:	03d1102a 	slt	v0,s8,s1
9d0061d8:	10400017 	beqz	v0,9d006238 <__scan_fp+0xe0>
9d0061dc:	afbe0018 	sw	s8,24(sp)
9d0061e0:	8e62003c 	lw	v0,60(s3)
9d0061e4:	8e63004c 	lw	v1,76(s3)
9d0061e8:	0043182b 	sltu	v1,v0,v1
9d0061ec:	10600022 	beqz	v1,9d006278 <__scan_fp+0x120>
9d0061f0:	24430001 	addiu	v1,v0,1
9d0061f4:	ae63003c 	sw	v1,60(s3)
9d0061f8:	90570000 	lbu	s7,0(v0)
9d0061fc:	26e2ffd5 	addiu	v0,s7,-43
9d006200:	7c020844 	ins	v0,zero,0x1,0x1
9d006204:	00521025 	or	v0,v0,s2
9d006208:	54400038 	bnezl	v0,9d0062ec <__scan_fp+0x194>
9d00620c:	8fa2001c 	lw	v0,28(sp)
9d006210:	13c0002f 	beqz	s8,9d0062d0 <__scan_fp+0x178>
9d006214:	021e1021 	addu	v0,s0,s8
9d006218:	529e002e 	beql	s4,s8,9d0062d4 <__scan_fp+0x17c>
9d00621c:	a0570000 	sb	s7,0(v0)
9d006220:	8e62004c 	lw	v0,76(s3)
9d006224:	10400005 	beqz	v0,9d00623c <__scan_fp+0xe4>
9d006228:	8fa20018 	lw	v0,24(sp)
9d00622c:	8e62003c 	lw	v0,60(s3)
9d006230:	2442ffff 	addiu	v0,v0,-1
9d006234:	ae62003c 	sw	v0,60(s3)
9d006238:	8fa20018 	lw	v0,24(sp)
9d00623c:	02002025 	move	a0,s0
9d006240:	27a50010 	addiu	a1,sp,16
9d006244:	02029821 	addu	s3,s0,v0
9d006248:	0f402e7a 	jal	9d00b9e8 <strtold>
9d00624c:	a2600000 	sb	zero,0(s3)
9d006250:	8fa40054 	lw	a0,84(sp)
9d006254:	ac830004 	sw	v1,4(a0)
9d006258:	8fa30010 	lw	v1,16(sp)
9d00625c:	ac820000 	sw	v0,0(a0)
9d006260:	2402fffe 	li	v0,-2
9d006264:	00708026 	xor	s0,v1,s0
9d006268:	24030001 	li	v1,1
9d00626c:	0050180a 	movz	v1,v0,s0
9d006270:	1000000a 	b	9d00629c <__scan_fp+0x144>
9d006274:	0060b825 	move	s7,v1
9d006278:	0f4023c5 	jal	9d008f14 <__shgetc>
9d00627c:	02602025 	move	a0,s3
9d006280:	0040b825 	move	s7,v0
9d006284:	2402ffff 	li	v0,-1
9d006288:	16e2ffdd 	bne	s7,v0,9d006200 <__scan_fp+0xa8>
9d00628c:	26e2ffd5 	addiu	v0,s7,-43
9d006290:	8fa20018 	lw	v0,24(sp)
9d006294:	5440ffea 	bnezl	v0,9d006240 <__scan_fp+0xe8>
9d006298:	02002025 	move	a0,s0
9d00629c:	8fbf004c 	lw	ra,76(sp)
9d0062a0:	02e01025 	move	v0,s7
9d0062a4:	8fbe0048 	lw	s8,72(sp)
9d0062a8:	8fb70044 	lw	s7,68(sp)
9d0062ac:	8fb60040 	lw	s6,64(sp)
9d0062b0:	8fb5003c 	lw	s5,60(sp)
9d0062b4:	8fb40038 	lw	s4,56(sp)
9d0062b8:	8fb30034 	lw	s3,52(sp)
9d0062bc:	8fb20030 	lw	s2,48(sp)
9d0062c0:	8fb1002c 	lw	s1,44(sp)
9d0062c4:	8fb00028 	lw	s0,40(sp)
9d0062c8:	03e00008 	jr	ra
9d0062cc:	27bd0050 	addiu	sp,sp,80
9d0062d0:	a0570000 	sb	s7,0(v0)
9d0062d4:	8ec20000 	lw	v0,0(s6)
9d0062d8:	24120001 	li	s2,1
9d0062dc:	24420001 	addiu	v0,v0,1
9d0062e0:	aec20000 	sw	v0,0(s6)
9d0062e4:	1000ffbb 	b	9d0061d4 <__scan_fp+0x7c>
9d0062e8:	27de0001 	addiu	s8,s8,1
9d0062ec:	1440000d 	bnez	v0,9d006324 <__scan_fp+0x1cc>
9d0062f0:	2402002e 	li	v0,46
9d0062f4:	16e2000b 	bne	s7,v0,9d006324 <__scan_fp+0x1cc>
9d0062f8:	00000000 	nop
9d0062fc:	5680ffc9 	bnezl	s4,9d006224 <__scan_fp+0xcc>
9d006300:	8e62004c 	lw	v0,76(s3)
9d006304:	021e1021 	addu	v0,s0,s8
9d006308:	a0570000 	sb	s7,0(v0)
9d00630c:	8ec20000 	lw	v0,0(s6)
9d006310:	24420001 	addiu	v0,v0,1
9d006314:	aec20000 	sw	v0,0(s6)
9d006318:	24020001 	li	v0,1
9d00631c:	1000fff1 	b	9d0062e4 <__scan_fp+0x18c>
9d006320:	afa2001c 	sw	v0,28(sp)
9d006324:	16800015 	bnez	s4,9d00637c <__scan_fp+0x224>
9d006328:	00000000 	nop
9d00632c:	12a0000f 	beqz	s5,9d00636c <__scan_fp+0x214>
9d006330:	02e02025 	move	a0,s7
9d006334:	0f402e88 	jal	9d00ba20 <tolower>
9d006338:	00000000 	nop
9d00633c:	38420070 	xori	v0,v0,0x70
9d006340:	2c420001 	sltiu	v0,v0,1
9d006344:	10400071 	beqz	v0,9d00650c <__scan_fp+0x3b4>
9d006348:	26420001 	addiu	v0,s2,1
9d00634c:	021e1021 	addu	v0,s0,s8
9d006350:	a0570000 	sb	s7,0(v0)
9d006354:	8ec20000 	lw	v0,0(s6)
9d006358:	00009025 	move	s2,zero
9d00635c:	27d40001 	addiu	s4,s8,1
9d006360:	24420001 	addiu	v0,v0,1
9d006364:	1000ffdf 	b	9d0062e4 <__scan_fp+0x18c>
9d006368:	aec20000 	sw	v0,0(s6)
9d00636c:	0f402e88 	jal	9d00ba20 <tolower>
9d006370:	00000000 	nop
9d006374:	1000fff2 	b	9d006340 <__scan_fp+0x1e8>
9d006378:	38420065 	xori	v0,v0,0x65
9d00637c:	12a0003c 	beqz	s5,9d006470 <__scan_fp+0x318>
9d006380:	26e2ffd0 	addiu	v0,s7,-48
9d006384:	0f402e52 	jal	9d00b948 <isxdigit>
9d006388:	02e02025 	move	a0,s7
9d00638c:	2c420001 	sltiu	v0,v0,1
9d006390:	10400059 	beqz	v0,9d0064f8 <__scan_fp+0x3a0>
9d006394:	021e1021 	addu	v0,s0,s8
9d006398:	8e62004c 	lw	v0,76(s3)
9d00639c:	10400004 	beqz	v0,9d0063b0 <__scan_fp+0x258>
9d0063a0:	00000000 	nop
9d0063a4:	8e62003c 	lw	v0,60(s3)
9d0063a8:	2442ffff 	addiu	v0,v0,-1
9d0063ac:	ae62003c 	sw	v0,60(s3)
9d0063b0:	17d2ffa2 	bne	s8,s2,9d00623c <__scan_fp+0xe4>
9d0063b4:	8fa20018 	lw	v0,24(sp)
9d0063b8:	3c029d00 	lui	v0,0x9d00
9d0063bc:	27d20002 	addiu	s2,s8,2
9d0063c0:	24421e30 	addiu	v0,v0,7728
9d0063c4:	0251882a 	slt	s1,s2,s1
9d0063c8:	1220ff9b 	beqz	s1,9d006238 <__scan_fp+0xe0>
9d0063cc:	afa20010 	sw	v0,16(sp)
9d0063d0:	3c029d00 	lui	v0,0x9d00
9d0063d4:	24421e34 	addiu	v0,v0,7732
9d0063d8:	afa20014 	sw	v0,20(sp)
9d0063dc:	27c20003 	addiu	v0,s8,3
9d0063e0:	afa2001c 	sw	v0,28(sp)
9d0063e4:	03c0b825 	move	s7,s8
9d0063e8:	2414ffff 	li	s4,-1
9d0063ec:	2415ffff 	li	s5,-1
9d0063f0:	8e62003c 	lw	v0,60(s3)
9d0063f4:	8e63004c 	lw	v1,76(s3)
9d0063f8:	0043182b 	sltu	v1,v0,v1
9d0063fc:	1060001f 	beqz	v1,9d00647c <__scan_fp+0x324>
9d006400:	02e08825 	move	s1,s7
9d006404:	24430001 	addiu	v1,v0,1
9d006408:	ae63003c 	sw	v1,60(s3)
9d00640c:	90430000 	lbu	v1,0(v0)
9d006410:	16950020 	bne	s4,s5,9d006494 <__scan_fp+0x33c>
9d006414:	00602025 	move	a0,v1
9d006418:	0f402e88 	jal	9d00ba20 <tolower>
9d00641c:	00000000 	nop
9d006420:	00401825 	move	v1,v0
9d006424:	24020069 	li	v0,105
9d006428:	10620031 	beq	v1,v0,9d0064f0 <__scan_fp+0x398>
9d00642c:	2402006e 	li	v0,110
9d006430:	50620023 	beql	v1,v0,9d0064c0 <__scan_fp+0x368>
9d006434:	24140001 	li	s4,1
9d006438:	0257902a 	slt	s2,s2,s7
9d00643c:	16400027 	bnez	s2,9d0064dc <__scan_fp+0x384>
9d006440:	8fa2001c 	lw	v0,28(sp)
9d006444:	2631ffff 	addiu	s1,s1,-1
9d006448:	023e102a 	slt	v0,s1,s8
9d00644c:	1440ff7b 	bnez	v0,9d00623c <__scan_fp+0xe4>
9d006450:	8fa20018 	lw	v0,24(sp)
9d006454:	8e62004c 	lw	v0,76(s3)
9d006458:	5040fffb 	beqzl	v0,9d006448 <__scan_fp+0x2f0>
9d00645c:	2631ffff 	addiu	s1,s1,-1
9d006460:	8e62003c 	lw	v0,60(s3)
9d006464:	2442ffff 	addiu	v0,v0,-1
9d006468:	1000fff6 	b	9d006444 <__scan_fp+0x2ec>
9d00646c:	ae62003c 	sw	v0,60(s3)
9d006470:	2c42000a 	sltiu	v0,v0,10
9d006474:	1000ffc6 	b	9d006390 <__scan_fp+0x238>
9d006478:	38420001 	xori	v0,v0,0x1
9d00647c:	0f4023c5 	jal	9d008f14 <__shgetc>
9d006480:	02602025 	move	a0,s3
9d006484:	1455ffe2 	bne	v0,s5,9d006410 <__scan_fp+0x2b8>
9d006488:	00401825 	move	v1,v0
9d00648c:	1000ff6b 	b	9d00623c <__scan_fp+0xe4>
9d006490:	8fa20018 	lw	v0,24(sp)
9d006494:	0f402e88 	jal	9d00ba20 <tolower>
9d006498:	afa30020 	sw	v1,32(sp)
9d00649c:	27a30010 	addiu	v1,sp,16
9d0064a0:	00145080 	sll	t2,s4,0x2
9d0064a4:	006a5021 	addu	t2,v1,t2
9d0064a8:	8d4a0000 	lw	t2,0(t2)
9d0064ac:	02fe2023 	subu	a0,s7,s8
9d0064b0:	01442021 	addu	a0,t2,a0
9d0064b4:	80840000 	lb	a0,0(a0)
9d0064b8:	1444ffdf 	bne	v0,a0,9d006438 <__scan_fp+0x2e0>
9d0064bc:	8fa30020 	lw	v1,32(sp)
9d0064c0:	02171021 	addu	v0,s0,s7
9d0064c4:	a0430000 	sb	v1,0(v0)
9d0064c8:	8fa2001c 	lw	v0,28(sp)
9d0064cc:	26f70001 	addiu	s7,s7,1
9d0064d0:	56e2ffc8 	bnel	s7,v0,9d0063f4 <__scan_fp+0x29c>
9d0064d4:	8e62003c 	lw	v0,60(s3)
9d0064d8:	8fa2001c 	lw	v0,28(sp)
9d0064dc:	afa20018 	sw	v0,24(sp)
9d0064e0:	8ec20000 	lw	v0,0(s6)
9d0064e4:	24420003 	addiu	v0,v0,3
9d0064e8:	1000ff53 	b	9d006238 <__scan_fp+0xe0>
9d0064ec:	aec20000 	sw	v0,0(s6)
9d0064f0:	1000fff3 	b	9d0064c0 <__scan_fp+0x368>
9d0064f4:	0000a025 	move	s4,zero
9d0064f8:	a0570000 	sb	s7,0(v0)
9d0064fc:	8ec20000 	lw	v0,0(s6)
9d006500:	24420001 	addiu	v0,v0,1
9d006504:	1000ff77 	b	9d0062e4 <__scan_fp+0x18c>
9d006508:	aec20000 	sw	v0,0(s6)
9d00650c:	145eff9b 	bne	v0,s8,9d00637c <__scan_fp+0x224>
9d006510:	00000000 	nop
9d006514:	0f402e88 	jal	9d00ba20 <tolower>
9d006518:	02e02025 	move	a0,s7
9d00651c:	24030078 	li	v1,120
9d006520:	1443ff96 	bne	v0,v1,9d00637c <__scan_fp+0x224>
9d006524:	021e1021 	addu	v0,s0,s8
9d006528:	8044ffff 	lb	a0,-1(v0)
9d00652c:	24030030 	li	v1,48
9d006530:	1483ff92 	bne	a0,v1,9d00637c <__scan_fp+0x224>
9d006534:	00000000 	nop
9d006538:	a0570000 	sb	s7,0(v0)
9d00653c:	8ec20000 	lw	v0,0(s6)
9d006540:	24150001 	li	s5,1
9d006544:	24420001 	addiu	v0,v0,1
9d006548:	1000ff66 	b	9d0062e4 <__scan_fp+0x18c>
9d00654c:	aec20000 	sw	v0,0(s6)

Disassembly of section .text:

9d006550 <__umoddi3>:
9d006550:	00c04825 	move	t1,a2
9d006554:	00801025 	move	v0,a0
9d006558:	14e00099 	bnez	a3,9d0067c0 <__umoddi3+0x270>
9d00655c:	00a01825 	move	v1,a1
9d006560:	00a6302b 	sltu	a2,a1,a2
9d006564:	10c00034 	beqz	a2,9d006638 <__umoddi3+0xe8>
9d006568:	712a5020 	clz	t2,t1
9d00656c:	51400008 	beqzl	t2,9d006590 <__umoddi3+0x40>
9d006570:	00092402 	srl	a0,t1,0x10
9d006574:	01451804 	sllv	v1,a1,t2
9d006578:	000a2823 	negu	a1,t2
9d00657c:	00a42806 	srlv	a1,a0,a1
9d006580:	01494804 	sllv	t1,t1,t2
9d006584:	00a31825 	or	v1,a1,v1
9d006588:	01441004 	sllv	v0,a0,t2
9d00658c:	00092402 	srl	a0,t1,0x10
9d006590:	0064001b 	divu	zero,v1,a0
9d006594:	008001f4 	teq	a0,zero,0x7
9d006598:	3127ffff 	andi	a3,t1,0xffff
9d00659c:	00001812 	mflo	v1
9d0065a0:	00002810 	mfhi	a1
9d0065a4:	70673002 	mul	a2,v1,a3
9d0065a8:	00051c00 	sll	v1,a1,0x10
9d0065ac:	00022c02 	srl	a1,v0,0x10
9d0065b0:	00651825 	or	v1,v1,a1
9d0065b4:	0066282b 	sltu	a1,v1,a2
9d0065b8:	50a00009 	beqzl	a1,9d0065e0 <__umoddi3+0x90>
9d0065bc:	00661823 	subu	v1,v1,a2
9d0065c0:	00691821 	addu	v1,v1,t1
9d0065c4:	0069282b 	sltu	a1,v1,t1
9d0065c8:	54a00005 	bnezl	a1,9d0065e0 <__umoddi3+0x90>
9d0065cc:	00661823 	subu	v1,v1,a2
9d0065d0:	0066282b 	sltu	a1,v1,a2
9d0065d4:	54a00001 	bnezl	a1,9d0065dc <__umoddi3+0x8c>
9d0065d8:	00691821 	addu	v1,v1,t1
9d0065dc:	00661823 	subu	v1,v1,a2
9d0065e0:	0064001b 	divu	zero,v1,a0
9d0065e4:	008001f4 	teq	a0,zero,0x7
9d0065e8:	3042ffff 	andi	v0,v0,0xffff
9d0065ec:	00001812 	mflo	v1
9d0065f0:	00003010 	mfhi	a2
9d0065f4:	70672002 	mul	a0,v1,a3
9d0065f8:	00061c00 	sll	v1,a2,0x10
9d0065fc:	00621025 	or	v0,v1,v0
9d006600:	0044182b 	sltu	v1,v0,a0
9d006604:	50600009 	beqzl	v1,9d00662c <__umoddi3+0xdc>
9d006608:	00441023 	subu	v0,v0,a0
9d00660c:	00491021 	addu	v0,v0,t1
9d006610:	0049182b 	sltu	v1,v0,t1
9d006614:	54600005 	bnezl	v1,9d00662c <__umoddi3+0xdc>
9d006618:	00441023 	subu	v0,v0,a0
9d00661c:	0044182b 	sltu	v1,v0,a0
9d006620:	54600001 	bnezl	v1,9d006628 <__umoddi3+0xd8>
9d006624:	00491021 	addu	v0,v0,t1
9d006628:	00441023 	subu	v0,v0,a0
9d00662c:	01421006 	srlv	v0,v0,t2
9d006630:	03e00008 	jr	ra
9d006634:	00001825 	move	v1,zero
9d006638:	15200005 	bnez	t1,9d006650 <__umoddi3+0x100>
9d00663c:	24030001 	li	v1,1
9d006640:	0069001b 	divu	zero,v1,t1
9d006644:	012001f4 	teq	t1,zero,0x7
9d006648:	00004812 	mflo	t1
9d00664c:	712a5020 	clz	t2,t1
9d006650:	1540002b 	bnez	t2,9d006700 <__umoddi3+0x1b0>
9d006654:	24070020 	li	a3,32
9d006658:	00a92823 	subu	a1,a1,t1
9d00665c:	00092402 	srl	a0,t1,0x10
9d006660:	00a4001b 	divu	zero,a1,a0
9d006664:	008001f4 	teq	a0,zero,0x7
9d006668:	3127ffff 	andi	a3,t1,0xffff
9d00666c:	00002812 	mflo	a1
9d006670:	00001810 	mfhi	v1
9d006674:	70a73002 	mul	a2,a1,a3
9d006678:	00032c00 	sll	a1,v1,0x10
9d00667c:	00021c02 	srl	v1,v0,0x10
9d006680:	00a32825 	or	a1,a1,v1
9d006684:	00a6182b 	sltu	v1,a1,a2
9d006688:	50600009 	beqzl	v1,9d0066b0 <__umoddi3+0x160>
9d00668c:	00a63023 	subu	a2,a1,a2
9d006690:	00a92821 	addu	a1,a1,t1
9d006694:	00a9182b 	sltu	v1,a1,t1
9d006698:	54600005 	bnezl	v1,9d0066b0 <__umoddi3+0x160>
9d00669c:	00a63023 	subu	a2,a1,a2
9d0066a0:	00a6182b 	sltu	v1,a1,a2
9d0066a4:	54600001 	bnezl	v1,9d0066ac <__umoddi3+0x15c>
9d0066a8:	00a92821 	addu	a1,a1,t1
9d0066ac:	00a63023 	subu	a2,a1,a2
9d0066b0:	00c4001b 	divu	zero,a2,a0
9d0066b4:	008001f4 	teq	a0,zero,0x7
9d0066b8:	3042ffff 	andi	v0,v0,0xffff
9d0066bc:	00003012 	mflo	a2
9d0066c0:	00002810 	mfhi	a1
9d0066c4:	70c71802 	mul	v1,a2,a3
9d0066c8:	00053400 	sll	a2,a1,0x10
9d0066cc:	00c21025 	or	v0,a2,v0
9d0066d0:	0043202b 	sltu	a0,v0,v1
9d0066d4:	5080ffd5 	beqzl	a0,9d00662c <__umoddi3+0xdc>
9d0066d8:	00431023 	subu	v0,v0,v1
9d0066dc:	00491021 	addu	v0,v0,t1
9d0066e0:	0049202b 	sltu	a0,v0,t1
9d0066e4:	5480ffd1 	bnezl	a0,9d00662c <__umoddi3+0xdc>
9d0066e8:	00431023 	subu	v0,v0,v1
9d0066ec:	0043202b 	sltu	a0,v0,v1
9d0066f0:	54800001 	bnezl	a0,9d0066f8 <__umoddi3+0x1a8>
9d0066f4:	00491021 	addu	v0,v0,t1
9d0066f8:	1000ffcc 	b	9d00662c <__umoddi3+0xdc>
9d0066fc:	00431023 	subu	v0,v0,v1
9d006700:	00ea3823 	subu	a3,a3,t2
9d006704:	01494804 	sllv	t1,t1,t2
9d006708:	00e41806 	srlv	v1,a0,a3
9d00670c:	00093402 	srl	a2,t1,0x10
9d006710:	00e53806 	srlv	a3,a1,a3
9d006714:	00e6001b 	divu	zero,a3,a2
9d006718:	00c001f4 	teq	a2,zero,0x7
9d00671c:	01451004 	sllv	v0,a1,t2
9d006720:	312bffff 	andi	t3,t1,0xffff
9d006724:	00621825 	or	v1,v1,v0
9d006728:	01441004 	sllv	v0,a0,t2
9d00672c:	00032c02 	srl	a1,v1,0x10
9d006730:	00003812 	mflo	a3
9d006734:	00002010 	mfhi	a0
9d006738:	70eb4002 	mul	t0,a3,t3
9d00673c:	00043c00 	sll	a3,a0,0x10
9d006740:	00e53825 	or	a3,a3,a1
9d006744:	00e8202b 	sltu	a0,a3,t0
9d006748:	50800009 	beqzl	a0,9d006770 <__umoddi3+0x220>
9d00674c:	00e83823 	subu	a3,a3,t0
9d006750:	00e93821 	addu	a3,a3,t1
9d006754:	00e9202b 	sltu	a0,a3,t1
9d006758:	54800005 	bnezl	a0,9d006770 <__umoddi3+0x220>
9d00675c:	00e83823 	subu	a3,a3,t0
9d006760:	00e8202b 	sltu	a0,a3,t0
9d006764:	54800001 	bnezl	a0,9d00676c <__umoddi3+0x21c>
9d006768:	00e93821 	addu	a3,a3,t1
9d00676c:	00e83823 	subu	a3,a3,t0
9d006770:	00e6001b 	divu	zero,a3,a2
9d006774:	00c001f4 	teq	a2,zero,0x7
9d006778:	3065ffff 	andi	a1,v1,0xffff
9d00677c:	00003012 	mflo	a2
9d006780:	00003810 	mfhi	a3
9d006784:	00073c00 	sll	a3,a3,0x10
9d006788:	00e52825 	or	a1,a3,a1
9d00678c:	70cb3002 	mul	a2,a2,t3
9d006790:	00a6182b 	sltu	v1,a1,a2
9d006794:	5060ffb1 	beqzl	v1,9d00665c <__umoddi3+0x10c>
9d006798:	00a62823 	subu	a1,a1,a2
9d00679c:	00a92821 	addu	a1,a1,t1
9d0067a0:	00a9182b 	sltu	v1,a1,t1
9d0067a4:	5460ffad 	bnezl	v1,9d00665c <__umoddi3+0x10c>
9d0067a8:	00a62823 	subu	a1,a1,a2
9d0067ac:	00a6182b 	sltu	v1,a1,a2
9d0067b0:	54600001 	bnezl	v1,9d0067b8 <__umoddi3+0x268>
9d0067b4:	00a92821 	addu	a1,a1,t1
9d0067b8:	1000ffa8 	b	9d00665c <__umoddi3+0x10c>
9d0067bc:	00a62823 	subu	a1,a1,a2
9d0067c0:	00a7402b 	sltu	t0,a1,a3
9d0067c4:	1500005e 	bnez	t0,9d006940 <__umoddi3+0x3f0>
9d0067c8:	70ee7020 	clz	t6,a3
9d0067cc:	15c0000c 	bnez	t6,9d006800 <__umoddi3+0x2b0>
9d0067d0:	240b0020 	li	t3,32
9d0067d4:	00e5402b 	sltu	t0,a3,a1
9d0067d8:	55000005 	bnezl	t0,9d0067f0 <__umoddi3+0x2a0>
9d0067dc:	00861023 	subu	v0,a0,a2
9d0067e0:	0086402b 	sltu	t0,a0,a2
9d0067e4:	15000056 	bnez	t0,9d006940 <__umoddi3+0x3f0>
9d0067e8:	00000000 	nop
9d0067ec:	00861023 	subu	v0,a0,a2
9d0067f0:	00a72823 	subu	a1,a1,a3
9d0067f4:	0082182b 	sltu	v1,a0,v0
9d0067f8:	03e00008 	jr	ra
9d0067fc:	00a31823 	subu	v1,a1,v1
9d006800:	016e5823 	subu	t3,t3,t6
9d006804:	01666006 	srlv	t4,a2,t3
9d006808:	01c73804 	sllv	a3,a3,t6
9d00680c:	01873825 	or	a3,t4,a3
9d006810:	01c51804 	sllv	v1,a1,t6
9d006814:	00074c02 	srl	t1,a3,0x10
9d006818:	01652806 	srlv	a1,a1,t3
9d00681c:	00a9001b 	divu	zero,a1,t1
9d006820:	012001f4 	teq	t1,zero,0x7
9d006824:	01c61004 	sllv	v0,a2,t6
9d006828:	30e8ffff 	andi	t0,a3,0xffff
9d00682c:	01643006 	srlv	a2,a0,t3
9d006830:	00c33025 	or	a2,a2,v1
9d006834:	00066402 	srl	t4,a2,0x10
9d006838:	01c42004 	sllv	a0,a0,t6
9d00683c:	00002812 	mflo	a1
9d006840:	00005010 	mfhi	t2
9d006844:	000a5400 	sll	t2,t2,0x10
9d006848:	014c5025 	or	t2,t2,t4
9d00684c:	71051802 	mul	v1,t0,a1
9d006850:	0143602b 	sltu	t4,t2,v1
9d006854:	1180000a 	beqz	t4,9d006880 <__umoddi3+0x330>
9d006858:	00a06825 	move	t5,a1
9d00685c:	01475021 	addu	t2,t2,a3
9d006860:	0147602b 	sltu	t4,t2,a3
9d006864:	15800006 	bnez	t4,9d006880 <__umoddi3+0x330>
9d006868:	24adffff 	addiu	t5,a1,-1
9d00686c:	0143602b 	sltu	t4,t2,v1
9d006870:	51800004 	beqzl	t4,9d006884 <__umoddi3+0x334>
9d006874:	01435023 	subu	t2,t2,v1
9d006878:	24adfffe 	addiu	t5,a1,-2
9d00687c:	01475021 	addu	t2,t2,a3
9d006880:	01435023 	subu	t2,t2,v1
9d006884:	0149001b 	divu	zero,t2,t1
9d006888:	012001f4 	teq	t1,zero,0x7
9d00688c:	00004812 	mflo	t1
9d006890:	00005010 	mfhi	t2
9d006894:	000a5400 	sll	t2,t2,0x10
9d006898:	71091802 	mul	v1,t0,t1
9d00689c:	30c8ffff 	andi	t0,a2,0xffff
9d0068a0:	01484025 	or	t0,t2,t0
9d0068a4:	0103302b 	sltu	a2,t0,v1
9d0068a8:	10c0000a 	beqz	a2,9d0068d4 <__umoddi3+0x384>
9d0068ac:	01202825 	move	a1,t1
9d0068b0:	01074021 	addu	t0,t0,a3
9d0068b4:	0107302b 	sltu	a2,t0,a3
9d0068b8:	14c00006 	bnez	a2,9d0068d4 <__umoddi3+0x384>
9d0068bc:	2525ffff 	addiu	a1,t1,-1
9d0068c0:	0103302b 	sltu	a2,t0,v1
9d0068c4:	10c00004 	beqz	a2,9d0068d8 <__umoddi3+0x388>
9d0068c8:	000d6400 	sll	t4,t5,0x10
9d0068cc:	2525fffe 	addiu	a1,t1,-2
9d0068d0:	01074021 	addu	t0,t0,a3
9d0068d4:	000d6400 	sll	t4,t5,0x10
9d0068d8:	01856025 	or	t4,t4,a1
9d0068dc:	01820019 	multu	t4,v0
9d0068e0:	01034023 	subu	t0,t0,v1
9d0068e4:	00006810 	mfhi	t5
9d0068e8:	010d282b 	sltu	a1,t0,t5
9d0068ec:	01a01825 	move	v1,t5
9d0068f0:	00006012 	mflo	t4
9d0068f4:	14a00006 	bnez	a1,9d006910 <__umoddi3+0x3c0>
9d0068f8:	00003012 	mflo	a2
9d0068fc:	150d0009 	bne	t0,t5,9d006924 <__umoddi3+0x3d4>
9d006900:	00863023 	subu	a2,a0,a2
9d006904:	008c282b 	sltu	a1,a0,t4
9d006908:	50a00007 	beqzl	a1,9d006928 <__umoddi3+0x3d8>
9d00690c:	01034023 	subu	t0,t0,v1
9d006910:	01823023 	subu	a2,t4,v0
9d006914:	01a73823 	subu	a3,t5,a3
9d006918:	0186602b 	sltu	t4,t4,a2
9d00691c:	00ec1823 	subu	v1,a3,t4
9d006920:	00863023 	subu	a2,a0,a2
9d006924:	01034023 	subu	t0,t0,v1
9d006928:	0086182b 	sltu	v1,a0,a2
9d00692c:	01031823 	subu	v1,t0,v1
9d006930:	01631004 	sllv	v0,v1,t3
9d006934:	01c63006 	srlv	a2,a2,t6
9d006938:	00461025 	or	v0,v0,a2
9d00693c:	01c31806 	srlv	v1,v1,t6
9d006940:	03e00008 	jr	ra
9d006944:	00000000 	nop

9d006948 <__udivdi3>:
9d006948:	00c04025 	move	t0,a2
9d00694c:	00e01825 	move	v1,a3
9d006950:	00805025 	move	t2,a0
9d006954:	14e000a3 	bnez	a3,9d006be4 <__udivdi3+0x29c>
9d006958:	00a01025 	move	v0,a1
9d00695c:	00a6302b 	sltu	a2,a1,a2
9d006960:	10c00034 	beqz	a2,9d006a34 <__udivdi3+0xec>
9d006964:	00000000 	nop
9d006968:	71052820 	clz	a1,t0
9d00696c:	50a00008 	beqzl	a1,9d006990 <__udivdi3+0x48>
9d006970:	00082c02 	srl	a1,t0,0x10
9d006974:	00052023 	negu	a0,a1
9d006978:	008a2006 	srlv	a0,t2,a0
9d00697c:	00a21004 	sllv	v0,v0,a1
9d006980:	00a84004 	sllv	t0,t0,a1
9d006984:	00821025 	or	v0,a0,v0
9d006988:	00aa5004 	sllv	t2,t2,a1
9d00698c:	00082c02 	srl	a1,t0,0x10
9d006990:	0045001b 	divu	zero,v0,a1
9d006994:	00a001f4 	teq	a1,zero,0x7
9d006998:	3107ffff 	andi	a3,t0,0xffff
9d00699c:	000a2402 	srl	a0,t2,0x10
9d0069a0:	00003012 	mflo	a2
9d0069a4:	00001010 	mfhi	v0
9d0069a8:	00021400 	sll	v0,v0,0x10
9d0069ac:	00442025 	or	a0,v0,a0
9d0069b0:	70e64802 	mul	t1,a3,a2
9d0069b4:	0089582b 	sltu	t3,a0,t1
9d0069b8:	1160000a 	beqz	t3,9d0069e4 <__udivdi3+0x9c>
9d0069bc:	00c01025 	move	v0,a2
9d0069c0:	00882021 	addu	a0,a0,t0
9d0069c4:	0088582b 	sltu	t3,a0,t0
9d0069c8:	15600006 	bnez	t3,9d0069e4 <__udivdi3+0x9c>
9d0069cc:	24c2ffff 	addiu	v0,a2,-1
9d0069d0:	0089582b 	sltu	t3,a0,t1
9d0069d4:	51600004 	beqzl	t3,9d0069e8 <__udivdi3+0xa0>
9d0069d8:	00892023 	subu	a0,a0,t1
9d0069dc:	24c2fffe 	addiu	v0,a2,-2
9d0069e0:	00882021 	addu	a0,a0,t0
9d0069e4:	00892023 	subu	a0,a0,t1
9d0069e8:	0085001b 	divu	zero,a0,a1
9d0069ec:	00a001f4 	teq	a1,zero,0x7
9d0069f0:	314affff 	andi	t2,t2,0xffff
9d0069f4:	00002012 	mflo	a0
9d0069f8:	00002810 	mfhi	a1
9d0069fc:	00052c00 	sll	a1,a1,0x10
9d006a00:	00aa5025 	or	t2,a1,t2
9d006a04:	70e43802 	mul	a3,a3,a0
9d006a08:	0147282b 	sltu	a1,t2,a3
9d006a0c:	10a00006 	beqz	a1,9d006a28 <__udivdi3+0xe0>
9d006a10:	00803025 	move	a2,a0
9d006a14:	010a5021 	addu	t2,t0,t2
9d006a18:	0148402b 	sltu	t0,t2,t0
9d006a1c:	2486ffff 	addiu	a2,a0,-1
9d006a20:	11000036 	beqz	t0,9d006afc <__udivdi3+0x1b4>
9d006a24:	0147502b 	sltu	t2,t2,a3
9d006a28:	00021400 	sll	v0,v0,0x10
9d006a2c:	03e00008 	jr	ra
9d006a30:	00461025 	or	v0,v0,a2
9d006a34:	15000006 	bnez	t0,9d006a50 <__udivdi3+0x108>
9d006a38:	71021020 	clz	v0,t0
9d006a3c:	24020001 	li	v0,1
9d006a40:	0048001b 	divu	zero,v0,t0
9d006a44:	010001f4 	teq	t0,zero,0x7
9d006a48:	00004012 	mflo	t0
9d006a4c:	71021020 	clz	v0,t0
9d006a50:	1440002e 	bnez	v0,9d006b0c <__udivdi3+0x1c4>
9d006a54:	24090020 	li	t1,32
9d006a58:	00a82823 	subu	a1,a1,t0
9d006a5c:	24030001 	li	v1,1
9d006a60:	00083402 	srl	a2,t0,0x10
9d006a64:	00a6001b 	divu	zero,a1,a2
9d006a68:	00c001f4 	teq	a2,zero,0x7
9d006a6c:	3107ffff 	andi	a3,t0,0xffff
9d006a70:	000a2402 	srl	a0,t2,0x10
9d006a74:	00002812 	mflo	a1
9d006a78:	00001010 	mfhi	v0
9d006a7c:	00021400 	sll	v0,v0,0x10
9d006a80:	00442025 	or	a0,v0,a0
9d006a84:	70e54802 	mul	t1,a3,a1
9d006a88:	0089582b 	sltu	t3,a0,t1
9d006a8c:	1160000a 	beqz	t3,9d006ab8 <__udivdi3+0x170>
9d006a90:	00a01025 	move	v0,a1
9d006a94:	00882021 	addu	a0,a0,t0
9d006a98:	0088582b 	sltu	t3,a0,t0
9d006a9c:	15600006 	bnez	t3,9d006ab8 <__udivdi3+0x170>
9d006aa0:	24a2ffff 	addiu	v0,a1,-1
9d006aa4:	0089582b 	sltu	t3,a0,t1
9d006aa8:	51600004 	beqzl	t3,9d006abc <__udivdi3+0x174>
9d006aac:	00892023 	subu	a0,a0,t1
9d006ab0:	24a2fffe 	addiu	v0,a1,-2
9d006ab4:	00882021 	addu	a0,a0,t0
9d006ab8:	00892023 	subu	a0,a0,t1
9d006abc:	0086001b 	divu	zero,a0,a2
9d006ac0:	00c001f4 	teq	a2,zero,0x7
9d006ac4:	314affff 	andi	t2,t2,0xffff
9d006ac8:	00002012 	mflo	a0
9d006acc:	00003010 	mfhi	a2
9d006ad0:	00063400 	sll	a2,a2,0x10
9d006ad4:	00ca5025 	or	t2,a2,t2
9d006ad8:	70e42802 	mul	a1,a3,a0
9d006adc:	0145382b 	sltu	a3,t2,a1
9d006ae0:	10e0ffd1 	beqz	a3,9d006a28 <__udivdi3+0xe0>
9d006ae4:	00803025 	move	a2,a0
9d006ae8:	010a5021 	addu	t2,t0,t2
9d006aec:	0148402b 	sltu	t0,t2,t0
9d006af0:	1500ffcd 	bnez	t0,9d006a28 <__udivdi3+0xe0>
9d006af4:	2486ffff 	addiu	a2,a0,-1
9d006af8:	0145502b 	sltu	t2,t2,a1
9d006afc:	5540ffca 	bnezl	t2,9d006a28 <__udivdi3+0xe0>
9d006b00:	2486fffe 	addiu	a2,a0,-2
9d006b04:	1000ffc9 	b	9d006a2c <__udivdi3+0xe4>
9d006b08:	00021400 	sll	v0,v0,0x10
9d006b0c:	01224823 	subu	t1,t1,v0
9d006b10:	00484004 	sllv	t0,t0,v0
9d006b14:	00451804 	sllv	v1,a1,v0
9d006b18:	00445004 	sllv	t2,a0,v0
9d006b1c:	01252806 	srlv	a1,a1,t1
9d006b20:	00081402 	srl	v0,t0,0x10
9d006b24:	00a2001b 	divu	zero,a1,v0
9d006b28:	004001f4 	teq	v0,zero,0x7
9d006b2c:	3106ffff 	andi	a2,t0,0xffff
9d006b30:	01243806 	srlv	a3,a0,t1
9d006b34:	00e33825 	or	a3,a3,v1
9d006b38:	00071c02 	srl	v1,a3,0x10
9d006b3c:	00002812 	mflo	a1
9d006b40:	00002010 	mfhi	a0
9d006b44:	00042400 	sll	a0,a0,0x10
9d006b48:	00832025 	or	a0,a0,v1
9d006b4c:	70c54802 	mul	t1,a2,a1
9d006b50:	0089582b 	sltu	t3,a0,t1
9d006b54:	1160000a 	beqz	t3,9d006b80 <__udivdi3+0x238>
9d006b58:	00a01825 	move	v1,a1
9d006b5c:	00882021 	addu	a0,a0,t0
9d006b60:	0088582b 	sltu	t3,a0,t0
9d006b64:	15600006 	bnez	t3,9d006b80 <__udivdi3+0x238>
9d006b68:	24a3ffff 	addiu	v1,a1,-1
9d006b6c:	0089582b 	sltu	t3,a0,t1
9d006b70:	51600004 	beqzl	t3,9d006b84 <__udivdi3+0x23c>
9d006b74:	00892023 	subu	a0,a0,t1
9d006b78:	24a3fffe 	addiu	v1,a1,-2
9d006b7c:	00882021 	addu	a0,a0,t0
9d006b80:	00892023 	subu	a0,a0,t1
9d006b84:	0082001b 	divu	zero,a0,v0
9d006b88:	004001f4 	teq	v0,zero,0x7
9d006b8c:	30e5ffff 	andi	a1,a3,0xffff
9d006b90:	00001012 	mflo	v0
9d006b94:	00002010 	mfhi	a0
9d006b98:	00042400 	sll	a0,a0,0x10
9d006b9c:	00852825 	or	a1,a0,a1
9d006ba0:	70c23002 	mul	a2,a2,v0
9d006ba4:	00a6382b 	sltu	a3,a1,a2
9d006ba8:	10e0000a 	beqz	a3,9d006bd4 <__udivdi3+0x28c>
9d006bac:	00402025 	move	a0,v0
9d006bb0:	00a82821 	addu	a1,a1,t0
9d006bb4:	00a8382b 	sltu	a3,a1,t0
9d006bb8:	14e00006 	bnez	a3,9d006bd4 <__udivdi3+0x28c>
9d006bbc:	2444ffff 	addiu	a0,v0,-1
9d006bc0:	00a6382b 	sltu	a3,a1,a2
9d006bc4:	50e00004 	beqzl	a3,9d006bd8 <__udivdi3+0x290>
9d006bc8:	00031c00 	sll	v1,v1,0x10
9d006bcc:	2444fffe 	addiu	a0,v0,-2
9d006bd0:	00a82821 	addu	a1,a1,t0
9d006bd4:	00031c00 	sll	v1,v1,0x10
9d006bd8:	00a62823 	subu	a1,a1,a2
9d006bdc:	1000ffa0 	b	9d006a60 <__udivdi3+0x118>
9d006be0:	00641825 	or	v1,v1,a0
9d006be4:	00a7102b 	sltu	v0,a1,a3
9d006be8:	1440004f 	bnez	v0,9d006d28 <__udivdi3+0x3e0>
9d006bec:	00001825 	move	v1,zero
9d006bf0:	70ea5020 	clz	t2,a3
9d006bf4:	15400008 	bnez	t2,9d006c18 <__udivdi3+0x2d0>
9d006bf8:	24090020 	li	t1,32
9d006bfc:	00e5282b 	sltu	a1,a3,a1
9d006c00:	54a0004a 	bnezl	a1,9d006d2c <__udivdi3+0x3e4>
9d006c04:	24020001 	li	v0,1
9d006c08:	0086102b 	sltu	v0,a0,a2
9d006c0c:	38420001 	xori	v0,v0,0x1
9d006c10:	03e00008 	jr	ra
9d006c14:	00001825 	move	v1,zero
9d006c18:	012a4823 	subu	t1,t1,t2
9d006c1c:	01261006 	srlv	v0,a2,t1
9d006c20:	01473804 	sllv	a3,a3,t2
9d006c24:	00473825 	or	a3,v0,a3
9d006c28:	00074402 	srl	t0,a3,0x10
9d006c2c:	01451004 	sllv	v0,a1,t2
9d006c30:	01252806 	srlv	a1,a1,t1
9d006c34:	00a8001b 	divu	zero,a1,t0
9d006c38:	010001f4 	teq	t0,zero,0x7
9d006c3c:	01246006 	srlv	t4,a0,t1
9d006c40:	30ebffff 	andi	t3,a3,0xffff
9d006c44:	01826025 	or	t4,t4,v0
9d006c48:	000c1c02 	srl	v1,t4,0x10
9d006c4c:	01463004 	sllv	a2,a2,t2
9d006c50:	00002812 	mflo	a1
9d006c54:	00004810 	mfhi	t1
9d006c58:	00094c00 	sll	t1,t1,0x10
9d006c5c:	01234825 	or	t1,t1,v1
9d006c60:	71651002 	mul	v0,t3,a1
9d006c64:	0122682b 	sltu	t5,t1,v0
9d006c68:	11a0000a 	beqz	t5,9d006c94 <__udivdi3+0x34c>
9d006c6c:	00a01825 	move	v1,a1
9d006c70:	01274821 	addu	t1,t1,a3
9d006c74:	0127682b 	sltu	t5,t1,a3
9d006c78:	15a00006 	bnez	t5,9d006c94 <__udivdi3+0x34c>
9d006c7c:	24a3ffff 	addiu	v1,a1,-1
9d006c80:	0122682b 	sltu	t5,t1,v0
9d006c84:	51a00004 	beqzl	t5,9d006c98 <__udivdi3+0x350>
9d006c88:	01224823 	subu	t1,t1,v0
9d006c8c:	24a3fffe 	addiu	v1,a1,-2
9d006c90:	01274821 	addu	t1,t1,a3
9d006c94:	01224823 	subu	t1,t1,v0
9d006c98:	0128001b 	divu	zero,t1,t0
9d006c9c:	010001f4 	teq	t0,zero,0x7
9d006ca0:	3185ffff 	andi	a1,t4,0xffff
9d006ca4:	00004012 	mflo	t0
9d006ca8:	00004810 	mfhi	t1
9d006cac:	00094c00 	sll	t1,t1,0x10
9d006cb0:	01252825 	or	a1,t1,a1
9d006cb4:	71685802 	mul	t3,t3,t0
9d006cb8:	00ab102b 	sltu	v0,a1,t3
9d006cbc:	1040000a 	beqz	v0,9d006ce8 <__udivdi3+0x3a0>
9d006cc0:	01004825 	move	t1,t0
9d006cc4:	00a72821 	addu	a1,a1,a3
9d006cc8:	00a7102b 	sltu	v0,a1,a3
9d006ccc:	14400006 	bnez	v0,9d006ce8 <__udivdi3+0x3a0>
9d006cd0:	2509ffff 	addiu	t1,t0,-1
9d006cd4:	00ab102b 	sltu	v0,a1,t3
9d006cd8:	10400004 	beqz	v0,9d006cec <__udivdi3+0x3a4>
9d006cdc:	00031400 	sll	v0,v1,0x10
9d006ce0:	2509fffe 	addiu	t1,t0,-2
9d006ce4:	00a72821 	addu	a1,a1,a3
9d006ce8:	00031400 	sll	v0,v1,0x10
9d006cec:	00491025 	or	v0,v0,t1
9d006cf0:	00460019 	multu	v0,a2
9d006cf4:	00ab2823 	subu	a1,a1,t3
9d006cf8:	00003810 	mfhi	a3
9d006cfc:	00a7182b 	sltu	v1,a1,a3
9d006d00:	14600007 	bnez	v1,9d006d20 <__udivdi3+0x3d8>
9d006d04:	00003012 	mflo	a2
9d006d08:	14a70008 	bne	a1,a3,9d006d2c <__udivdi3+0x3e4>
9d006d0c:	00001825 	move	v1,zero
9d006d10:	01442004 	sllv	a0,a0,t2
9d006d14:	0086202b 	sltu	a0,a0,a2
9d006d18:	10800004 	beqz	a0,9d006d2c <__udivdi3+0x3e4>
9d006d1c:	00000000 	nop
9d006d20:	1000ffbb 	b	9d006c10 <__udivdi3+0x2c8>
9d006d24:	2442ffff 	addiu	v0,v0,-1
9d006d28:	00001025 	move	v0,zero
9d006d2c:	03e00008 	jr	ra
9d006d30:	00000000 	nop

Disassembly of section .text.dp32mul:

9d006d34 <__muldf3>:
9d006d34:	00055040 000a5542 00054ac0 00047d42     @P..BU...J..B}..
9d006d44:	012f4825 000442c0 3c0e8000 012e4825     %H/..B.....<%H..
9d006d54:	00076840 000d6d42 000762c0 00067d42     @h..Bm...b..B}..
9d006d64:	018f6025 00065ac0 018e6025 00a72826     %`...Z..%`..&(..
9d006d74:	00ae2824 254fffff 2de107fe 10200047     $(....O%...-G. .
9d006d84:	00000000                                ....

9d006d88 <Clab1>:
9d006d88:	25afffff 	addiu	t7,t5,-1
9d006d8c:	2de107fe 	sltiu	at,t7,2046
9d006d90:	1020006f 	beqz	at,9d006f50 <CspecB>
9d006d94:	00000000 	nop

9d006d98 <Clab2>:
9d006d98:	25affc02 	addiu	t7,t5,-1022
9d006d9c:	014f5021 	addu	t2,t2,t7
9d006da0:	012c0019 	multu	t1,t4
9d006da4:	00003812 	mflo	a3
9d006da8:	00007010 	mfhi	t6
9d006dac:	010b0019 	multu	t0,t3
9d006db0:	00002012 	mflo	a0
9d006db4:	00003010 	mfhi	a2
9d006db8:	012b0019 	multu	t1,t3
9d006dbc:	00005812 	mflo	t3
9d006dc0:	00006810 	mfhi	t5
9d006dc4:	00cb3021 	addu	a2,a2,t3
9d006dc8:	00cb782b 	sltu	t7,a2,t3
9d006dcc:	00ed3821 	addu	a3,a3,t5
9d006dd0:	00ef3821 	addu	a3,a3,t7
9d006dd4:	10ed0002 	beq	a3,t5,9d006de0 <L20>
9d006dd8:	00000000 	nop
9d006ddc:	00ed782b 	sltu	t7,a3,t5

9d006de0 <L20>:
9d006de0:	01cf7021 	addu	t6,t6,t7
9d006de4:	010c0019 	multu	t0,t4
9d006de8:	00004012 	mflo	t0
9d006dec:	00004810 	mfhi	t1
9d006df0:	00c83021 	addu	a2,a2,t0
9d006df4:	00c8782b 	sltu	t7,a2,t0
9d006df8:	00e93821 	addu	a3,a3,t1
9d006dfc:	00ef3821 	addu	a3,a3,t7
9d006e00:	10e90002 	beq	a3,t1,9d006e0c <L21>
9d006e04:	00000000 	nop
9d006e08:	00e9782b 	sltu	t7,a3,t1

9d006e0c <L21>:
9d006e0c:	01cf7021 	addu	t6,t6,t7
9d006e10:	00867825 	or	t7,a0,a2
9d006e14:	11e00002 	beqz	t7,9d006e20 <i13>
9d006e18:	00000000 	nop
9d006e1c:	34e70001 	ori	a3,a3,0x1

9d006e20 <i13>:
9d006e20:	000e4825 	or	t1,zero,t6
9d006e24:	05200006 	bltz	t1,9d006e40 <i14>
9d006e28:	00074025 	or	t0,zero,a3
9d006e2c:	0100782a 	slt	t7,t0,zero
9d006e30:	01084021 	addu	t0,t0,t0
9d006e34:	01294821 	addu	t1,t1,t1
9d006e38:	012f4821 	addu	t1,t1,t7
9d006e3c:	254affff 	addiu	t2,t2,-1

9d006e40 <i14>:
9d006e40:	254fffff 	addiu	t7,t2,-1
9d006e44:	2de107fe 	sltiu	at,t7,2046
9d006e48:	10200068 	beqz	at,9d006fec <Coveund>
9d006e4c:	00000000 	nop
9d006e50:	25080400 	addiu	t0,t0,1024
9d006e54:	2d0f0400 	sltiu	t7,t0,1024
9d006e58:	012f4821 	addu	t1,t1,t7
9d006e5c:	012f782b 	sltu	t7,t1,t7
9d006e60:	014f5021 	addu	t2,t2,t7

9d006e64 <Clab8>:
9d006e64:	00087ac2 	srl	t7,t0,0xb
9d006e68:	31ef0001 	andi	t7,t7,0x1
9d006e6c:	010f4023 	subu	t0,t0,t7
9d006e70:	000822c2 	srl	a0,t0,0xb
9d006e74:	00097d40 	sll	t7,t1,0x15
9d006e78:	008f2025 	or	a0,a0,t7
9d006e7c:	00097840 	sll	t7,t1,0x1
9d006e80:	000f7b02 	srl	t7,t7,0xc
9d006e84:	00af2825 	or	a1,a1,t7
9d006e88:	000a7d00 	sll	t7,t2,0x14
9d006e8c:	00af2825 	or	a1,a1,t7

9d006e90 <Cret>:
9d006e90:	00041025 	or	v0,zero,a0
9d006e94:	00051825 	or	v1,zero,a1

9d006e98 <C999>:
9d006e98:	03e00008 	jr	ra
9d006e9c:	00000000 	nop

9d006ea0 <CspecA>:
9d006ea0:	0100782a 	slt	t7,t0,zero
9d006ea4:	01084021 	addu	t0,t0,t0
9d006ea8:	01294821 	addu	t1,t1,t1
9d006eac:	1540001c 	bnez	t2,9d006f20 <i15>
9d006eb0:	012f4821 	addu	t1,t1,t7
9d006eb4:	01287825 	or	t7,t1,t0
9d006eb8:	11e00014 	beqz	t7,9d006f0c <i16>
9d006ebc:	00000000 	nop
9d006ec0:	15200008 	bnez	t1,9d006ee4 <L22>
9d006ec4:	00000000 	nop
9d006ec8:	15000003 	bnez	t0,9d006ed8 <L23>
9d006ecc:	00000000 	nop
9d006ed0:	1000ffad 	b	9d006d88 <Clab1>
9d006ed4:	240a0000 	li	t2,0

9d006ed8 <L23>:
9d006ed8:	01004825 	move	t1,t0
9d006edc:	24080000 	li	t0,0
9d006ee0:	254affe0 	addiu	t2,t2,-32

9d006ee4 <L22>:
9d006ee4:	712e7020 	clz	t6,t1
9d006ee8:	11c0ffa7 	beqz	t6,9d006d88 <Clab1>
9d006eec:	00000000 	nop
9d006ef0:	014e5023 	subu	t2,t2,t6
9d006ef4:	000e3822 	neg	a3,t6
9d006ef8:	00e83806 	srlv	a3,t0,a3
9d006efc:	01c84004 	sllv	t0,t0,t6
9d006f00:	01c94804 	sllv	t1,t1,t6
9d006f04:	1000ffa0 	b	9d006d88 <Clab1>
9d006f08:	01274825 	or	t1,t1,a3

9d006f0c <i16>:
9d006f0c:	240107ff 	li	at,2047
9d006f10:	11a10033 	beq	t5,at,9d006fe0 <Cnan>
9d006f14:	00000000 	nop
9d006f18:	1000ffdd 	b	9d006e90 <Cret>
9d006f1c:	00000000 	nop

9d006f20 <i15>:
9d006f20:	01287825 	or	t7,t1,t0
9d006f24:	15e0002e 	bnez	t7,9d006fe0 <Cnan>
9d006f28:	00000000 	nop
9d006f2c:	15a00005 	bnez	t5,9d006f44 <i17>
9d006f30:	00000000 	nop
9d006f34:	000c7840 	sll	t7,t4,0x1
9d006f38:	01eb7825 	or	t7,t7,t3
9d006f3c:	11e00028 	beqz	t7,9d006fe0 <Cnan>
9d006f40:	00000000 	nop

9d006f44 <i17>:
9d006f44:	240107ff 	li	at,2047
9d006f48:	15a10021 	bne	t5,at,9d006fd0 <Cinf>
9d006f4c:	00000000 	nop

9d006f50 <CspecB>:
9d006f50:	0160782a 	slt	t7,t3,zero
9d006f54:	016b5821 	addu	t3,t3,t3
9d006f58:	018c6021 	addu	t4,t4,t4
9d006f5c:	15a00019 	bnez	t5,9d006fc4 <i18>
9d006f60:	018f6021 	addu	t4,t4,t7
9d006f64:	018b7825 	or	t7,t4,t3
9d006f68:	11e00014 	beqz	t7,9d006fbc <i19>
9d006f6c:	00000000 	nop
9d006f70:	15800008 	bnez	t4,9d006f94 <L25>
9d006f74:	00000000 	nop
9d006f78:	15600003 	bnez	t3,9d006f88 <L26>
9d006f7c:	00000000 	nop
9d006f80:	1000ff85 	b	9d006d98 <Clab2>
9d006f84:	240d0000 	li	t5,0

9d006f88 <L26>:
9d006f88:	01606025 	move	t4,t3
9d006f8c:	240b0000 	li	t3,0
9d006f90:	25adffe0 	addiu	t5,t5,-32

9d006f94 <L25>:
9d006f94:	71863020 	clz	a2,t4
9d006f98:	10c0ff7f 	beqz	a2,9d006d98 <Clab2>
9d006f9c:	00000000 	nop
9d006fa0:	01a66823 	subu	t5,t5,a2
9d006fa4:	00067022 	neg	t6,a2
9d006fa8:	01cb7006 	srlv	t6,t3,t6
9d006fac:	00cb5804 	sllv	t3,t3,a2
9d006fb0:	00cc6004 	sllv	t4,t4,a2
9d006fb4:	1000ff78 	b	9d006d98 <Clab2>
9d006fb8:	018e6025 	or	t4,t4,t6

9d006fbc <i19>:
9d006fbc:	1000ffb4 	b	9d006e90 <Cret>
9d006fc0:	24040000 	li	a0,0

9d006fc4 <i18>:
9d006fc4:	018b7825 	or	t7,t4,t3
9d006fc8:	15e00005 	bnez	t7,9d006fe0 <Cnan>
9d006fcc:	00000000 	nop

9d006fd0 <Cinf>:
9d006fd0:	3c017ff0 	lui	at,0x7ff0
9d006fd4:	00a12825 	or	a1,a1,at
9d006fd8:	1000ffad 	b	9d006e90 <Cret>
9d006fdc:	24040000 	li	a0,0

9d006fe0 <Cnan>:
9d006fe0:	3c05fff8 	lui	a1,0xfff8
9d006fe4:	1000ffaa 	b	9d006e90 <Cret>
9d006fe8:	24040000 	li	a0,0

9d006fec <Coveund>:
9d006fec:	1d40fff8 	bgtz	t2,9d006fd0 <Cinf>
9d006ff0:	00000000 	nop
9d006ff4:	240e0001 	li	t6,1
9d006ff8:	01ca7023 	subu	t6,t6,t2

9d006ffc <L28>:
9d006ffc:	2dc10020 	sltiu	at,t6,32
9d007000:	14200007 	bnez	at,9d007020 <L29>
9d007004:	00000000 	nop
9d007008:	21ceffe0 	addi	t6,t6,-32
9d00700c:	0008302b 	sltu	a2,zero,t0
9d007010:	1009000d 	beq	zero,t1,9d007048 <L30>
9d007014:	01264025 	or	t0,t1,a2
9d007018:	1000fff8 	b	9d006ffc <L28>
9d00701c:	34090000 	li	t1,0x0

9d007020 <L29>:
9d007020:	11c00009 	beqz	t6,9d007048 <L30>
9d007024:	00000000 	nop
9d007028:	000e3822 	neg	a3,t6
9d00702c:	00e83004 	sllv	a2,t0,a3
9d007030:	00e93804 	sllv	a3,t1,a3
9d007034:	01c84006 	srlv	t0,t0,t6
9d007038:	01c94806 	srlv	t1,t1,t6
9d00703c:	10c00002 	beqz	a2,9d007048 <L30>
9d007040:	00e84025 	or	t0,a3,t0
9d007044:	35080002 	ori	t0,t0,0x2

9d007048 <L30>:
9d007048:	25080400 	addiu	t0,t0,1024
9d00704c:	2d0f0400 	sltiu	t7,t0,1024
9d007050:	012f4821 	addu	t1,t1,t7
9d007054:	1000ff83 	b	9d006e64 <Clab8>
9d007058:	000957c2 	srl	t2,t1,0x1f
9d00705c:	00000000 	nop

Disassembly of section .text.scanexp:

9d007060 <scanexp>:
9d007060:	8c82003c 	lw	v0,60(a0)
9d007064:	8c83004c 	lw	v1,76(a0)
9d007068:	27bdffd0 	addiu	sp,sp,-48
9d00706c:	afb3001c 	sw	s3,28(sp)
9d007070:	0043182b 	sltu	v1,v0,v1
9d007074:	afb20018 	sw	s2,24(sp)
9d007078:	afbf002c 	sw	ra,44(sp)
9d00707c:	afb60028 	sw	s6,40(sp)
9d007080:	afb50024 	sw	s5,36(sp)
9d007084:	afb40020 	sw	s4,32(sp)
9d007088:	afb10014 	sw	s1,20(sp)
9d00708c:	afb00010 	sw	s0,16(sp)
9d007090:	00809025 	move	s2,a0
9d007094:	10600053 	beqz	v1,9d0071e4 <scanexp+0x184>
9d007098:	00a09825 	move	s3,a1
9d00709c:	24430001 	addiu	v1,v0,1
9d0070a0:	ac83003c 	sw	v1,60(a0)
9d0070a4:	90420000 	lbu	v0,0(v0)
9d0070a8:	2444ffd5 	addiu	a0,v0,-43
9d0070ac:	7c040844 	ins	a0,zero,0x1,0x1
9d0070b0:	14800016 	bnez	a0,9d00710c <scanexp+0xac>
9d0070b4:	00008825 	move	s1,zero
9d0070b8:	3842002d 	xori	v0,v0,0x2d
9d0070bc:	2c510001 	sltiu	s1,v0,1
9d0070c0:	8e43004c 	lw	v1,76(s2)
9d0070c4:	8e42003c 	lw	v0,60(s2)
9d0070c8:	0043182b 	sltu	v1,v0,v1
9d0070cc:	10600049 	beqz	v1,9d0071f4 <scanexp+0x194>
9d0070d0:	24430001 	addiu	v1,v0,1
9d0070d4:	ae43003c 	sw	v1,60(s2)
9d0070d8:	90420000 	lbu	v0,0(v0)
9d0070dc:	2444ffd0 	addiu	a0,v0,-48
9d0070e0:	2c84000a 	sltiu	a0,a0,10
9d0070e4:	1480000a 	bnez	a0,9d007110 <scanexp+0xb0>
9d0070e8:	2444ffd0 	addiu	a0,v0,-48
9d0070ec:	12600009 	beqz	s3,9d007114 <scanexp+0xb4>
9d0070f0:	2c84000a 	sltiu	a0,a0,10
9d0070f4:	8e43004c 	lw	v1,76(s2)
9d0070f8:	10600006 	beqz	v1,9d007114 <scanexp+0xb4>
9d0070fc:	00000000 	nop
9d007100:	8e44003c 	lw	a0,60(s2)
9d007104:	2484ffff 	addiu	a0,a0,-1
9d007108:	ae44003c 	sw	a0,60(s2)
9d00710c:	2444ffd0 	addiu	a0,v0,-48
9d007110:	2c84000a 	sltiu	a0,a0,10
9d007114:	1080003b 	beqz	a0,9d007204 <scanexp+0x1a4>
9d007118:	00008025 	move	s0,zero
9d00711c:	3c130ccc 	lui	s3,0xccc
9d007120:	2414000a 	li	s4,10
9d007124:	3673cccc 	ori	s3,s3,0xcccc
9d007128:	72141802 	mul	v1,s0,s4
9d00712c:	00628021 	addu	s0,v1,v0
9d007130:	8e42003c 	lw	v0,60(s2)
9d007134:	8e43004c 	lw	v1,76(s2)
9d007138:	0043182b 	sltu	v1,v0,v1
9d00713c:	10600039 	beqz	v1,9d007224 <scanexp+0x1c4>
9d007140:	2610ffd0 	addiu	s0,s0,-48
9d007144:	24430001 	addiu	v1,v0,1
9d007148:	ae43003c 	sw	v1,60(s2)
9d00714c:	90420000 	lbu	v0,0(v0)
9d007150:	2444ffd0 	addiu	a0,v0,-48
9d007154:	2c84000a 	sltiu	a0,a0,10
9d007158:	10800003 	beqz	a0,9d007168 <scanexp+0x108>
9d00715c:	0213182a 	slt	v1,s0,s3
9d007160:	1460fff2 	bnez	v1,9d00712c <scanexp+0xcc>
9d007164:	72141802 	mul	v1,s0,s4
9d007168:	3c140147 	lui	s4,0x147
9d00716c:	3694ae15 	ori	s4,s4,0xae15
9d007170:	3c157ae1 	lui	s5,0x7ae1
9d007174:	00109fc3 	sra	s3,s0,0x1f
9d007178:	2696ffff 	addiu	s6,s4,-1
9d00717c:	26b547ae 	addiu	s5,s5,18350
9d007180:	2444ffd0 	addiu	a0,v0,-48
9d007184:	2c84000a 	sltiu	a0,a0,10
9d007188:	14800043 	bnez	a0,9d007298 <scanexp+0x238>
9d00718c:	8e46004c 	lw	a2,76(s2)
9d007190:	8e42004c 	lw	v0,76(s2)
9d007194:	54400058 	bnezl	v0,9d0072f8 <scanexp+0x298>
9d007198:	8e44003c 	lw	a0,60(s2)
9d00719c:	12200006 	beqz	s1,9d0071b8 <scanexp+0x158>
9d0071a0:	8fbf002c 	lw	ra,44(sp)
9d0071a4:	00108023 	negu	s0,s0
9d0071a8:	0010202b 	sltu	a0,zero,s0
9d0071ac:	00131023 	negu	v0,s3
9d0071b0:	00449823 	subu	s3,v0,a0
9d0071b4:	8fbf002c 	lw	ra,44(sp)
9d0071b8:	02001025 	move	v0,s0
9d0071bc:	02601825 	move	v1,s3
9d0071c0:	8fb60028 	lw	s6,40(sp)
9d0071c4:	8fb50024 	lw	s5,36(sp)
9d0071c8:	8fb40020 	lw	s4,32(sp)
9d0071cc:	8fb3001c 	lw	s3,28(sp)
9d0071d0:	8fb20018 	lw	s2,24(sp)
9d0071d4:	8fb10014 	lw	s1,20(sp)
9d0071d8:	8fb00010 	lw	s0,16(sp)
9d0071dc:	03e00008 	jr	ra
9d0071e0:	27bd0030 	addiu	sp,sp,48
9d0071e4:	0f4023c5 	jal	9d008f14 <__shgetc>
9d0071e8:	00000000 	nop
9d0071ec:	1000ffaf 	b	9d0070ac <scanexp+0x4c>
9d0071f0:	2444ffd5 	addiu	a0,v0,-43
9d0071f4:	0f4023c5 	jal	9d008f14 <__shgetc>
9d0071f8:	02402025 	move	a0,s2
9d0071fc:	1000ffb8 	b	9d0070e0 <scanexp+0x80>
9d007200:	2444ffd0 	addiu	a0,v0,-48
9d007204:	8e42004c 	lw	v0,76(s2)
9d007208:	10400004 	beqz	v0,9d00721c <scanexp+0x1bc>
9d00720c:	00000000 	nop
9d007210:	8e42003c 	lw	v0,60(s2)
9d007214:	2442ffff 	addiu	v0,v0,-1
9d007218:	ae42003c 	sw	v0,60(s2)
9d00721c:	1000ffe5 	b	9d0071b4 <scanexp+0x154>
9d007220:	3c138000 	lui	s3,0x8000
9d007224:	0f4023c5 	jal	9d008f14 <__shgetc>
9d007228:	02402025 	move	a0,s2
9d00722c:	1000ffc9 	b	9d007154 <scanexp+0xf4>
9d007230:	2444ffd0 	addiu	a0,v0,-48
9d007234:	00700019 	multu	v1,s0
9d007238:	00002012 	mflo	a0
9d00723c:	00002810 	mfhi	a1
9d007240:	70733802 	mul	a3,v1,s3
9d007244:	00e52821 	addu	a1,a3,a1
9d007248:	00023fc3 	sra	a3,v0,0x1f
9d00724c:	00821021 	addu	v0,a0,v0
9d007250:	0044182b 	sltu	v1,v0,a0
9d007254:	8e44003c 	lw	a0,60(s2)
9d007258:	00a73821 	addu	a3,a1,a3
9d00725c:	00671821 	addu	v1,v1,a3
9d007260:	2450ffd0 	addiu	s0,v0,-48
9d007264:	0202102b 	sltu	v0,s0,v0
9d007268:	2463ffff 	addiu	v1,v1,-1
9d00726c:	0086302b 	sltu	a2,a0,a2
9d007270:	10c00005 	beqz	a2,9d007288 <scanexp+0x228>
9d007274:	00439821 	addu	s3,v0,v1
9d007278:	24820001 	addiu	v0,a0,1
9d00727c:	ae42003c 	sw	v0,60(s2)
9d007280:	1000ffbf 	b	9d007180 <scanexp+0x120>
9d007284:	90820000 	lbu	v0,0(a0)
9d007288:	0f4023c5 	jal	9d008f14 <__shgetc>
9d00728c:	02402025 	move	a0,s2
9d007290:	1000ffbc 	b	9d007184 <scanexp+0x124>
9d007294:	2444ffd0 	addiu	a0,v0,-48
9d007298:	0274182a 	slt	v1,s3,s4
9d00729c:	50600007 	beqzl	v1,9d0072bc <scanexp+0x25c>
9d0072a0:	2442ffd0 	addiu	v0,v0,-48
9d0072a4:	1676ffe3 	bne	s3,s6,9d007234 <scanexp+0x1d4>
9d0072a8:	2403000a 	li	v1,10
9d0072ac:	0215182b 	sltu	v1,s0,s5
9d0072b0:	1460ffe0 	bnez	v1,9d007234 <scanexp+0x1d4>
9d0072b4:	2403000a 	li	v1,10
9d0072b8:	2442ffd0 	addiu	v0,v0,-48
9d0072bc:	2c42000a 	sltiu	v0,v0,10
9d0072c0:	1040ffb3 	beqz	v0,9d007190 <scanexp+0x130>
9d0072c4:	8e44004c 	lw	a0,76(s2)
9d0072c8:	8e45003c 	lw	a1,60(s2)
9d0072cc:	00a4202b 	sltu	a0,a1,a0
9d0072d0:	10800005 	beqz	a0,9d0072e8 <scanexp+0x288>
9d0072d4:	00000000 	nop
9d0072d8:	24a20001 	addiu	v0,a1,1
9d0072dc:	ae42003c 	sw	v0,60(s2)
9d0072e0:	1000fff5 	b	9d0072b8 <scanexp+0x258>
9d0072e4:	90a20000 	lbu	v0,0(a1)
9d0072e8:	0f4023c5 	jal	9d008f14 <__shgetc>
9d0072ec:	02402025 	move	a0,s2
9d0072f0:	1000fff2 	b	9d0072bc <scanexp+0x25c>
9d0072f4:	2442ffd0 	addiu	v0,v0,-48
9d0072f8:	2484ffff 	addiu	a0,a0,-1
9d0072fc:	1000ffa7 	b	9d00719c <scanexp+0x13c>
9d007300:	ae44003c 	sw	a0,60(s2)

Disassembly of section .text.libm:

9d007304 <dpfmod>:
9d007304:	00055040 000a5542 00054ac0 00047d42     @P..BU...J..B}..
9d007314:	012f4825 000442c0 3c0e8000 012e4825     %H/..B.....<%H..
9d007324:	00076840 000d6d42 000762c0 00067d42     @h..Bm...b..B}..
9d007334:	018f6025 00065ac0 018e6025 01c57024     %`...Z..%`..$p..
9d007344:	254fffff 2de107fe 10200056 00000000     ..O%...-V. .....

9d007354 <Alab1>:
9d007354:	25afffff 	addiu	t7,t5,-1
9d007358:	2de107fe 	sltiu	at,t7,2046
9d00735c:	1020006e 	beqz	at,9d007518 <AspecB>
9d007360:	00000000 	nop

9d007364 <Alab2>:
9d007364:	014d3823 	subu	a3,t2,t5
9d007368:	04e0004b 	bltz	a3,9d007498 <Aret2>
9d00736c:	00000000 	nop
9d007370:	00084042 	srl	t0,t0,0x1
9d007374:	00097fc0 	sll	t7,t1,0x1f
9d007378:	010f4025 	or	t0,t0,t7
9d00737c:	00094842 	srl	t1,t1,0x1
9d007380:	000b5842 	srl	t3,t3,0x1
9d007384:	000c7fc0 	sll	t7,t4,0x1f
9d007388:	016f5825 	or	t3,t3,t7
9d00738c:	000c6042 	srl	t4,t4,0x1

9d007390 <b1>:
9d007390:	010b782b 	sltu	t7,t0,t3
9d007394:	010b4023 	subu	t0,t0,t3
9d007398:	012f102b 	sltu	v0,t1,t7
9d00739c:	012f4823 	subu	t1,t1,t7
9d0073a0:	012c782b 	sltu	t7,t1,t4
9d0073a4:	01e27825 	or	t7,t7,v0
9d0073a8:	11e00005 	beqz	t7,9d0073c0 <i2>
9d0073ac:	012c4823 	subu	t1,t1,t4
9d0073b0:	010b4021 	addu	t0,t0,t3
9d0073b4:	010b782b 	sltu	t7,t0,t3
9d0073b8:	012c4821 	addu	t1,t1,t4
9d0073bc:	012f4821 	addu	t1,t1,t7

9d0073c0 <i2>:
9d0073c0:	0100782a 	slt	t7,t0,zero
9d0073c4:	01084021 	addu	t0,t0,t0
9d0073c8:	01294821 	addu	t1,t1,t1
9d0073cc:	012f4821 	addu	t1,t1,t7
9d0073d0:	24e7ffff 	addiu	a3,a3,-1
9d0073d4:	04e1ffee 	bgez	a3,9d007390 <b1>
9d0073d8:	00000000 	nop
9d0073dc:	15200008 	bnez	t1,9d007400 <L1>
9d0073e0:	000d5025 	or	t2,zero,t5
9d0073e4:	15000003 	bnez	t0,9d0073f4 <L2>
9d0073e8:	00000000 	nop
9d0073ec:	1000000d 	b	9d007424 <L3>
9d0073f0:	240a0000 	li	t2,0

9d0073f4 <L2>:
9d0073f4:	01004825 	move	t1,t0
9d0073f8:	24080000 	li	t0,0
9d0073fc:	254affe0 	addiu	t2,t2,-32

9d007400 <L1>:
9d007400:	71273820 	clz	a3,t1
9d007404:	10e00007 	beqz	a3,9d007424 <L3>
9d007408:	00000000 	nop
9d00740c:	01475023 	subu	t2,t2,a3
9d007410:	00073022 	neg	a2,a3
9d007414:	00c83006 	srlv	a2,t0,a2
9d007418:	00e84004 	sllv	t0,t0,a3
9d00741c:	00e94804 	sllv	t1,t1,a3
9d007420:	01264825 	or	t1,t1,a2

9d007424 <L3>:
9d007424:	1d400014 	bgtz	t2,9d007478 <i3>
9d007428:	00000000 	nop
9d00742c:	24070001 	li	a3,1
9d007430:	00ea3823 	subu	a3,a3,t2

9d007434 <L4>:
9d007434:	2ce10020 	sltiu	at,a3,32
9d007438:	14200005 	bnez	at,9d007450 <L5>
9d00743c:	00000000 	nop
9d007440:	00094025 	or	t0,zero,t1
9d007444:	24090000 	li	t1,0
9d007448:	1500fffa 	bnez	t0,9d007434 <L4>
9d00744c:	24e7ffe0 	addiu	a3,a3,-32

9d007450 <L5>:
9d007450:	10e00008 	beqz	a3,9d007474 <L6>
9d007454:	00000000 	nop
9d007458:	00093025 	or	a2,zero,t1
9d00745c:	00e84006 	srlv	t0,t0,a3
9d007460:	00e94806 	srlv	t1,t1,a3
9d007464:	240f0020 	li	t7,32
9d007468:	01e73823 	subu	a3,t7,a3
9d00746c:	00e63004 	sllv	a2,a2,a3
9d007470:	01064025 	or	t0,t0,a2

9d007474 <L6>:
9d007474:	240a0000 	li	t2,0

9d007478 <i3>:
9d007478:	000822c2 	srl	a0,t0,0xb
9d00747c:	00097d40 	sll	t7,t1,0x15
9d007480:	008f2025 	or	a0,a0,t7
9d007484:	00092840 	sll	a1,t1,0x1
9d007488:	00052b02 	srl	a1,a1,0xc
9d00748c:	000a7d00 	sll	t7,t2,0x14
9d007490:	00af2825 	or	a1,a1,t7
9d007494:	00ae2825 	or	a1,a1,t6

9d007498 <Aret2>:
9d007498:	00041025 	or	v0,zero,a0
9d00749c:	00051825 	or	v1,zero,a1

9d0074a0 <A999>:
9d0074a0:	03e00008 	jr	ra
9d0074a4:	00000000 	nop

9d0074a8 <AspecA>:
9d0074a8:	1540003b 	bnez	t2,9d007598 <Anan>
9d0074ac:	00000000 	nop
9d0074b0:	0100782a 	slt	t7,t0,zero
9d0074b4:	01084021 	addu	t0,t0,t0
9d0074b8:	01294821 	addu	t1,t1,t1
9d0074bc:	012f4821 	addu	t1,t1,t7
9d0074c0:	01287825 	or	t7,t1,t0
9d0074c4:	11e0ffa3 	beqz	t7,9d007354 <Alab1>
9d0074c8:	00000000 	nop
9d0074cc:	15200008 	bnez	t1,9d0074f0 <L7>
9d0074d0:	00000000 	nop
9d0074d4:	15000003 	bnez	t0,9d0074e4 <L8>
9d0074d8:	00000000 	nop
9d0074dc:	1000ff9d 	b	9d007354 <Alab1>
9d0074e0:	240a0000 	li	t2,0

9d0074e4 <L8>:
9d0074e4:	01004825 	move	t1,t0
9d0074e8:	24080000 	li	t0,0
9d0074ec:	254affe0 	addiu	t2,t2,-32

9d0074f0 <L7>:
9d0074f0:	71273820 	clz	a3,t1
9d0074f4:	10e0ff97 	beqz	a3,9d007354 <Alab1>
9d0074f8:	00000000 	nop
9d0074fc:	01475023 	subu	t2,t2,a3
9d007500:	00073022 	neg	a2,a3
9d007504:	00c83006 	srlv	a2,t0,a2
9d007508:	00e84004 	sllv	t0,t0,a3
9d00750c:	00e94804 	sllv	t1,t1,a3
9d007510:	1000ff90 	b	9d007354 <Alab1>
9d007514:	01264825 	or	t1,t1,a2

9d007518 <AspecB>:
9d007518:	15a0001b 	bnez	t5,9d007588 <i5>
9d00751c:	00000000 	nop
9d007520:	0160782a 	slt	t7,t3,zero
9d007524:	016b5821 	addu	t3,t3,t3
9d007528:	018c6021 	addu	t4,t4,t4
9d00752c:	018f6021 	addu	t4,t4,t7
9d007530:	018b7825 	or	t7,t4,t3
9d007534:	11e00018 	beqz	t7,9d007598 <Anan>
9d007538:	00000000 	nop
9d00753c:	15800008 	bnez	t4,9d007560 <L10>
9d007540:	00000000 	nop
9d007544:	15600003 	bnez	t3,9d007554 <L11>
9d007548:	00000000 	nop
9d00754c:	1000ff85 	b	9d007364 <Alab2>
9d007550:	240d0000 	li	t5,0

9d007554 <L11>:
9d007554:	01606025 	move	t4,t3
9d007558:	240b0000 	li	t3,0
9d00755c:	25adffe0 	addiu	t5,t5,-32

9d007560 <L10>:
9d007560:	71873820 	clz	a3,t4
9d007564:	10e0ff7f 	beqz	a3,9d007364 <Alab2>
9d007568:	00000000 	nop
9d00756c:	01a76823 	subu	t5,t5,a3
9d007570:	00073022 	neg	a2,a3
9d007574:	00cb3006 	srlv	a2,t3,a2
9d007578:	00eb5804 	sllv	t3,t3,a3
9d00757c:	00ec6004 	sllv	t4,t4,a3
9d007580:	1000ff78 	b	9d007364 <Alab2>
9d007584:	01866025 	or	t4,t4,a2

9d007588 <i5>:
9d007588:	000c7840 	sll	t7,t4,0x1
9d00758c:	01eb7825 	or	t7,t7,t3
9d007590:	11e0ffc1 	beqz	t7,9d007498 <Aret2>
9d007594:	00000000 	nop

9d007598 <Anan>:
9d007598:	3c05fff8 	lui	a1,0xfff8
9d00759c:	1000ffbe 	b	9d007498 <Aret2>
9d0075a0:	24040000 	li	a0,0
9d0075a4:	00000000 	nop

Disassembly of section .text.malloc:

9d0075a8 <malloc>:
9d0075a8:	27bdffd8 	addiu	sp,sp,-40
9d0075ac:	afa40028 	sw	a0,40(sp)
9d0075b0:	27a40028 	addiu	a0,sp,40
9d0075b4:	afbf0024 	sw	ra,36(sp)
9d0075b8:	afb10020 	sw	s1,32(sp)
9d0075bc:	0f402bc8 	jal	9d00af20 <adjust_size>
9d0075c0:	afb0001c 	sw	s0,28(sp)
9d0075c4:	04410007 	bgez	v0,9d0075e4 <malloc+0x3c>
9d0075c8:	8fa20028 	lw	v0,40(sp)
9d0075cc:	00001025 	move	v0,zero
9d0075d0:	8fbf0024 	lw	ra,36(sp)
9d0075d4:	8fb10020 	lw	s1,32(sp)
9d0075d8:	8fb0001c 	lw	s0,28(sp)
9d0075dc:	03e00008 	jr	ra
9d0075e0:	27bd0028 	addiu	sp,sp,40
9d0075e4:	00021102 	srl	v0,v0,0x4
9d0075e8:	2451ffff 	addiu	s1,v0,-1
9d0075ec:	2e230021 	sltiu	v1,s1,33
9d0075f0:	14600009 	bnez	v1,9d007618 <malloc+0x70>
9d0075f4:	2442fffe 	addiu	v0,v0,-2
9d0075f8:	3c039d01 	lui	v1,0x9d01
9d0075fc:	2c440200 	sltiu	a0,v0,512
9d007600:	10800023 	beqz	a0,9d007690 <malloc+0xe8>
9d007604:	2463ae8c 	addiu	v1,v1,-20852
9d007608:	000210c2 	srl	v0,v0,0x3
9d00760c:	00621021 	addu	v0,v1,v0
9d007610:	9051fffc 	lbu	s1,-4(v0)
9d007614:	26310001 	addiu	s1,s1,1
9d007618:	02203025 	move	a2,s1
9d00761c:	24040001 	li	a0,1
9d007620:	0f402d77 	jal	9d00b5dc <__ashldi3>
9d007624:	00002825 	move	a1,zero
9d007628:	00025823 	negu	t3,v0
9d00762c:	000b382b 	sltu	a3,zero,t3
9d007630:	00031823 	negu	v1,v1
9d007634:	3c0aa000 	lui	t2,0xa000
9d007638:	3c089d01 	lui	t0,0x9d01
9d00763c:	00673823 	subu	a3,v1,a3
9d007640:	2508ae6c 	addiu	t0,t0,-20884
9d007644:	3c0c076b 	lui	t4,0x76b
9d007648:	25491928 	addiu	t1,t2,6440
9d00764c:	8d421928 	lw	v0,6440(t2)
9d007650:	8d43192c 	lw	v1,6444(t2)
9d007654:	01622824 	and	a1,t3,v0
9d007658:	00e31824 	and	v1,a3,v1
9d00765c:	00a32025 	or	a0,a1,v1
9d007660:	14800039 	bnez	a0,9d007748 <malloc+0x1a0>
9d007664:	8fa20028 	lw	v0,40(sp)
9d007668:	27a40010 	addiu	a0,sp,16
9d00766c:	24420010 	addiu	v0,v0,16
9d007670:	0f402d3b 	jal	9d00b4ec <__expand_heap>
9d007674:	afa20010 	sw	v0,16(sp)
9d007678:	1440000a 	bnez	v0,9d0076a4 <malloc+0xfc>
9d00767c:	3c03a000 	lui	v1,0xa000
9d007680:	3c03a000 	lui	v1,0xa000
9d007684:	2404000c 	li	a0,12
9d007688:	1000ffd1 	b	9d0075d0 <malloc+0x28>
9d00768c:	ac641c78 	sw	a0,7288(v1)
9d007690:	000211c2 	srl	v0,v0,0x7
9d007694:	00621021 	addu	v0,v1,v0
9d007698:	9051fffc 	lbu	s1,-4(v0)
9d00769c:	1000ffde 	b	9d007618 <malloc+0x70>
9d0076a0:	26310011 	addiu	s1,s1,17
9d0076a4:	8c711920 	lw	s1,6432(v1)
9d0076a8:	10510006 	beq	v0,s1,9d0076c4 <malloc+0x11c>
9d0076ac:	8fa40010 	lw	a0,16(sp)
9d0076b0:	24510010 	addiu	s1,v0,16
9d0076b4:	2484fff0 	addiu	a0,a0,-16
9d0076b8:	afa40010 	sw	a0,16(sp)
9d0076bc:	24040001 	li	a0,1
9d0076c0:	ac440008 	sw	a0,8(v0)
9d0076c4:	8fa20010 	lw	v0,16(sp)
9d0076c8:	2630fff8 	addiu	s0,s1,-8
9d0076cc:	02222021 	addu	a0,s1,v0
9d0076d0:	ac641920 	sw	a0,6432(v1)
9d0076d4:	34420001 	ori	v0,v0,0x1
9d0076d8:	24030001 	li	v1,1
9d0076dc:	ac82fff8 	sw	v0,-8(a0)
9d0076e0:	ac83fffc 	sw	v1,-4(a0)
9d0076e4:	1200ffb9 	beqz	s0,9d0075cc <malloc+0x24>
9d0076e8:	ae22fffc 	sw	v0,-4(s1)
9d0076ec:	0f402ab8 	jal	9d00aae0 <alloc_rev>
9d0076f0:	02002025 	move	a0,s0
9d0076f4:	10400010 	beqz	v0,9d007738 <malloc+0x190>
9d0076f8:	8fa50028 	lw	a1,40(sp)
9d0076fc:	8e23fff8 	lw	v1,-8(s1)
9d007700:	2402fffe 	li	v0,-2
9d007704:	8e25fffc 	lw	a1,-4(s1)
9d007708:	00431824 	and	v1,v0,v1
9d00770c:	02031823 	subu	v1,s0,v1
9d007710:	8c640004 	lw	a0,4(v1)
9d007714:	00442024 	and	a0,v0,a0
9d007718:	00852021 	addu	a0,a0,a1
9d00771c:	ac640004 	sw	a0,4(v1)
9d007720:	8e25fffc 	lw	a1,-4(s1)
9d007724:	00451024 	and	v0,v0,a1
9d007728:	02028021 	addu	s0,s0,v0
9d00772c:	ae040000 	sw	a0,0(s0)
9d007730:	00608025 	move	s0,v1
9d007734:	8fa50028 	lw	a1,40(sp)
9d007738:	0f402bde 	jal	9d00af78 <trim>
9d00773c:	02002025 	move	a0,s0
9d007740:	1000ffa3 	b	9d0075d0 <malloc+0x28>
9d007744:	26020008 	addiu	v0,s0,8
9d007748:	54a00032 	bnezl	a1,9d007814 <malloc+0x26c>
9d00774c:	00052023 	negu	a0,a1
9d007750:	00032023 	negu	a0,v1
9d007754:	00832024 	and	a0,a0,v1
9d007758:	3582e629 	ori	v0,t4,0xe629
9d00775c:	70822002 	mul	a0,a0,v0
9d007760:	000426c2 	srl	a0,a0,0x1b
9d007764:	01042021 	addu	a0,t0,a0
9d007768:	80860000 	lb	a2,0(a0)
9d00776c:	24c60020 	addiu	a2,a2,32
9d007770:	0f402d94 	jal	9d00b650 <lock_bin>
9d007774:	00c02025 	move	a0,a2
9d007778:	24c40001 	addiu	a0,a2,1
9d00777c:	000420c0 	sll	a0,a0,0x3
9d007780:	00891021 	addu	v0,a0,t1
9d007784:	8c500000 	lw	s0,0(v0)
9d007788:	2484fff8 	addiu	a0,a0,-8
9d00778c:	01242021 	addu	a0,t1,a0
9d007790:	1204ffae 	beq	s0,a0,9d00764c <malloc+0xa4>
9d007794:	28c20028 	slti	v0,a2,40
9d007798:	14400025 	bnez	v0,9d007830 <malloc+0x288>
9d00779c:	26310002 	addiu	s1,s1,2
9d0077a0:	0226882a 	slt	s1,s1,a2
9d0077a4:	56200005 	bnezl	s1,9d0077bc <malloc+0x214>
9d0077a8:	8e070004 	lw	a3,4(s0)
9d0077ac:	2402003f 	li	v0,63
9d0077b0:	14c20020 	bne	a2,v0,9d007834 <malloc+0x28c>
9d0077b4:	00c02825 	move	a1,a2
9d0077b8:	8e070004 	lw	a3,4(s0)
9d0077bc:	8fa50028 	lw	a1,40(sp)
9d0077c0:	7c070004 	ins	a3,zero,0x0,0x1
9d0077c4:	00e54023 	subu	t0,a3,a1
9d0077c8:	0f402b0c 	jal	9d00ac30 <bin_index>
9d0077cc:	01002025 	move	a0,t0
9d0077d0:	54c20018 	bnel	a2,v0,9d007834 <malloc+0x28c>
9d0077d4:	00c02825 	move	a1,a2
9d0077d8:	8e03000c 	lw	v1,12(s0)
9d0077dc:	8e040008 	lw	a0,8(s0)
9d0077e0:	02051021 	addu	v0,s0,a1
9d0077e4:	ac43000c 	sw	v1,12(v0)
9d0077e8:	ac440008 	sw	a0,8(v0)
9d0077ec:	ac620008 	sw	v0,8(v1)
9d0077f0:	8c430008 	lw	v1,8(v0)
9d0077f4:	34a50001 	ori	a1,a1,0x1
9d0077f8:	02073821 	addu	a3,s0,a3
9d0077fc:	ac62000c 	sw	v0,12(v1)
9d007800:	ac450000 	sw	a1,0(v0)
9d007804:	ac480004 	sw	t0,4(v0)
9d007808:	ace80000 	sw	t0,0(a3)
9d00780c:	1000ffc9 	b	9d007734 <malloc+0x18c>
9d007810:	ae050004 	sw	a1,4(s0)
9d007814:	00852024 	and	a0,a0,a1
9d007818:	3582e629 	ori	v0,t4,0xe629
9d00781c:	70822002 	mul	a0,a0,v0
9d007820:	000426c2 	srl	a0,a0,0x1b
9d007824:	01042021 	addu	a0,t0,a0
9d007828:	1000ffd1 	b	9d007770 <malloc+0x1c8>
9d00782c:	80860000 	lb	a2,0(a0)
9d007830:	00c02825 	move	a1,a2
9d007834:	0f40272e 	jal	9d009cb8 <unbin>
9d007838:	02002025 	move	a0,s0
9d00783c:	1000ffbe 	b	9d007738 <malloc+0x190>
9d007840:	8fa50028 	lw	a1,40(sp)

Disassembly of section .text.fpsubadd:

9d007844 <__subsf3>:
9d007844:	3c018000 00a12826                       ...<&(..

9d00784c <__addsf3>:
9d00784c:	00044dc2 312900ff 00055dc2 316b00ff     .M....)1.]....k1
9d00785c:	3c078000 00044200 01074025 00055200     ...<.B..%@...R..
9d00786c:	01475025 252dffff 2da100fe 10200061     %PG...-%...-a. .
9d00787c:	00000000                                ....

9d007880 <Blab1>:
9d007880:	256dffff 	addiu	t5,t3,-1
9d007884:	2da100fe 	sltiu	at,t5,254
9d007888:	10200077 	beqz	at,9d007a68 <BspecB>
9d00788c:	00000000 	nop

9d007890 <Blab2>:
9d007890:	012b6023 	subu	t4,t1,t3
9d007894:	0580000d 	bltz	t4,9d0078cc <i1>
9d007898:	00000000 	nop
9d00789c:	29810020 	slti	at,t4,32
9d0078a0:	14200003 	bnez	at,9d0078b0 <i2>
9d0078a4:	00000000 	nop
9d0078a8:	10000015 	b	9d007900 <e1>
9d0078ac:	240a0002 	li	t2,2

9d0078b0 <i2>:
9d0078b0:	000a3025 	or	a2,zero,t2
9d0078b4:	018a5006 	srlv	t2,t2,t4
9d0078b8:	018a6804 	sllv	t5,t2,t4
9d0078bc:	11a60010 	beq	t5,a2,9d007900 <e1>
9d0078c0:	00000000 	nop
9d0078c4:	1000000e 	b	9d007900 <e1>
9d0078c8:	354a0002 	ori	t2,t2,0x2

9d0078cc <i1>:
9d0078cc:	000b4825 	or	t1,zero,t3
9d0078d0:	000c6023 	negu	t4,t4
9d0078d4:	29810020 	slti	at,t4,32
9d0078d8:	14200003 	bnez	at,9d0078e8 <i4>
9d0078dc:	00000000 	nop
9d0078e0:	10000007 	b	9d007900 <e1>
9d0078e4:	24080002 	li	t0,2

9d0078e8 <i4>:
9d0078e8:	00083025 	or	a2,zero,t0
9d0078ec:	01884006 	srlv	t0,t0,t4
9d0078f0:	01886804 	sllv	t5,t0,t4
9d0078f4:	11a60002 	beq	t5,a2,9d007900 <e1>
9d0078f8:	00000000 	nop
9d0078fc:	35080002 	ori	t0,t0,0x2

9d007900 <e1>:
9d007900:	00876024 	and	t4,a0,a3
9d007904:	01856826 	xor	t5,t4,a1
9d007908:	05a00010 	bltz	t5,9d00794c <Bsub1>
9d00790c:	00000000 	nop
9d007910:	010a4021 	addu	t0,t0,t2
9d007914:	010a682b 	sltu	t5,t0,t2
9d007918:	11a00017 	beqz	t5,9d007978 <Bres>
9d00791c:	00000000 	nop
9d007920:	310d0001 	andi	t5,t0,0x1
9d007924:	11a00002 	beqz	t5,9d007930 <i7>
9d007928:	00000000 	nop
9d00792c:	35080002 	ori	t0,t0,0x2

9d007930 <i7>:
9d007930:	00084042 	srl	t0,t0,0x1
9d007934:	25290001 	addiu	t1,t1,1
9d007938:	240100ff 	li	at,255
9d00793c:	1521000e 	bne	t1,at,9d007978 <Bres>
9d007940:	00000000 	nop
9d007944:	1000000c 	b	9d007978 <Bres>
9d007948:	24080000 	li	t0,0

9d00794c <Bsub1>:
9d00794c:	010a682b 	sltu	t5,t0,t2
9d007950:	11a00004 	beqz	t5,9d007964 <i9>
9d007954:	010a4023 	subu	t0,t0,t2
9d007958:	00084023 	negu	t0,t0
9d00795c:	10000003 	b	9d00796c <e9>
9d007960:	01876026 	xor	t4,t4,a3

9d007964 <i9>:
9d007964:	11000050 	beqz	t0,9d007aa8 <Bzer>
9d007968:	00000000 	nop

9d00796c <e9>:
9d00796c:	71063020 	clz	a2,t0
9d007970:	01264823 	subu	t1,t1,a2
9d007974:	00c84004 	sllv	t0,t0,a2

9d007978 <Bres>:
9d007978:	1920000e 	blez	t1,9d0079b4 <Bund>
9d00797c:	00000000 	nop

9d007980 <Blab12>:
9d007980:	25080080 	addiu	t0,t0,128
9d007984:	2d0d0080 	sltiu	t5,t0,128
9d007988:	012d4821 	addu	t1,t1,t5
9d00798c:	00086a02 	srl	t5,t0,0x8
9d007990:	31ad0001 	andi	t5,t5,0x1
9d007994:	010d4023 	subu	t0,t0,t5
9d007998:	00084040 	sll	t0,t0,0x1
9d00799c:	00084242 	srl	t0,t0,0x9
9d0079a0:	00096dc0 	sll	t5,t1,0x17
9d0079a4:	010d4025 	or	t0,t0,t5
9d0079a8:	010c1025 	or	v0,t0,t4

9d0079ac <B999>:
9d0079ac:	03e00008 	jr	ra
9d0079b0:	00000000 	nop

9d0079b4 <Bund>:
9d0079b4:	24060001 	li	a2,1
9d0079b8:	00c93023 	subu	a2,a2,t1
9d0079bc:	2cc10020 	sltiu	at,a2,32
9d0079c0:	10200039 	beqz	at,9d007aa8 <Bzer>
9d0079c4:	00000000 	nop
9d0079c8:	3c018000 	lui	at,0x8000
9d0079cc:	01014025 	or	t0,t0,at
9d0079d0:	240d0020 	li	t5,32
9d0079d4:	01a66823 	subu	t5,t5,a2
9d0079d8:	01a84804 	sllv	t1,t0,t5
9d0079dc:	11200002 	beqz	t1,9d0079e8 <i10>
9d0079e0:	00c84006 	srlv	t0,t0,a2
9d0079e4:	35080001 	ori	t0,t0,0x1

9d0079e8 <i10>:
9d0079e8:	24090000 	li	t1,0
9d0079ec:	250d0080 	addiu	t5,t0,128
9d0079f0:	05a1ffe3 	bgez	t5,9d007980 <Blab12>
9d0079f4:	00000000 	nop
9d0079f8:	1000ffe1 	b	9d007980 <Blab12>
9d0079fc:	24090001 	li	t1,1

9d007a00 <BspecA>:
9d007a00:	1520000e 	bnez	t1,9d007a3c <i12>
9d007a04:	00000000 	nop
9d007a08:	01084021 	addu	t0,t0,t0
9d007a0c:	11000005 	beqz	t0,9d007a24 <i13>
9d007a10:	00000000 	nop
9d007a14:	710c6020 	clz	t4,t0
9d007a18:	012c4823 	subu	t1,t1,t4
9d007a1c:	1000ff98 	b	9d007880 <Blab1>
9d007a20:	01884004 	sllv	t0,t0,t4

9d007a24 <i13>:
9d007a24:	240100ff 	li	at,255
9d007a28:	1161000f 	beq	t3,at,9d007a68 <BspecB>
9d007a2c:	00000000 	nop
9d007a30:	3c018000 	lui	at,0x8000
9d007a34:	14a10018 	bne	a1,at,9d007a98 <BretB>
9d007a38:	00000000 	nop

9d007a3c <i12>:
9d007a3c:	01086821 	addu	t5,t0,t0
9d007a40:	15a0001b 	bnez	t5,9d007ab0 <Bnan>
9d007a44:	00000000 	nop
9d007a48:	240100ff 	li	at,255
9d007a4c:	15610014 	bne	t3,at,9d007aa0 <BretA>
9d007a50:	00000000 	nop
9d007a54:	00856826 	xor	t5,a0,a1
9d007a58:	05a00015 	bltz	t5,9d007ab0 <Bnan>
9d007a5c:	00000000 	nop
9d007a60:	1000000d 	b	9d007a98 <BretB>
9d007a64:	00000000 	nop

9d007a68 <BspecB>:
9d007a68:	15600008 	bnez	t3,9d007a8c <i15>
9d007a6c:	00000000 	nop
9d007a70:	014a5021 	addu	t2,t2,t2
9d007a74:	1140000a 	beqz	t2,9d007aa0 <BretA>
9d007a78:	00000000 	nop
9d007a7c:	714c6020 	clz	t4,t2
9d007a80:	016c5823 	subu	t3,t3,t4
9d007a84:	1000ff82 	b	9d007890 <Blab2>
9d007a88:	018a5004 	sllv	t2,t2,t4

9d007a8c <i15>:
9d007a8c:	014a6821 	addu	t5,t2,t2
9d007a90:	15a00007 	bnez	t5,9d007ab0 <Bnan>
9d007a94:	00000000 	nop

9d007a98 <BretB>:
9d007a98:	1000ffc4 	b	9d0079ac <B999>
9d007a9c:	00051025 	or	v0,zero,a1

9d007aa0 <BretA>:
9d007aa0:	1000ffc2 	b	9d0079ac <B999>
9d007aa4:	00041025 	or	v0,zero,a0

9d007aa8 <Bzer>:
9d007aa8:	1000ffc0 	b	9d0079ac <B999>
9d007aac:	24020000 	li	v0,0

9d007ab0 <Bnan>:
9d007ab0:	1000ffbe 	b	9d0079ac <B999>
9d007ab4:	3c02ffc0 	lui	v0,0xffc0
9d007ab8:	00000000 	nop

Disassembly of section .text.__fmt_x:

9d007abc <__fmt_x>:
9d007abc:	27bdffa8 	addiu	sp,sp,-88
9d007ac0:	afb10034 	sw	s1,52(sp)
9d007ac4:	8cb10004 	lw	s1,4(a1)
9d007ac8:	afbe0050 	sw	s8,80(sp)
9d007acc:	afb7004c 	sw	s7,76(sp)
9d007ad0:	afb50044 	sw	s5,68(sp)
9d007ad4:	afb3003c 	sw	s3,60(sp)
9d007ad8:	00e04825 	move	t1,a3
9d007adc:	afbf0054 	sw	ra,84(sp)
9d007ae0:	afb60048 	sw	s6,72(sp)
9d007ae4:	afb40040 	sw	s4,64(sp)
9d007ae8:	afb20038 	sw	s2,56(sp)
9d007aec:	afb00030 	sw	s0,48(sp)
9d007af0:	00809825 	move	s3,a0
9d007af4:	00a0a825 	move	s5,a1
9d007af8:	8ca70008 	lw	a3,8(a1)
9d007afc:	8cbe0000 	lw	s8,0(a1)
9d007b00:	0620004c 	bltz	s1,9d007c34 <__fmt_x+0x178>
9d007b04:	8cb7000c 	lw	s7,12(a1)
9d007b08:	7c1e0844 	ins	s8,zero,0x1,0x1
9d007b0c:	33ca0010 	andi	t2,s8,0x10
9d007b10:	8cd60000 	lw	s6,0(a2)
9d007b14:	8cc80004 	lw	t0,4(a2)
9d007b18:	11400004 	beqz	t2,9d007b2c <__fmt_x+0x70>
9d007b1c:	00e01025 	move	v0,a3
9d007b20:	02c81825 	or	v1,s6,t0
9d007b24:	54600001 	bnezl	v1,9d007b2c <__fmt_x+0x70>
9d007b28:	24e2fffe 	addiu	v0,a3,-2
9d007b2c:	33cb0008 	andi	t3,s8,0x8
9d007b30:	55600001 	bnezl	t3,9d007b38 <__fmt_x+0x7c>
9d007b34:	2442ffff 	addiu	v0,v0,-1
9d007b38:	8eb00010 	lw	s0,16(s5)
9d007b3c:	2534ffbf 	addiu	s4,t1,-65
9d007b40:	00519023 	subu	s2,v0,s1
9d007b44:	2610ffff 	addiu	s0,s0,-1
9d007b48:	02f01821 	addu	v1,s7,s0
9d007b4c:	a0600000 	sb	zero,0(v1)
9d007b50:	33c50002 	andi	a1,s8,0x2
9d007b54:	2e94001a 	sltiu	s4,s4,26
9d007b58:	2a020002 	slti	v0,s0,2
9d007b5c:	1440000a 	bnez	v0,9d007b88 <__fmt_x+0xcc>
9d007b60:	02c81025 	or	v0,s6,t0
9d007b64:	14400035 	bnez	v0,9d007c3c <__fmt_x+0x180>
9d007b68:	32c3000f 	andi	v1,s6,0xf
9d007b6c:	1e200034 	bgtz	s1,9d007c40 <__fmt_x+0x184>
9d007b70:	2864000a 	slti	a0,v1,10
9d007b74:	02511021 	addu	v0,s2,s1
9d007b78:	18400003 	blez	v0,9d007b88 <__fmt_x+0xcc>
9d007b7c:	00000000 	nop
9d007b80:	54a00030 	bnezl	a1,9d007c44 <__fmt_x+0x188>
9d007b84:	2610ffff 	addiu	s0,s0,-1
9d007b88:	1140000b 	beqz	t2,9d007bb8 <__fmt_x+0xfc>
9d007b8c:	00000000 	nop
9d007b90:	8cc20000 	lw	v0,0(a2)
9d007b94:	8cc30004 	lw	v1,4(a2)
9d007b98:	00431025 	or	v0,v0,v1
9d007b9c:	10400006 	beqz	v0,9d007bb8 <__fmt_x+0xfc>
9d007ba0:	02f01021 	addu	v0,s7,s0
9d007ba4:	2610fffe 	addiu	s0,s0,-2
9d007ba8:	a049ffff 	sb	t1,-1(v0)
9d007bac:	24030030 	li	v1,48
9d007bb0:	02f01021 	addu	v0,s7,s0
9d007bb4:	a0430000 	sb	v1,0(v0)
9d007bb8:	51600006 	beqzl	t3,9d007bd4 <__fmt_x+0x118>
9d007bbc:	8ea60010 	lw	a2,16(s5)
9d007bc0:	2610ffff 	addiu	s0,s0,-1
9d007bc4:	02f01021 	addu	v0,s7,s0
9d007bc8:	24030020 	li	v1,32
9d007bcc:	a0430000 	sb	v1,0(v0)
9d007bd0:	8ea60010 	lw	a2,16(s5)
9d007bd4:	afbe0010 	sw	s8,16(sp)
9d007bd8:	02f02821 	addu	a1,s7,s0
9d007bdc:	24c6ffff 	addiu	a2,a2,-1
9d007be0:	00d03023 	subu	a2,a2,s0
9d007be4:	0f40249b 	jal	9d00926c <__pad>
9d007be8:	02602025 	move	a0,s3
9d007bec:	8e630004 	lw	v1,4(s3)
9d007bf0:	30630100 	andi	v1,v1,0x100
9d007bf4:	10600004 	beqz	v1,9d007c08 <__fmt_x+0x14c>
9d007bf8:	8fbf0054 	lw	ra,84(sp)
9d007bfc:	8ea30004 	lw	v1,4(s5)
9d007c00:	0043202a 	slt	a0,v0,v1
9d007c04:	0064100b 	movn	v0,v1,a0
9d007c08:	8fbe0050 	lw	s8,80(sp)
9d007c0c:	8fb7004c 	lw	s7,76(sp)
9d007c10:	8fb60048 	lw	s6,72(sp)
9d007c14:	8fb50044 	lw	s5,68(sp)
9d007c18:	8fb40040 	lw	s4,64(sp)
9d007c1c:	8fb3003c 	lw	s3,60(sp)
9d007c20:	8fb20038 	lw	s2,56(sp)
9d007c24:	8fb10034 	lw	s1,52(sp)
9d007c28:	8fb00030 	lw	s0,48(sp)
9d007c2c:	03e00008 	jr	ra
9d007c30:	27bd0058 	addiu	sp,sp,88
9d007c34:	1000ffb5 	b	9d007b0c <__fmt_x+0x50>
9d007c38:	24110001 	li	s1,1
9d007c3c:	2864000a 	slti	a0,v1,10
9d007c40:	2610ffff 	addiu	s0,s0,-1
9d007c44:	10800002 	beqz	a0,9d007c50 <__fmt_x+0x194>
9d007c48:	24620057 	addiu	v0,v1,87
9d007c4c:	24620030 	addiu	v0,v1,48
9d007c50:	12800017 	beqz	s4,9d007cb0 <__fmt_x+0x1f4>
9d007c54:	02f01821 	addu	v1,s7,s0
9d007c58:	34430020 	ori	v1,v0,0x20
9d007c5c:	2463ff9f 	addiu	v1,v1,-97
9d007c60:	2c63001a 	sltiu	v1,v1,26
9d007c64:	10600012 	beqz	v1,9d007cb0 <__fmt_x+0x1f4>
9d007c68:	02f01821 	addu	v1,s7,s0
9d007c6c:	00402025 	move	a0,v0
9d007c70:	afa50028 	sw	a1,40(sp)
9d007c74:	afa80024 	sw	t0,36(sp)
9d007c78:	afa90064 	sw	t1,100(sp)
9d007c7c:	afa60060 	sw	a2,96(sp)
9d007c80:	afa70020 	sw	a3,32(sp)
9d007c84:	afab001c 	sw	t3,28(sp)
9d007c88:	0f402e96 	jal	9d00ba58 <toupper>
9d007c8c:	afaa0018 	sw	t2,24(sp)
9d007c90:	8fa50028 	lw	a1,40(sp)
9d007c94:	8fa80024 	lw	t0,36(sp)
9d007c98:	8fa90064 	lw	t1,100(sp)
9d007c9c:	8fa60060 	lw	a2,96(sp)
9d007ca0:	8fa70020 	lw	a3,32(sp)
9d007ca4:	8fab001c 	lw	t3,28(sp)
9d007ca8:	8faa0018 	lw	t2,24(sp)
9d007cac:	02f01821 	addu	v1,s7,s0
9d007cb0:	a0620000 	sb	v0,0(v1)
9d007cb4:	0016b102 	srl	s6,s6,0x4
9d007cb8:	00081700 	sll	v0,t0,0x1c
9d007cbc:	2631ffff 	addiu	s1,s1,-1
9d007cc0:	0056b025 	or	s6,v0,s6
9d007cc4:	1000ffa4 	b	9d007b58 <__fmt_x+0x9c>
9d007cc8:	00084102 	srl	t0,t0,0x4

Disassembly of section .text.fp32mul:

9d007ccc <__mulsf3>:
9d007ccc:	00043dc2 30e700ff 00054dc2 312900ff     .=.....0.M....)1
9d007cdc:	3c0a8000 00043200 00ca3025 00054200     ...<.2..%0...B..
9d007cec:	010a4025 00856026 014c5024 24ecffff     %@..&`..$PL....$
9d007cfc:	2d8100fe 10200021 00000000              ...-!. .....

9d007d08 <Clab1>:
9d007d08:	252cffff 	addiu	t4,t1,-1
9d007d0c:	2d8100fe 	sltiu	at,t4,254
9d007d10:	10200036 	beqz	at,9d007dec <CspecB>
9d007d14:	00000000 	nop

9d007d18 <Clab2>:
9d007d18:	00c80019 	multu	a2,t0
9d007d1c:	00005812 	mflo	t3
9d007d20:	11600002 	beqz	t3,9d007d2c <i17>
9d007d24:	00003010 	mfhi	a2
9d007d28:	34c60001 	ori	a2,a2,0x1

9d007d2c <i17>:
9d007d2c:	04c00003 	bltz	a2,9d007d3c <i18>
9d007d30:	00000000 	nop
9d007d34:	00063040 	sll	a2,a2,0x1
9d007d38:	24e7ffff 	addiu	a3,a3,-1

9d007d3c <i18>:
9d007d3c:	252cff82 	addiu	t4,t1,-126
9d007d40:	00ec3821 	addu	a3,a3,t4
9d007d44:	24ecffff 	addiu	t4,a3,-1
9d007d48:	2d8100fe 	sltiu	at,t4,254
9d007d4c:	1020003a 	beqz	at,9d007e38 <Coveund>
9d007d50:	00000000 	nop

9d007d54 <Clab8>:
9d007d54:	24c60080 	addiu	a2,a2,128
9d007d58:	2ccc0080 	sltiu	t4,a2,128
9d007d5c:	00ec3821 	addu	a3,a3,t4
9d007d60:	00066202 	srl	t4,a2,0x8
9d007d64:	318c0001 	andi	t4,t4,0x1
9d007d68:	00cc3023 	subu	a2,a2,t4
9d007d6c:	00063040 	sll	a2,a2,0x1
9d007d70:	00063242 	srl	a2,a2,0x9
9d007d74:	000765c0 	sll	t4,a3,0x17
9d007d78:	00cc3025 	or	a2,a2,t4
9d007d7c:	00ca1025 	or	v0,a2,t2

9d007d80 <C999>:
9d007d80:	03e00008 	jr	ra
9d007d84:	00000000 	nop

9d007d88 <CspecA>:
9d007d88:	14e0000d 	bnez	a3,9d007dc0 <i19>
9d007d8c:	00000000 	nop
9d007d90:	00c63021 	addu	a2,a2,a2
9d007d94:	10c00005 	beqz	a2,9d007dac <i20>
9d007d98:	00000000 	nop
9d007d9c:	70cb5820 	clz	t3,a2
9d007da0:	00eb3823 	subu	a3,a3,t3
9d007da4:	1000ffd8 	b	9d007d08 <Clab1>
9d007da8:	01663004 	sllv	a2,a2,t3

9d007dac <i20>:
9d007dac:	240100ff 	li	at,255
9d007db0:	1121001f 	beq	t1,at,9d007e30 <Cnan>
9d007db4:	00000000 	nop
9d007db8:	10000015 	b	9d007e10 <Czer>
9d007dbc:	00000000 	nop

9d007dc0 <i19>:
9d007dc0:	00c66021 	addu	t4,a2,a2
9d007dc4:	1580001a 	bnez	t4,9d007e30 <Cnan>
9d007dc8:	00000000 	nop
9d007dcc:	15200004 	bnez	t1,9d007de0 <i21>
9d007dd0:	00000000 	nop
9d007dd4:	01086021 	addu	t4,t0,t0
9d007dd8:	11800015 	beqz	t4,9d007e30 <Cnan>
9d007ddc:	00000000 	nop

9d007de0 <i21>:
9d007de0:	240100ff 	li	at,255
9d007de4:	1521000f 	bne	t1,at,9d007e24 <Cinf>
9d007de8:	00000000 	nop

9d007dec <CspecB>:
9d007dec:	1520000a 	bnez	t1,9d007e18 <i22>
9d007df0:	00000000 	nop
9d007df4:	01084021 	addu	t0,t0,t0
9d007df8:	11000005 	beqz	t0,9d007e10 <Czer>
9d007dfc:	00000000 	nop
9d007e00:	710b5820 	clz	t3,t0
9d007e04:	012b4823 	subu	t1,t1,t3
9d007e08:	1000ffc3 	b	9d007d18 <Clab2>
9d007e0c:	01684004 	sllv	t0,t0,t3

9d007e10 <Czer>:
9d007e10:	1000ffdb 	b	9d007d80 <C999>
9d007e14:	000a1025 	or	v0,zero,t2

9d007e18 <i22>:
9d007e18:	01086021 	addu	t4,t0,t0
9d007e1c:	15800004 	bnez	t4,9d007e30 <Cnan>
9d007e20:	00000000 	nop

9d007e24 <Cinf>:
9d007e24:	3c017f80 	lui	at,0x7f80
9d007e28:	1000ffd5 	b	9d007d80 <C999>
9d007e2c:	01411025 	or	v0,t2,at

9d007e30 <Cnan>:
9d007e30:	1000ffd3 	b	9d007d80 <C999>
9d007e34:	3c02ffc0 	lui	v0,0xffc0

9d007e38 <Coveund>:
9d007e38:	1ce0fffa 	bgtz	a3,9d007e24 <Cinf>
9d007e3c:	00000000 	nop
9d007e40:	240b0001 	li	t3,1
9d007e44:	01675823 	subu	t3,t3,a3
9d007e48:	2d610020 	sltiu	at,t3,32
9d007e4c:	1020fff0 	beqz	at,9d007e10 <Czer>
9d007e50:	00000000 	nop
9d007e54:	240c0020 	li	t4,32
9d007e58:	018b6023 	subu	t4,t4,t3
9d007e5c:	01863804 	sllv	a3,a2,t4
9d007e60:	10e00002 	beqz	a3,9d007e6c <i25>
9d007e64:	01663006 	srlv	a2,a2,t3
9d007e68:	34c60002 	ori	a2,a2,0x2

9d007e6c <i25>:
9d007e6c:	24070000 	li	a3,0
9d007e70:	24cc0080 	addiu	t4,a2,128
9d007e74:	0581ffb7 	bgez	t4,9d007d54 <Clab8>
9d007e78:	00000000 	nop
9d007e7c:	1000ffb5 	b	9d007d54 <Clab8>
9d007e80:	24070001 	li	a3,1
9d007e84:	00000000 	nop

Disassembly of section .text:

9d007e88 <NU32_Startup>:

// Perform startup routines:
//  Make NU32_LED1 and NU32_LED2 pins outputs (NU32_USER is by default an input)
//  Initialize the serial port - UART3 (no interrupt) 
//  Enable interrupts
void NU32_Startup() {
9d007e88:	27bdfff8 	addiu	sp,sp,-8
9d007e8c:	afbf0004 	sw	ra,4(sp)
  // disable interrupts
  __builtin_disable_interrupts();
9d007e90:	41626000 	di	v0
9d007e94:	000000c0 	ehb
  // see Chapter 2 "CPU for Devices with M4K Core" of the PIC32 reference manual
  // most of the other bits have prescribed values
  // microchip does not provide a _CP0_SET_CONFIG macro, so we directly use
  // the compiler built-in command _mtc0
  // to disable cache, use 0xa4210582 
  __builtin_mtc0(_CP0_CONFIG, _CP0_CONFIG_SELECT, 0xa4210583); 
9d007e98:	3c02a421 	lui	v0,0xa421
9d007e9c:	24420583 	addiu	v0,v0,1411
9d007ea0:	40828000 	mtc0	v0,c0_config
9d007ea4:	000000c0 	ehb
  
  // set the prefectch cache wait state to 2, as per the
  // electrical characteristics data sheet
  CHECONbits.PFMWS = 0x2;   
9d007ea8:	3c02bf88 	lui	v0,0xbf88
9d007eac:	8c434000 	lw	v1,16384(v0)
9d007eb0:	24050002 	li	a1,2
9d007eb4:	7ca31004 	ins	v1,a1,0x0,0x3
9d007eb8:	ac434000 	sw	v1,16384(v0)

  //enable prefetch for cacheable and noncacheable memory
  CHECONbits.PREFEN = 0x3; 
9d007ebc:	8c434000 	lw	v1,16384(v0)
9d007ec0:	24040003 	li	a0,3
9d007ec4:	7c832904 	ins	v1,a0,0x4,0x2
9d007ec8:	ac434000 	sw	v1,16384(v0)

  // 0 data RAM access wait states
  BMXCONbits.BMXWSDRM = 0x0;
9d007ecc:	3c02bf88 	lui	v0,0xbf88
9d007ed0:	8c432000 	lw	v1,8192(v0)
9d007ed4:	7c033184 	ins	v1,zero,0x6,0x1
9d007ed8:	ac432000 	sw	v1,8192(v0)
  
  // enable multi vector interrupts
  INTCONbits.MVEC = 0x1;
9d007edc:	3c02bf88 	lui	v0,0xbf88
9d007ee0:	8c461000 	lw	a2,4096(v0)
9d007ee4:	24030001 	li	v1,1
9d007ee8:	7c666304 	ins	a2,v1,0xc,0x1
9d007eec:	ac461000 	sw	a2,4096(v0)

  // disable JTAG to get B10, B11, B12 and B13 back
  DDPCONbits.JTAGEN = 0;
9d007ef0:	3c02bf81 	lui	v0,0xbf81
9d007ef4:	9046f200 	lbu	a2,-3584(v0)
9d007ef8:	7c0618c4 	ins	a2,zero,0x3,0x1
9d007efc:	a046f200 	sb	a2,-3584(v0)

  TRISFCLR = 0x0003;  // Make F0 and F1 outputs (LED1 and LED2)
9d007f00:	3c02bf88 	lui	v0,0xbf88
9d007f04:	ac446144 	sw	a0,24900(v0)
  NU32_LED1 = 1;      // LED1 is off
9d007f08:	3c02bf88 	lui	v0,0xbf88
9d007f0c:	90446160 	lbu	a0,24928(v0)
9d007f10:	7c640004 	ins	a0,v1,0x0,0x1
9d007f14:	a0446160 	sb	a0,24928(v0)
  NU32_LED2 = 0;      // LED2 is on
9d007f18:	90446160 	lbu	a0,24928(v0)
9d007f1c:	7c040844 	ins	a0,zero,0x1,0x1
9d007f20:	a0446160 	sb	a0,24928(v0)

  // turn on UART3 without an interrupt
  U3MODEbits.BRGH = 0; // set baud to NU32_DESIRED_BAUD
9d007f24:	3c02bf80 	lui	v0,0xbf80
9d007f28:	94446400 	lhu	a0,25600(v0)
9d007f2c:	7c0418c4 	ins	a0,zero,0x3,0x1
9d007f30:	a4446400 	sh	a0,25600(v0)
  U3BRG = ((NU32_SYS_FREQ / NU32_DESIRED_BAUD) / 16) - 1;
9d007f34:	3c04bf80 	lui	a0,0xbf80
9d007f38:	24060014 	li	a2,20
9d007f3c:	ac866440 	sw	a2,25664(a0)

  // 8 bit, no parity bit, and 1 stop bit (8N1 setup)
  U3MODEbits.PDSEL = 0;
9d007f40:	94446400 	lhu	a0,25600(v0)
9d007f44:	7c041044 	ins	a0,zero,0x1,0x2
9d007f48:	a4446400 	sh	a0,25600(v0)
  U3MODEbits.STSEL = 0;
9d007f4c:	94446400 	lhu	a0,25600(v0)
9d007f50:	7c040004 	ins	a0,zero,0x0,0x1
9d007f54:	a4446400 	sh	a0,25600(v0)

  // configure TX & RX pins as output & input pins
  U3STAbits.UTXEN = 1;
9d007f58:	3c04bf80 	lui	a0,0xbf80
9d007f5c:	8c866410 	lw	a2,25616(a0)
9d007f60:	7c665284 	ins	a2,v1,0xa,0x1
9d007f64:	ac866410 	sw	a2,25616(a0)
  U3STAbits.URXEN = 1;
9d007f68:	8c866410 	lw	a2,25616(a0)
9d007f6c:	7c666304 	ins	a2,v1,0xc,0x1
9d007f70:	ac866410 	sw	a2,25616(a0)
  // configure hardware flow control using RTS and CTS
  U3MODEbits.UEN = 2;
9d007f74:	94446400 	lhu	a0,25600(v0)
9d007f78:	7ca44a04 	ins	a0,a1,0x8,0x2
9d007f7c:	a4446400 	sh	a0,25600(v0)

  // enable the uart
  U3MODEbits.ON = 1;
9d007f80:	94446400 	lhu	a0,25600(v0)
9d007f84:	7c647bc4 	ins	a0,v1,0xf,0x1
9d007f88:	a4446400 	sh	a0,25600(v0)

  __builtin_enable_interrupts();
9d007f8c:	41626020 	ei	v0
}
9d007f90:	8fbf0004 	lw	ra,4(sp)
9d007f94:	03e00008 	jr	ra
9d007f98:	27bd0008 	addiu	sp,sp,8

9d007f9c <NU32_ReadUART3>:
// Read from UART3
// block other functions until you get a '\r' or '\n'
// send the pointer to your char array and the number of elements in the array
void NU32_ReadUART3(char * message, int maxLength) {
  char data = 0;
  int complete = 0, num_bytes = 0;
9d007f9c:	00003025 	move	a2,zero
  // loop until you get a '\r' or '\n'
  while (!complete) {
    if (U3STAbits.URXDA) { // if data is available
9d007fa0:	3c03bf80 	lui	v1,0xbf80
      data = U3RXREG;      // read the data
9d007fa4:	3c09bf80 	lui	t1,0xbf80
      if ((data == '\n') || (data == '\r')) {
9d007fa8:	2408000a 	li	t0,10
9d007fac:	240a000d 	li	t2,13
    if (U3STAbits.URXDA) { // if data is available
9d007fb0:	8c626410 	lw	v0,25616(v1)
9d007fb4:	30420001 	andi	v0,v0,0x1
9d007fb8:	1040fffd 	beqz	v0,9d007fb0 <NU32_ReadUART3+0x14>
9d007fbc:	00000000 	nop
      data = U3RXREG;      // read the data
9d007fc0:	8d226430 	lw	v0,25648(t1)
9d007fc4:	7c021420 	seb	v0,v0
      if ((data == '\n') || (data == '\r')) {
9d007fc8:	50480009 	beql	v0,t0,9d007ff0 <NU32_ReadUART3+0x54>
9d007fcc:	00862021 	addu	a0,a0,a2
9d007fd0:	104a0006 	beq	v0,t2,9d007fec <NU32_ReadUART3+0x50>
9d007fd4:	00863821 	addu	a3,a0,a2
        complete = 1;
      } else {
        message[num_bytes] = data;
9d007fd8:	a0e20000 	sb	v0,0(a3)
        ++num_bytes;
9d007fdc:	24c60001 	addiu	a2,a2,1
        // roll over if the array is too small
        if (num_bytes >= maxLength) {
9d007fe0:	00c5102a 	slt	v0,a2,a1
9d007fe4:	1000fff2 	b	9d007fb0 <NU32_ReadUART3+0x14>
9d007fe8:	0002300a 	movz	a2,zero,v0
        }
      }
    }
  }
  // end the string
  message[num_bytes] = '\0';
9d007fec:	00862021 	addu	a0,a0,a2
}
9d007ff0:	03e00008 	jr	ra
9d007ff4:	a0800000 	sb	zero,0(a0)

9d007ff8 <NU32_WriteUART3>:

// Write a character array using UART3
void NU32_WriteUART3(const char * string) {
  while (*string != '\0') {
9d007ff8:	80850000 	lb	a1,0(a0)
9d007ffc:	10a0000b 	beqz	a1,9d00802c <NU32_WriteUART3+0x34>
9d008000:	3c03bf80 	lui	v1,0xbf80
    while (U3STAbits.UTXBF) {
      ; // wait until tx buffer isn't full
    }
    U3TXREG = *string;
9d008004:	3c06bf80 	lui	a2,0xbf80
    while (U3STAbits.UTXBF) {
9d008008:	8c626410 	lw	v0,25616(v1)
9d00800c:	7c420240 	ext	v0,v0,0x9,0x1
9d008010:	1440fffd 	bnez	v0,9d008008 <NU32_WriteUART3+0x10>
9d008014:	00000000 	nop
    U3TXREG = *string;
9d008018:	acc56420 	sw	a1,25632(a2)
    ++string;
9d00801c:	24840001 	addiu	a0,a0,1
  while (*string != '\0') {
9d008020:	80850000 	lb	a1,0(a0)
9d008024:	14a0fff8 	bnez	a1,9d008008 <NU32_WriteUART3+0x10>
9d008028:	00000000 	nop
  }
}
9d00802c:	03e00008 	jr	ra
9d008030:	00000000 	nop

Disassembly of section .text.free:

9d008034 <free>:
9d008034:	10800064 	beqz	a0,9d0081c8 <free+0x194>
9d008038:	00000000 	nop
9d00803c:	8c82fffc 	lw	v0,-4(a0)
9d008040:	27bdffd0 	addiu	sp,sp,-48
9d008044:	afb2001c 	sw	s2,28(sp)
9d008048:	00409025 	move	s2,v0
9d00804c:	afb00014 	sw	s0,20(sp)
9d008050:	7c120004 	ins	s2,zero,0x0,0x1
9d008054:	2490fff8 	addiu	s0,a0,-8
9d008058:	afb10018 	sw	s1,24(sp)
9d00805c:	02128821 	addu	s1,s0,s2
9d008060:	8e230000 	lw	v1,0(s1)
9d008064:	afb40024 	sw	s4,36(sp)
9d008068:	afbf002c 	sw	ra,44(sp)
9d00806c:	afb50028 	sw	s5,40(sp)
9d008070:	afb30020 	sw	s3,32(sp)
9d008074:	10430003 	beq	v0,v1,9d008084 <free+0x50>
9d008078:	2414fffe 	li	s4,-2
9d00807c:	a0000000 	sb	zero,0(zero)
9d008080:	00000034 	teq	zero,zero
9d008084:	8e020000 	lw	v0,0(s0)
9d008088:	8e230004 	lw	v1,4(s1)
9d00808c:	00431024 	and	v0,v0,v1
9d008090:	30420001 	andi	v0,v0,0x1
9d008094:	1440000e 	bnez	v0,9d0080d0 <free+0x9c>
9d008098:	36420001 	ori	v0,s2,0x1
9d00809c:	0f402ab8 	jal	9d00aae0 <alloc_rev>
9d0080a0:	02002025 	move	a0,s0
9d0080a4:	54400042 	bnezl	v0,9d0081b0 <free+0x17c>
9d0080a8:	8e020000 	lw	v0,0(s0)
9d0080ac:	0f402ad5 	jal	9d00ab54 <alloc_fwd>
9d0080b0:	02202025 	move	a0,s1
9d0080b4:	5040fff4 	beqzl	v0,9d008088 <free+0x54>
9d0080b8:	8e020000 	lw	v0,0(s0)
9d0080bc:	8e220004 	lw	v0,4(s1)
9d0080c0:	02821024 	and	v0,s4,v0
9d0080c4:	02429021 	addu	s2,s2,v0
9d0080c8:	1000ffee 	b	9d008084 <free+0x50>
9d0080cc:	02228821 	addu	s1,s1,v0
9d0080d0:	ae020004 	sw	v0,4(s0)
9d0080d4:	02402025 	move	a0,s2
9d0080d8:	0f402b0c 	jal	9d00ac30 <bin_index>
9d0080dc:	ae220000 	sw	v0,0(s1)
9d0080e0:	00402025 	move	a0,v0
9d0080e4:	0f402d94 	jal	9d00b650 <lock_bin>
9d0080e8:	00409825 	move	s3,v0
9d0080ec:	8e020000 	lw	v0,0(s0)
9d0080f0:	8e230004 	lw	v1,4(s1)
9d0080f4:	00431024 	and	v0,v0,v1
9d0080f8:	30420001 	andi	v0,v0,0x1
9d0080fc:	1040ffe7 	beqz	v0,9d00809c <free+0x68>
9d008100:	3c15a000 	lui	s5,0xa000
9d008104:	8ea41928 	lw	a0,6440(s5)
9d008108:	8ea5192c 	lw	a1,6444(s5)
9d00810c:	02603025 	move	a2,s3
9d008110:	0f402d68 	jal	9d00b5a0 <__lshrdi3>
9d008114:	26b41928 	addiu	s4,s5,6440
9d008118:	30420001 	andi	v0,v0,0x1
9d00811c:	54400010 	bnezl	v0,9d008160 <free+0x12c>
9d008120:	26730001 	addiu	s3,s3,1
9d008124:	00002825 	move	a1,zero
9d008128:	02603025 	move	a2,s3
9d00812c:	0f402d77 	jal	9d00b5dc <__ashldi3>
9d008130:	24040001 	li	a0,1
9d008134:	10400004 	beqz	v0,9d008148 <free+0x114>
9d008138:	00602825 	move	a1,v1
9d00813c:	8ea41928 	lw	a0,6440(s5)
9d008140:	00822025 	or	a0,a0,v0
9d008144:	aea41928 	sw	a0,6440(s5)
9d008148:	50a00005 	beqzl	a1,9d008160 <free+0x12c>
9d00814c:	26730001 	addiu	s3,s3,1
9d008150:	8e820004 	lw	v0,4(s4)
9d008154:	00431025 	or	v0,v0,v1
9d008158:	ae820004 	sw	v0,4(s4)
9d00815c:	26730001 	addiu	s3,s3,1
9d008160:	001398c0 	sll	s3,s3,0x3
9d008164:	02939821 	addu	s3,s4,s3
9d008168:	2662fff8 	addiu	v0,s3,-8
9d00816c:	ae120004 	sw	s2,4(s0)
9d008170:	ae320000 	sw	s2,0(s1)
9d008174:	ae020008 	sw	v0,8(s0)
9d008178:	8e620004 	lw	v0,4(s3)
9d00817c:	8fbf002c 	lw	ra,44(sp)
9d008180:	8fb50028 	lw	s5,40(sp)
9d008184:	ae02000c 	sw	v0,12(s0)
9d008188:	ae700004 	sw	s0,4(s3)
9d00818c:	8e02000c 	lw	v0,12(s0)
9d008190:	8fb40024 	lw	s4,36(sp)
9d008194:	8fb30020 	lw	s3,32(sp)
9d008198:	ac500008 	sw	s0,8(v0)
9d00819c:	8fb2001c 	lw	s2,28(sp)
9d0081a0:	8fb10018 	lw	s1,24(sp)
9d0081a4:	8fb00014 	lw	s0,20(sp)
9d0081a8:	03e00008 	jr	ra
9d0081ac:	27bd0030 	addiu	sp,sp,48
9d0081b0:	02821024 	and	v0,s4,v0
9d0081b4:	02028023 	subu	s0,s0,v0
9d0081b8:	8e020004 	lw	v0,4(s0)
9d0081bc:	02821024 	and	v0,s4,v0
9d0081c0:	1000ffba 	b	9d0080ac <free+0x78>
9d0081c4:	02429021 	addu	s2,s2,v0
9d0081c8:	03e00008 	jr	ra
9d0081cc:	00000000 	nop

Disassembly of section .text.__pop_int:

9d0081d0 <__pop_int>:
9d0081d0:	24020088 	li	v0,136
9d0081d4:	10a2003f 	beq	a1,v0,9d0082d4 <__pop_int+0x104>
9d0081d8:	28a20089 	slti	v0,a1,137
9d0081dc:	1040001b 	beqz	v0,9d00824c <__pop_int+0x7c>
9d0081e0:	240200a0 	li	v0,160
9d0081e4:	24020081 	li	v0,129
9d0081e8:	10a20053 	beq	a1,v0,9d008338 <__pop_int+0x168>
9d0081ec:	28a20082 	slti	v0,a1,130
9d0081f0:	10400006 	beqz	v0,9d00820c <__pop_int+0x3c>
9d0081f4:	24020082 	li	v0,130
9d0081f8:	24020080 	li	v0,128
9d0081fc:	50a2004f 	beql	a1,v0,9d00833c <__pop_int+0x16c>
9d008200:	8ce20000 	lw	v0,0(a3)
9d008204:	03e00008 	jr	ra
9d008208:	00001025 	move	v0,zero
9d00820c:	50a2003a 	beql	a1,v0,9d0082f8 <__pop_int+0x128>
9d008210:	8ce20000 	lw	v0,0(a3)
9d008214:	24020084 	li	v0,132
9d008218:	14a2fffa 	bne	a1,v0,9d008204 <__pop_int+0x34>
9d00821c:	00000000 	nop
9d008220:	8ce20000 	lw	v0,0(a3)
9d008224:	24430004 	addiu	v1,v0,4
9d008228:	8c420000 	lw	v0,0(v0)
9d00822c:	10c00026 	beqz	a2,9d0082c8 <__pop_int+0xf8>
9d008230:	ace30000 	sw	v1,0(a3)
9d008234:	7c021620 	seh	v0,v0
9d008238:	ac820000 	sw	v0,0(a0)
9d00823c:	000217c3 	sra	v0,v0,0x1f
9d008240:	ac820004 	sw	v0,4(a0)
9d008244:	03e00008 	jr	ra
9d008248:	24020001 	li	v0,1
9d00824c:	50a20036 	beql	a1,v0,9d008328 <__pop_int+0x158>
9d008250:	8ce20000 	lw	v0,0(a3)
9d008254:	28a200a1 	slti	v0,a1,161
9d008258:	10400011 	beqz	v0,9d0082a0 <__pop_int+0xd0>
9d00825c:	240200c0 	li	v0,192
9d008260:	24020090 	li	v0,144
9d008264:	14a2ffe7 	bne	a1,v0,9d008204 <__pop_int+0x34>
9d008268:	00000000 	nop
9d00826c:	8ce20000 	lw	v0,0(a3)
9d008270:	24420007 	addiu	v0,v0,7
9d008274:	7c021004 	ins	v0,zero,0x0,0x3
9d008278:	8c480000 	lw	t0,0(v0)
9d00827c:	8c490004 	lw	t1,4(v0)
9d008280:	24420008 	addiu	v0,v0,8
9d008284:	ace20000 	sw	v0,0(a3)
9d008288:	ac880000 	sw	t0,0(a0)
9d00828c:	ac890004 	sw	t1,4(a0)
9d008290:	10c00001 	beqz	a2,9d008298 <__pop_int+0xc8>
9d008294:	24020001 	li	v0,1
9d008298:	03e00008 	jr	ra
9d00829c:	00000000 	nop
9d0082a0:	50a20005 	beql	a1,v0,9d0082b8 <__pop_int+0xe8>
9d0082a4:	8ce20000 	lw	v0,0(a3)
9d0082a8:	240200f0 	li	v0,240
9d0082ac:	14a2ffd5 	bne	a1,v0,9d008204 <__pop_int+0x34>
9d0082b0:	00000000 	nop
9d0082b4:	8ce20000 	lw	v0,0(a3)
9d0082b8:	24430004 	addiu	v1,v0,4
9d0082bc:	ace30000 	sw	v1,0(a3)
9d0082c0:	10000002 	b	9d0082cc <__pop_int+0xfc>
9d0082c4:	8c420000 	lw	v0,0(v0)
9d0082c8:	3042ffff 	andi	v0,v0,0xffff
9d0082cc:	10000020 	b	9d008350 <__pop_int+0x180>
9d0082d0:	ac820000 	sw	v0,0(a0)
9d0082d4:	8ce20000 	lw	v0,0(a3)
9d0082d8:	24430004 	addiu	v1,v0,4
9d0082dc:	8c420000 	lw	v0,0(v0)
9d0082e0:	10c00003 	beqz	a2,9d0082f0 <__pop_int+0x120>
9d0082e4:	ace30000 	sw	v1,0(a3)
9d0082e8:	1000ffd3 	b	9d008238 <__pop_int+0x68>
9d0082ec:	7c021420 	seb	v0,v0
9d0082f0:	1000fff6 	b	9d0082cc <__pop_int+0xfc>
9d0082f4:	304200ff 	andi	v0,v0,0xff
9d0082f8:	24420007 	addiu	v0,v0,7
9d0082fc:	7c021004 	ins	v0,zero,0x0,0x3
9d008300:	8c480000 	lw	t0,0(v0)
9d008304:	8c490004 	lw	t1,4(v0)
9d008308:	24420008 	addiu	v0,v0,8
9d00830c:	ace20000 	sw	v0,0(a3)
9d008310:	ac880000 	sw	t0,0(a0)
9d008314:	ac890004 	sw	t1,4(a0)
9d008318:	10c0ffdf 	beqz	a2,9d008298 <__pop_int+0xc8>
9d00831c:	24020001 	li	v0,1
9d008320:	03e00008 	jr	ra
9d008324:	00000000 	nop
9d008328:	24430004 	addiu	v1,v0,4
9d00832c:	ace30000 	sw	v1,0(a3)
9d008330:	1000ffc1 	b	9d008238 <__pop_int+0x68>
9d008334:	8c420000 	lw	v0,0(v0)
9d008338:	8ce20000 	lw	v0,0(a3)
9d00833c:	24430004 	addiu	v1,v0,4
9d008340:	ace30000 	sw	v1,0(a3)
9d008344:	8c420000 	lw	v0,0(v0)
9d008348:	14c0ffbc 	bnez	a2,9d00823c <__pop_int+0x6c>
9d00834c:	ac820000 	sw	v0,0(a0)
9d008350:	1000ffbc 	b	9d008244 <__pop_int+0x74>
9d008354:	ac800004 	sw	zero,4(a0)

Disassembly of section .text.__push_int:

9d008358 <__push_int>:
9d008358:	24020088 	li	v0,136
9d00835c:	50a2003c 	beql	a1,v0,9d008450 <__push_int+0xf8>
9d008360:	8ce20000 	lw	v0,0(a3)
9d008364:	28a20089 	slti	v0,a1,137
9d008368:	1040001a 	beqz	v0,9d0083d4 <__push_int+0x7c>
9d00836c:	240200a0 	li	v0,160
9d008370:	24020081 	li	v0,129
9d008374:	50a2003f 	beql	a1,v0,9d008474 <__push_int+0x11c>
9d008378:	8ce20000 	lw	v0,0(a3)
9d00837c:	28a20082 	slti	v0,a1,130
9d008380:	10400006 	beqz	v0,9d00839c <__push_int+0x44>
9d008384:	24020082 	li	v0,130
9d008388:	24020080 	li	v0,128
9d00838c:	50a20046 	beql	a1,v0,9d0084a8 <__push_int+0x150>
9d008390:	8ce20000 	lw	v0,0(a3)
9d008394:	03e00008 	jr	ra
9d008398:	00001025 	move	v0,zero
9d00839c:	10a20015 	beq	a1,v0,9d0083f4 <__push_int+0x9c>
9d0083a0:	24020084 	li	v0,132
9d0083a4:	14a2fffb 	bne	a1,v0,9d008394 <__push_int+0x3c>
9d0083a8:	00000000 	nop
9d0083ac:	8ce20000 	lw	v0,0(a3)
9d0083b0:	8c830000 	lw	v1,0(a0)
9d0083b4:	24440004 	addiu	a0,v0,4
9d0083b8:	ace40000 	sw	a0,0(a3)
9d0083bc:	8c420000 	lw	v0,0(v0)
9d0083c0:	a4430000 	sh	v1,0(v0)
9d0083c4:	10c00001 	beqz	a2,9d0083cc <__push_int+0x74>
9d0083c8:	24020001 	li	v0,1
9d0083cc:	03e00008 	jr	ra
9d0083d0:	00000000 	nop
9d0083d4:	50a20018 	beql	a1,v0,9d008438 <__push_int+0xe0>
9d0083d8:	8ce20000 	lw	v0,0(a3)
9d0083dc:	28a200a1 	slti	v0,a1,161
9d0083e0:	1040000f 	beqz	v0,9d008420 <__push_int+0xc8>
9d0083e4:	240200c0 	li	v0,192
9d0083e8:	24020090 	li	v0,144
9d0083ec:	14a2ffe9 	bne	a1,v0,9d008394 <__push_int+0x3c>
9d0083f0:	00000000 	nop
9d0083f4:	8ce20000 	lw	v0,0(a3)
9d0083f8:	10c00027 	beqz	a2,9d008498 <__push_int+0x140>
9d0083fc:	24430004 	addiu	v1,v0,4
9d008400:	ace30000 	sw	v1,0(a3)
9d008404:	8c850004 	lw	a1,4(a0)
9d008408:	8c840000 	lw	a0,0(a0)
9d00840c:	8c420000 	lw	v0,0(v0)
9d008410:	ac440000 	sw	a0,0(v0)
9d008414:	ac450004 	sw	a1,4(v0)
9d008418:	03e00008 	jr	ra
9d00841c:	24020001 	li	v0,1
9d008420:	50a20005 	beql	a1,v0,9d008438 <__push_int+0xe0>
9d008424:	8ce20000 	lw	v0,0(a3)
9d008428:	240200f0 	li	v0,240
9d00842c:	14a2ffd9 	bne	a1,v0,9d008394 <__push_int+0x3c>
9d008430:	00000000 	nop
9d008434:	8ce20000 	lw	v0,0(a3)
9d008438:	8c830000 	lw	v1,0(a0)
9d00843c:	24440004 	addiu	a0,v0,4
9d008440:	ace40000 	sw	a0,0(a3)
9d008444:	8c420000 	lw	v0,0(v0)
9d008448:	1000fff3 	b	9d008418 <__push_int+0xc0>
9d00844c:	ac430000 	sw	v1,0(v0)
9d008450:	8c830000 	lw	v1,0(a0)
9d008454:	24440004 	addiu	a0,v0,4
9d008458:	ace40000 	sw	a0,0(a3)
9d00845c:	8c420000 	lw	v0,0(v0)
9d008460:	a0430000 	sb	v1,0(v0)
9d008464:	10c0ffd9 	beqz	a2,9d0083cc <__push_int+0x74>
9d008468:	24020001 	li	v0,1
9d00846c:	03e00008 	jr	ra
9d008470:	00000000 	nop
9d008474:	8c830000 	lw	v1,0(a0)
9d008478:	24440004 	addiu	a0,v0,4
9d00847c:	ace40000 	sw	a0,0(a3)
9d008480:	8c420000 	lw	v0,0(v0)
9d008484:	ac430000 	sw	v1,0(v0)
9d008488:	10c0ffd0 	beqz	a2,9d0083cc <__push_int+0x74>
9d00848c:	24020001 	li	v0,1
9d008490:	03e00008 	jr	ra
9d008494:	00000000 	nop
9d008498:	8c850004 	lw	a1,4(a0)
9d00849c:	8c840000 	lw	a0,0(a0)
9d0084a0:	1000ffda 	b	9d00840c <__push_int+0xb4>
9d0084a4:	ace30000 	sw	v1,0(a3)
9d0084a8:	8c830000 	lw	v1,0(a0)
9d0084ac:	24440004 	addiu	a0,v0,4
9d0084b0:	ace40000 	sw	a0,0(a3)
9d0084b4:	8c420000 	lw	v0,0(v0)
9d0084b8:	ac430000 	sw	v1,0(v0)
9d0084bc:	24020001 	li	v0,1
9d0084c0:	03e00008 	jr	ra
9d0084c4:	00000000 	nop

Disassembly of section .dinit:

9d0084c8 <.dinit>:
9d0084c8:	a0000020 	sb	zero,32(zero)
9d0084cc:	00001900 	sll	v1,zero,0x4
9d0084d0:	00000000 	nop
9d0084d4:	a000000c 	sb	zero,12(zero)
9d0084d8:	00000014 	0x14
9d0084dc:	00000000 	nop
9d0084e0:	a0000000 	sb	zero,0(zero)
9d0084e4:	00000008 	jr	zero
9d0084e8:	00000001 	movf	zero,zero,$fcc0
9d0084ec:	3dcccccd 	0x3dcccccd
9d0084f0:	3e4ccccd 	0x3e4ccccd
9d0084f4:	a0001b30 	sb	zero,6960(zero)
9d0084f8:	00000068 	0x68
9d0084fc:	00000001 	movf	zero,zero,$fcc0
9d008500:	00000001 	movf	zero,zero,$fcc0
9d008504:	00000003 	sra	zero,zero,0x0
	...
9d00851c:	9d0099d4 	0x9d0099d4
	...
9d00852c:	9d00b990 	0x9d00b990
9d008530:	9d00a0a8 	0x9d00a0a8
	...
9d008568:	a0001c74 	sb	zero,7284(zero)
9d00856c:	00000004 	sllv	zero,zero,zero
9d008570:	00000000 	nop
9d008574:	a0001b98 	sb	zero,7064(zero)
9d008578:	00000068 	0x68
9d00857c:	00000001 	movf	zero,zero,$fcc0
9d008580:	00000001 	movf	zero,zero,$fcc0
9d008584:	00000003 	sra	zero,zero,0x0
	...
9d00859c:	9d0099d4 	0x9d0099d4
	...
9d0085ac:	9d00b990 	0x9d00b990
9d0085b0:	9d00a0a8 	0x9d00a0a8
	...
9d0085e8:	a0001920 	sb	zero,6432(zero)
9d0085ec:	00000210 	0x210
9d0085f0:	00000000 	nop
9d0085f4:	a0001c00 	sb	zero,7168(zero)
9d0085f8:	00000050 	0x50
9d0085fc:	00000000 	nop
9d008600:	a0001c50 	sb	zero,7248(zero)
9d008604:	00000024 	and	zero,zero,zero
9d008608:	00000000 	nop
9d00860c:	a0001c78 	sb	zero,7288(zero)
9d008610:	00000004 	sllv	zero,zero,zero
9d008614:	00000000 	nop
9d008618:	a0000008 	sb	zero,8(zero)
9d00861c:	00000004 	sllv	zero,zero,zero
9d008620:	00000001 	movf	zero,zero,$fcc0
9d008624:	00000002 	srl	zero,zero,0x0
9d008628:	00000000 	nop
9d00862c:	22222222 	addi	v0,s1,8738
9d008630:	22222222 	addi	v0,s1,8738
9d008634:	22222222 	addi	v0,s1,8738

Disassembly of section .text.libm:

9d008638 <__mchp_ldexp>:
9d008638:	00054840 00094d42 252cffff 2d8107fe     @H..BM....,%...-
9d008648:	1020000f 00000000                       .. .....

9d008650 <Clab1>:
9d008650:	01264821 	addu	t1,t1,a2
9d008654:	252cffff 	addiu	t4,t1,-1
9d008658:	2d8107fe 	sltiu	at,t4,2046
9d00865c:	10200021 	beqz	at,9d0086e4 <Cspec2>
9d008660:	00000000 	nop
9d008664:	3c01800f 	lui	at,0x800f
9d008668:	3421ffff 	ori	at,at,0xffff
9d00866c:	00a12824 	and	a1,a1,at
9d008670:	00096500 	sll	t4,t1,0x14
9d008674:	00ac2825 	or	a1,a1,t4

9d008678 <Cret>:
9d008678:	00041025 	or	v0,zero,a0
9d00867c:	00051825 	or	v1,zero,a1

9d008680 <C999>:
9d008680:	03e00008 	jr	ra
9d008684:	00000000 	nop

9d008688 <Cspec>:
9d008688:	00056300 	sll	t4,a1,0xc
9d00868c:	01846025 	or	t4,t4,a0
9d008690:	1180fff9 	beqz	t4,9d008678 <Cret>
9d008694:	00000000 	nop
9d008698:	11200004 	beqz	t1,9d0086ac <i9>
9d00869c:	00000000 	nop
9d0086a0:	3c05fff8 	lui	a1,0xfff8
9d0086a4:	1000fff4 	b	9d008678 <Cret>
9d0086a8:	24040000 	li	a0,0

9d0086ac <i9>:
9d0086ac:	25290001 	addiu	t1,t1,1
9d0086b0:	3c018000 	lui	at,0x8000
9d0086b4:	00a15024 	and	t2,a1,at

9d0086b8 <b10>:
9d0086b8:	2529ffff 	addiu	t1,t1,-1
9d0086bc:	0080602a 	slt	t4,a0,zero
9d0086c0:	00842021 	addu	a0,a0,a0
9d0086c4:	00a52821 	addu	a1,a1,a1
9d0086c8:	00ac2821 	addu	a1,a1,t4
9d0086cc:	3c010010 	lui	at,0x10
9d0086d0:	00a1082b 	sltu	at,a1,at
9d0086d4:	1420fff8 	bnez	at,9d0086b8 <b10>
9d0086d8:	00000000 	nop
9d0086dc:	1000ffdc 	b	9d008650 <Clab1>
9d0086e0:	00aa2825 	or	a1,a1,t2

9d0086e4 <Cspec2>:
9d0086e4:	000542c0 	sll	t0,a1,0xb
9d0086e8:	00046542 	srl	t4,a0,0x15
9d0086ec:	010c4025 	or	t0,t0,t4
9d0086f0:	00043ac0 	sll	a3,a0,0xb
9d0086f4:	3c018000 	lui	at,0x8000
9d0086f8:	01014025 	or	t0,t0,at
9d0086fc:	3c018000 	lui	at,0x8000
9d008700:	19200005 	blez	t1,9d008718 <i11>
9d008704:	00a12824 	and	a1,a1,at
9d008708:	3c017ff0 	lui	at,0x7ff0
9d00870c:	00a12825 	or	a1,a1,at
9d008710:	1000ffd9 	b	9d008678 <Cret>
9d008714:	24040000 	li	a0,0

9d008718 <i11>:
9d008718:	240a0001 	li	t2,1
9d00871c:	01495023 	subu	t2,t2,t1

9d008720 <L13>:
9d008720:	2d410020 	sltiu	at,t2,32
9d008724:	14200007 	bnez	at,9d008744 <L14>
9d008728:	00000000 	nop
9d00872c:	214affe0 	addi	t2,t2,-32
9d008730:	0007202b 	sltu	a0,zero,a3
9d008734:	1008000d 	beq	zero,t0,9d00876c <L15>
9d008738:	01043825 	or	a3,t0,a0
9d00873c:	1000fff8 	b	9d008720 <L13>
9d008740:	34080000 	li	t0,0x0

9d008744 <L14>:
9d008744:	11400009 	beqz	t2,9d00876c <L15>
9d008748:	00000000 	nop
9d00874c:	000a5822 	neg	t3,t2
9d008750:	01672004 	sllv	a0,a3,t3
9d008754:	01685804 	sllv	t3,t0,t3
9d008758:	01473806 	srlv	a3,a3,t2
9d00875c:	01484006 	srlv	t0,t0,t2
9d008760:	10800002 	beqz	a0,9d00876c <L15>
9d008764:	01673825 	or	a3,t3,a3
9d008768:	34e70002 	ori	a3,a3,0x2

9d00876c <L15>:
9d00876c:	24e70400 	addiu	a3,a3,1024
9d008770:	2cec0400 	sltiu	t4,a3,1024
9d008774:	010c4021 	addu	t0,t0,t4
9d008778:	000762c2 	srl	t4,a3,0xb
9d00877c:	318c0001 	andi	t4,t4,0x1
9d008780:	00ec3823 	subu	a3,a3,t4
9d008784:	000722c2 	srl	a0,a3,0xb
9d008788:	00086540 	sll	t4,t0,0x15
9d00878c:	008c2025 	or	a0,a0,t4
9d008790:	00086040 	sll	t4,t0,0x1
9d008794:	000c6302 	srl	t4,t4,0xc
9d008798:	1000ffb7 	b	9d008678 <Cret>
9d00879c:	00ac2825 	or	a1,a1,t4
9d0087a0:	00000000 	nop

Disassembly of section .text.__fmt_d:

9d0087a4 <__fmt_d>:
9d0087a4:	27bdffc0 	addiu	sp,sp,-64
9d0087a8:	afb1002c 	sw	s1,44(sp)
9d0087ac:	00808825 	move	s1,a0
9d0087b0:	00c02025 	move	a0,a2
9d0087b4:	8c870004 	lw	a3,4(a0)
9d0087b8:	8ca20000 	lw	v0,0(a1)
9d0087bc:	afb20030 	sw	s2,48(sp)
9d0087c0:	000797c2 	srl	s2,a3,0x1f
9d0087c4:	afb40038 	sw	s4,56(sp)
9d0087c8:	afb30034 	sw	s3,52(sp)
9d0087cc:	afb00028 	sw	s0,40(sp)
9d0087d0:	afbf003c 	sw	ra,60(sp)
9d0087d4:	00a08025 	move	s0,a1
9d0087d8:	8ca30004 	lw	v1,4(a1)
9d0087dc:	8cb30008 	lw	s3,8(a1)
9d0087e0:	afa20020 	sw	v0,32(sp)
9d0087e4:	8cb4000c 	lw	s4,12(a1)
9d0087e8:	12400040 	beqz	s2,9d0088ec <__fmt_d+0x148>
9d0087ec:	8cc60000 	lw	a2,0(a2)
9d0087f0:	00063023 	negu	a2,a2
9d0087f4:	0006202b 	sltu	a0,zero,a2
9d0087f8:	00073823 	negu	a3,a3
9d0087fc:	04600008 	bltz	v1,9d008820 <__fmt_d+0x7c>
9d008800:	00e43823 	subu	a3,a3,a0
9d008804:	7c020844 	ins	v0,zero,0x1,0x1
9d008808:	16400005 	bnez	s2,9d008820 <__fmt_d+0x7c>
9d00880c:	afa20020 	sw	v0,32(sp)
9d008810:	8fa20020 	lw	v0,32(sp)
9d008814:	30430004 	andi	v1,v0,0x4
9d008818:	1060002c 	beqz	v1,9d0088cc <__fmt_d+0x128>
9d00881c:	7c4200c0 	ext	v0,v0,0x3,0x1
9d008820:	2662ffff 	addiu	v0,s3,-1
9d008824:	27a30020 	addiu	v1,sp,32
9d008828:	afa30018 	sw	v1,24(sp)
9d00882c:	2403000a 	li	v1,10
9d008830:	afa30014 	sw	v1,20(sp)
9d008834:	afa20010 	sw	v0,16(sp)
9d008838:	0f402294 	jal	9d008a50 <__cvt_u>
9d00883c:	02002025 	move	a0,s0
9d008840:	16400006 	bnez	s2,9d00885c <__fmt_d+0xb8>
9d008844:	2403002d 	li	v1,45
9d008848:	8fa30020 	lw	v1,32(sp)
9d00884c:	30640004 	andi	a0,v1,0x4
9d008850:	10800020 	beqz	a0,9d0088d4 <__fmt_d+0x130>
9d008854:	30630008 	andi	v1,v1,0x8
9d008858:	2403002d 	li	v1,45
9d00885c:	2442ffff 	addiu	v0,v0,-1
9d008860:	2404002b 	li	a0,43
9d008864:	0072200b 	movn	a0,v1,s2
9d008868:	02821821 	addu	v1,s4,v0
9d00886c:	a0640000 	sb	a0,0(v1)
9d008870:	8e060010 	lw	a2,16(s0)
9d008874:	8fa30020 	lw	v1,32(sp)
9d008878:	02603825 	move	a3,s3
9d00887c:	24c6ffff 	addiu	a2,a2,-1
9d008880:	afa30010 	sw	v1,16(sp)
9d008884:	00c23023 	subu	a2,a2,v0
9d008888:	02822821 	addu	a1,s4,v0
9d00888c:	0f40249b 	jal	9d00926c <__pad>
9d008890:	02202025 	move	a0,s1
9d008894:	8e230004 	lw	v1,4(s1)
9d008898:	30630100 	andi	v1,v1,0x100
9d00889c:	10600004 	beqz	v1,9d0088b0 <__fmt_d+0x10c>
9d0088a0:	8fbf003c 	lw	ra,60(sp)
9d0088a4:	8e030004 	lw	v1,4(s0)
9d0088a8:	0043202a 	slt	a0,v0,v1
9d0088ac:	0064100b 	movn	v0,v1,a0
9d0088b0:	8fb40038 	lw	s4,56(sp)
9d0088b4:	8fb30034 	lw	s3,52(sp)
9d0088b8:	8fb20030 	lw	s2,48(sp)
9d0088bc:	8fb1002c 	lw	s1,44(sp)
9d0088c0:	8fb00028 	lw	s0,40(sp)
9d0088c4:	03e00008 	jr	ra
9d0088c8:	27bd0040 	addiu	sp,sp,64
9d0088cc:	1000ffd5 	b	9d008824 <__fmt_d+0x80>
9d0088d0:	02621023 	subu	v0,s3,v0
9d0088d4:	5060ffe7 	beqzl	v1,9d008874 <__fmt_d+0xd0>
9d0088d8:	8e060010 	lw	a2,16(s0)
9d0088dc:	2442ffff 	addiu	v0,v0,-1
9d0088e0:	02821821 	addu	v1,s4,v0
9d0088e4:	1000ffe1 	b	9d00886c <__fmt_d+0xc8>
9d0088e8:	24040020 	li	a0,32
9d0088ec:	0463ffc6 	bgezl	v1,9d008808 <__fmt_d+0x64>
9d0088f0:	7c020844 	ins	v0,zero,0x1,0x1
9d0088f4:	1000ffc7 	b	9d008814 <__fmt_d+0x70>
9d0088f8:	8fa20020 	lw	v0,32(sp)

Disassembly of section .text._sbrk_init:

9d0088fc <_sbrk_init>:
9d0088fc:	27bdffd8 	addiu	sp,sp,-40
9d008900:	afb40020 	sw	s4,32(sp)
9d008904:	3c14a000 	lui	s4,0xa000
9d008908:	8e821c68 	lw	v0,7272(s4)
9d00890c:	afbf0024 	sw	ra,36(sp)
9d008910:	afb3001c 	sw	s3,28(sp)
9d008914:	afb20018 	sw	s2,24(sp)
9d008918:	afb10014 	sw	s1,20(sp)
9d00891c:	1440002e 	bnez	v0,9d0089d8 <_sbrk_init+0xdc>
9d008920:	afb00010 	sw	s0,16(sp)
9d008924:	3c12a000 	lui	s2,0xa000
9d008928:	8e511c70 	lw	s1,7280(s2)
9d00892c:	16200003 	bnez	s1,9d00893c <_sbrk_init+0x40>
9d008930:	3c13a000 	lui	s3,0xa000
9d008934:	3c11a000 	lui	s1,0xa000
9d008938:	26311c80 	addiu	s1,s1,7296
9d00893c:	8e701c6c 	lw	s0,7276(s3)
9d008940:	16000006 	bnez	s0,9d00895c <_sbrk_init+0x60>
9d008944:	00111f82 	srl	v1,s1,0x1e
9d008948:	3c10a000 	lui	s0,0xa000
9d00894c:	3c020000 	lui	v0,0x0
9d008950:	26101c80 	addiu	s0,s0,7296
9d008954:	24420000 	addiu	v0,v0,0
9d008958:	02028021 	addu	s0,s0,v0
9d00895c:	24020002 	li	v0,2
9d008960:	50620001 	beql	v1,v0,9d008968 <_sbrk_init+0x6c>
9d008964:	7e31e000 	ext	s1,s1,0x0,0x1d
9d008968:	00101f82 	srl	v1,s0,0x1e
9d00896c:	24020002 	li	v0,2
9d008970:	50620001 	beql	v1,v0,9d008978 <_sbrk_init+0x7c>
9d008974:	7e10e000 	ext	s0,s0,0x0,0x1d
9d008978:	0f402e0c 	jal	9d00b830 <_stub_sbd_memlayout>
9d00897c:	00000000 	nop
9d008980:	8c430000 	lw	v1,0(v0)
9d008984:	8c420004 	lw	v0,4(v0)
9d008988:	0223202b 	sltu	a0,s1,v1
9d00898c:	14800004 	bnez	a0,9d0089a0 <_sbrk_init+0xa4>
9d008990:	00621021 	addu	v0,v1,v0
9d008994:	0222202b 	sltu	a0,s1,v0
9d008998:	54800029 	bnezl	a0,9d008a40 <_sbrk_init+0x144>
9d00899c:	0211182b 	sltu	v1,s0,s1
9d0089a0:	3c04a000 	lui	a0,0xa000
9d0089a4:	24840020 	addiu	a0,a0,32
9d0089a8:	7c84e000 	ext	a0,a0,0x0,0x1d
9d0089ac:	0064202b 	sltu	a0,v1,a0
9d0089b0:	14800009 	bnez	a0,9d0089d8 <_sbrk_init+0xdc>
9d0089b4:	0203202b 	sltu	a0,s0,v1
9d0089b8:	14800005 	bnez	a0,9d0089d0 <_sbrk_init+0xd4>
9d0089bc:	0062202b 	sltu	a0,v1,v0
9d0089c0:	0202202b 	sltu	a0,s0,v0
9d0089c4:	5480000c 	bnezl	a0,9d0089f8 <_sbrk_init+0xfc>
9d0089c8:	02001025 	move	v0,s0
9d0089cc:	0062202b 	sltu	a0,v1,v0
9d0089d0:	1480000a 	bnez	a0,9d0089fc <_sbrk_init+0x100>
9d0089d4:	3c04a000 	lui	a0,0xa000
9d0089d8:	8fbf0024 	lw	ra,36(sp)
9d0089dc:	8fb40020 	lw	s4,32(sp)
9d0089e0:	8fb3001c 	lw	s3,28(sp)
9d0089e4:	8fb20018 	lw	s2,24(sp)
9d0089e8:	8fb10014 	lw	s1,20(sp)
9d0089ec:	8fb00010 	lw	s0,16(sp)
9d0089f0:	03e00008 	jr	ra
9d0089f4:	27bd0028 	addiu	sp,sp,40
9d0089f8:	3c04a000 	lui	a0,0xa000
9d0089fc:	24840020 	addiu	a0,a0,32
9d008a00:	00042742 	srl	a0,a0,0x1d
9d008a04:	24050005 	li	a1,5
9d008a08:	14850009 	bne	a0,a1,9d008a30 <_sbrk_init+0x134>
9d008a0c:	24050004 	li	a1,4
9d008a10:	3c04a000 	lui	a0,0xa000
9d008a14:	00641825 	or	v1,v1,a0
9d008a18:	00441025 	or	v0,v0,a0
9d008a1c:	ae431c70 	sw	v1,7280(s2)
9d008a20:	ae621c6c 	sw	v0,7276(s3)
9d008a24:	8e421c70 	lw	v0,7280(s2)
9d008a28:	1000ffeb 	b	9d0089d8 <_sbrk_init+0xdc>
9d008a2c:	ae821c68 	sw	v0,7272(s4)
9d008a30:	5485fffc 	bnel	a0,a1,9d008a24 <_sbrk_init+0x128>
9d008a34:	ae421c70 	sw	v0,7280(s2)
9d008a38:	1000fff6 	b	9d008a14 <_sbrk_init+0x118>
9d008a3c:	3c048000 	lui	a0,0x8000
9d008a40:	1460ffed 	bnez	v1,9d0089f8 <_sbrk_init+0xfc>
9d008a44:	02201825 	move	v1,s1
9d008a48:	1000ffde 	b	9d0089c4 <_sbrk_init+0xc8>
9d008a4c:	0202202b 	sltu	a0,s0,v0

Disassembly of section .text.__cvt_u:

9d008a50 <__cvt_u>:
9d008a50:	27bdffc0 	addiu	sp,sp,-64
9d008a54:	8c820010 	lw	v0,16(a0)
9d008a58:	afb70034 	sw	s7,52(sp)
9d008a5c:	8c880004 	lw	t0,4(a0)
9d008a60:	8fb70058 	lw	s7,88(sp)
9d008a64:	2442ffff 	addiu	v0,v0,-1
9d008a68:	afbe0038 	sw	s8,56(sp)
9d008a6c:	afb40028 	sw	s4,40(sp)
9d008a70:	afb30024 	sw	s3,36(sp)
9d008a74:	afb20020 	sw	s2,32(sp)
9d008a78:	afb1001c 	sw	s1,28(sp)
9d008a7c:	afb00018 	sw	s0,24(sp)
9d008a80:	afbf003c 	sw	ra,60(sp)
9d008a84:	afb60030 	sw	s6,48(sp)
9d008a88:	afb5002c 	sw	s5,44(sp)
9d008a8c:	00c08025 	move	s0,a2
9d008a90:	00e08825 	move	s1,a3
9d008a94:	8fb30054 	lw	s3,84(sp)
9d008a98:	8c94000c 	lw	s4,12(a0)
9d008a9c:	8efe0000 	lw	s8,0(s7)
9d008aa0:	05010002 	bgez	t0,9d008aac <__cvt_u+0x5c>
9d008aa4:	00409025 	move	s2,v0
9d008aa8:	24080001 	li	t0,1
9d008aac:	02821021 	addu	v0,s4,v0
9d008ab0:	a0400000 	sb	zero,0(v0)
9d008ab4:	0000a825 	move	s5,zero
9d008ab8:	24090001 	li	t1,1
9d008abc:	33de0002 	andi	s8,s8,0x2
9d008ac0:	0013b7c3 	sra	s6,s3,0x1f
9d008ac4:	1e400010 	bgtz	s2,9d008b08 <__cvt_u+0xb8>
9d008ac8:	02111025 	or	v0,s0,s1
9d008acc:	5120002e 	beqzl	t1,9d008b88 <__cvt_u+0x138>
9d008ad0:	8ee20000 	lw	v0,0(s7)
9d008ad4:	8fbf003c 	lw	ra,60(sp)
9d008ad8:	02401025 	move	v0,s2
9d008adc:	8fbe0038 	lw	s8,56(sp)
9d008ae0:	8fb70034 	lw	s7,52(sp)
9d008ae4:	8fb60030 	lw	s6,48(sp)
9d008ae8:	8fb5002c 	lw	s5,44(sp)
9d008aec:	8fb40028 	lw	s4,40(sp)
9d008af0:	8fb30024 	lw	s3,36(sp)
9d008af4:	8fb20020 	lw	s2,32(sp)
9d008af8:	8fb1001c 	lw	s1,28(sp)
9d008afc:	8fb00018 	lw	s0,24(sp)
9d008b00:	03e00008 	jr	ra
9d008b04:	27bd0040 	addiu	sp,sp,64
9d008b08:	1440000a 	bnez	v0,9d008b34 <__cvt_u+0xe4>
9d008b0c:	02002025 	move	a0,s0
9d008b10:	01151023 	subu	v0,t0,s5
9d008b14:	1c400008 	bgtz	v0,9d008b38 <__cvt_u+0xe8>
9d008b18:	02202825 	move	a1,s1
9d008b1c:	8fa20050 	lw	v0,80(sp)
9d008b20:	00551023 	subu	v0,v0,s5
9d008b24:	1840ffe9 	blez	v0,9d008acc <__cvt_u+0x7c>
9d008b28:	00000000 	nop
9d008b2c:	13c0ffe7 	beqz	s8,9d008acc <__cvt_u+0x7c>
9d008b30:	00000000 	nop
9d008b34:	02202825 	move	a1,s1
9d008b38:	02603025 	move	a2,s3
9d008b3c:	02c03825 	move	a3,s6
9d008b40:	afa80014 	sw	t0,20(sp)
9d008b44:	0f401954 	jal	9d006550 <__umoddi3>
9d008b48:	2652ffff 	addiu	s2,s2,-1
9d008b4c:	afa20010 	sw	v0,16(sp)
9d008b50:	02921821 	addu	v1,s4,s2
9d008b54:	24420030 	addiu	v0,v0,48
9d008b58:	02002025 	move	a0,s0
9d008b5c:	02202825 	move	a1,s1
9d008b60:	a0620000 	sb	v0,0(v1)
9d008b64:	02603025 	move	a2,s3
9d008b68:	0f401a52 	jal	9d006948 <__udivdi3>
9d008b6c:	02c03825 	move	a3,s6
9d008b70:	00408025 	move	s0,v0
9d008b74:	00608825 	move	s1,v1
9d008b78:	26b50001 	addiu	s5,s5,1
9d008b7c:	8fa80014 	lw	t0,20(sp)
9d008b80:	1000ffd0 	b	9d008ac4 <__cvt_u+0x74>
9d008b84:	8fa90010 	lw	t1,16(sp)
9d008b88:	7c022104 	ins	v0,zero,0x4,0x1
9d008b8c:	1000ffd1 	b	9d008ad4 <__cvt_u+0x84>
9d008b90:	aee20000 	sw	v0,0(s7)

Disassembly of section .text.dpcmp:

9d008b94 <__eqdf2>:
9d008b94:	2409fffe 00055040 00075840 01645825     ...$@P..@X..%Xd.
9d008ba4:	01665825 014b5025 15400003 00000000     %Xf.%PK...@.....
9d008bb4:	1000003c 24020000                       <......$

9d008bbc <i56>:
9d008bbc:	10800002 	beqz	a0,9d008bc8 <i57>
9d008bc0:	00054040 	sll	t0,a1,0x1
9d008bc4:	25080001 	addiu	t0,t0,1

9d008bc8 <i57>:
9d008bc8:	3c01ffe0 	lui	at,0xffe0
9d008bcc:	34210001 	ori	at,at,0x1
9d008bd0:	0101082b 	sltu	at,t0,at
9d008bd4:	10200037 	beqz	at,9d008cb4 <Lnan>
9d008bd8:	00000000 	nop
9d008bdc:	10c00002 	beqz	a2,9d008be8 <i58>
9d008be0:	00074040 	sll	t0,a3,0x1
9d008be4:	25080001 	addiu	t0,t0,1

9d008be8 <i58>:
9d008be8:	3c01ffe0 	lui	at,0xffe0
9d008bec:	34210001 	ori	at,at,0x1
9d008bf0:	0101082b 	sltu	at,t0,at
9d008bf4:	1020002f 	beqz	at,9d008cb4 <Lnan>
9d008bf8:	00000000 	nop
9d008bfc:	04a10016 	bgez	a1,9d008c58 <i59>
9d008c00:	00000000 	nop
9d008c04:	04e00003 	bltz	a3,9d008c14 <i60>
9d008c08:	00000000 	nop
9d008c0c:	10000026 	b	9d008ca8 <L999>
9d008c10:	2402ffff 	li	v0,-1

9d008c14 <i60>:
9d008c14:	0086502b 	sltu	t2,a0,a2
9d008c18:	00862023 	subu	a0,a0,a2
9d008c1c:	00aa582b 	sltu	t3,a1,t2
9d008c20:	00aa2823 	subu	a1,a1,t2
9d008c24:	00a7502b 	sltu	t2,a1,a3
9d008c28:	014b5025 	or	t2,t2,t3
9d008c2c:	11400003 	beqz	t2,9d008c3c <i61>
9d008c30:	00a72823 	subu	a1,a1,a3
9d008c34:	1000001c 	b	9d008ca8 <L999>
9d008c38:	24020001 	li	v0,1

9d008c3c <i61>:
9d008c3c:	00a45025 	or	t2,a1,a0
9d008c40:	11400003 	beqz	t2,9d008c50 <i62>
9d008c44:	00000000 	nop
9d008c48:	10000017 	b	9d008ca8 <L999>
9d008c4c:	2402ffff 	li	v0,-1

9d008c50 <i62>:
9d008c50:	10000015 	b	9d008ca8 <L999>
9d008c54:	24020000 	li	v0,0

9d008c58 <i59>:
9d008c58:	04e10003 	bgez	a3,9d008c68 <i63>
9d008c5c:	00000000 	nop
9d008c60:	10000011 	b	9d008ca8 <L999>
9d008c64:	24020001 	li	v0,1

9d008c68 <i63>:
9d008c68:	0086502b 	sltu	t2,a0,a2
9d008c6c:	00862023 	subu	a0,a0,a2
9d008c70:	00aa582b 	sltu	t3,a1,t2
9d008c74:	00aa2823 	subu	a1,a1,t2
9d008c78:	00a7502b 	sltu	t2,a1,a3
9d008c7c:	014b5025 	or	t2,t2,t3
9d008c80:	11400003 	beqz	t2,9d008c90 <i64>
9d008c84:	00a72823 	subu	a1,a1,a3
9d008c88:	10000007 	b	9d008ca8 <L999>
9d008c8c:	2402ffff 	li	v0,-1

9d008c90 <i64>:
9d008c90:	00a45025 	or	t2,a1,a0
9d008c94:	11400003 	beqz	t2,9d008ca4 <i65>
9d008c98:	00000000 	nop
9d008c9c:	10000002 	b	9d008ca8 <L999>
9d008ca0:	24020001 	li	v0,1

9d008ca4 <i65>:
9d008ca4:	24020000 	li	v0,0

9d008ca8 <L999>:
9d008ca8:	03e00008 	jr	ra
9d008cac:	00000000 	nop
9d008cb0:	00000000 	nop

9d008cb4 <Lnan>:
9d008cb4:	1000fffc 	b	9d008ca8 <L999>
9d008cb8:	00091025 	or	v0,zero,t1
9d008cbc:	00000000 	nop

Disassembly of section .text.dfcmplt:

9d008cc0 <dpcmplt>:
9d008cc0:	2409fffe 	li	t1,-2
9d008cc4:	00055040 	sll	t2,a1,0x1
9d008cc8:	00075840 	sll	t3,a3,0x1
9d008ccc:	01645825 	or	t3,t3,a0
9d008cd0:	01665825 	or	t3,t3,a2
9d008cd4:	014b5025 	or	t2,t2,t3
9d008cd8:	15400003 	bnez	t2,9d008ce8 <dpcmplt+0x28>
9d008cdc:	00000000 	nop
9d008ce0:	1000003c 	b	9d008dd4 <dpcmplt+0x114>
9d008ce4:	24020000 	li	v0,0
9d008ce8:	10800002 	beqz	a0,9d008cf4 <dpcmplt+0x34>
9d008cec:	00054040 	sll	t0,a1,0x1
9d008cf0:	25080001 	addiu	t0,t0,1
9d008cf4:	3c01ffe0 	lui	at,0xffe0
9d008cf8:	34210001 	ori	at,at,0x1
9d008cfc:	0101082b 	sltu	at,t0,at
9d008d00:	10200037 	beqz	at,9d008de0 <dpcmplt+0x120>
9d008d04:	00000000 	nop
9d008d08:	10c00002 	beqz	a2,9d008d14 <dpcmplt+0x54>
9d008d0c:	00074040 	sll	t0,a3,0x1
9d008d10:	25080001 	addiu	t0,t0,1
9d008d14:	3c01ffe0 	lui	at,0xffe0
9d008d18:	34210001 	ori	at,at,0x1
9d008d1c:	0101082b 	sltu	at,t0,at
9d008d20:	1020002f 	beqz	at,9d008de0 <dpcmplt+0x120>
9d008d24:	00000000 	nop
9d008d28:	04a10016 	bgez	a1,9d008d84 <dpcmplt+0xc4>
9d008d2c:	00000000 	nop
9d008d30:	04e00003 	bltz	a3,9d008d40 <dpcmplt+0x80>
9d008d34:	00000000 	nop
9d008d38:	10000026 	b	9d008dd4 <dpcmplt+0x114>
9d008d3c:	2402ffff 	li	v0,-1
9d008d40:	0086502b 	sltu	t2,a0,a2
9d008d44:	00862023 	subu	a0,a0,a2
9d008d48:	00aa582b 	sltu	t3,a1,t2
9d008d4c:	00aa2823 	subu	a1,a1,t2
9d008d50:	00a7502b 	sltu	t2,a1,a3
9d008d54:	014b5025 	or	t2,t2,t3
9d008d58:	11400003 	beqz	t2,9d008d68 <dpcmplt+0xa8>
9d008d5c:	00a72823 	subu	a1,a1,a3
9d008d60:	1000001c 	b	9d008dd4 <dpcmplt+0x114>
9d008d64:	24020001 	li	v0,1
9d008d68:	00a45025 	or	t2,a1,a0
9d008d6c:	11400003 	beqz	t2,9d008d7c <dpcmplt+0xbc>
9d008d70:	00000000 	nop
9d008d74:	10000017 	b	9d008dd4 <dpcmplt+0x114>
9d008d78:	2402ffff 	li	v0,-1
9d008d7c:	10000015 	b	9d008dd4 <dpcmplt+0x114>
9d008d80:	24020000 	li	v0,0
9d008d84:	04e10003 	bgez	a3,9d008d94 <dpcmplt+0xd4>
9d008d88:	00000000 	nop
9d008d8c:	10000011 	b	9d008dd4 <dpcmplt+0x114>
9d008d90:	24020001 	li	v0,1
9d008d94:	0086502b 	sltu	t2,a0,a2
9d008d98:	00862023 	subu	a0,a0,a2
9d008d9c:	00aa582b 	sltu	t3,a1,t2
9d008da0:	00aa2823 	subu	a1,a1,t2
9d008da4:	00a7502b 	sltu	t2,a1,a3
9d008da8:	014b5025 	or	t2,t2,t3
9d008dac:	11400003 	beqz	t2,9d008dbc <dpcmplt+0xfc>
9d008db0:	00a72823 	subu	a1,a1,a3
9d008db4:	10000007 	b	9d008dd4 <dpcmplt+0x114>
9d008db8:	2402ffff 	li	v0,-1
9d008dbc:	00a45025 	or	t2,a1,a0
9d008dc0:	11400003 	beqz	t2,9d008dd0 <dpcmplt+0x110>
9d008dc4:	00000000 	nop
9d008dc8:	10000002 	b	9d008dd4 <dpcmplt+0x114>
9d008dcc:	24020001 	li	v0,1
9d008dd0:	24020000 	li	v0,0
9d008dd4:	03e00008 	jr	ra
9d008dd8:	00000000 	nop
9d008ddc:	00000000 	nop
9d008de0:	1000fffc 	b	9d008dd4 <dpcmplt+0x114>
9d008de4:	34020001 	li	v0,0x1
9d008de8:	00000000 	nop

Disassembly of section .text._mon_putc:

9d008dec <_mon_putc>:
9d008dec:	3c02a000 	lui	v0,0xa000
9d008df0:	8c430008 	lw	v1,8(v0)
9d008df4:	14600013 	bnez	v1,9d008e44 <_mon_putc+0x58>
9d008df8:	00803025 	move	a2,a0
9d008dfc:	3c020000 	lui	v0,0x0
9d008e00:	27bdffe8 	addiu	sp,sp,-24
9d008e04:	24420000 	addiu	v0,v0,0
9d008e08:	10400006 	beqz	v0,9d008e24 <_mon_putc+0x38>
9d008e0c:	afbf0014 	sw	ra,20(sp)
9d008e10:	0c000000 	jal	90000000 <_bmxdudba_address+0x8ffe0000>
9d008e14:	00000000 	nop
9d008e18:	8fbf0014 	lw	ra,20(sp)
9d008e1c:	03e00008 	jr	ra
9d008e20:	27bd0018 	addiu	sp,sp,24
9d008e24:	3c020000 	lui	v0,0x0
9d008e28:	24420000 	addiu	v0,v0,0
9d008e2c:	10400025 	beqz	v0,9d008ec4 <_mon_putc+0xd8>
9d008e30:	3c05bf80 	lui	a1,0xbf80
9d008e34:	0c000000 	jal	90000000 <_bmxdudba_address+0x8ffe0000>
9d008e38:	00000000 	nop
9d008e3c:	1000fff7 	b	9d008e1c <_mon_putc+0x30>
9d008e40:	8fbf0014 	lw	ra,20(sp)
9d008e44:	3c02bf80 	lui	v0,0xbf80
9d008e48:	24426010 	addiu	v0,v0,24592
9d008e4c:	1040002f 	beqz	v0,9d008f0c <_mon_putc+0x120>
9d008e50:	00000000 	nop
9d008e54:	24040001 	li	a0,1
9d008e58:	14640012 	bne	v1,a0,9d008ea4 <_mon_putc+0xb8>
9d008e5c:	3c03bf80 	lui	v1,0xbf80
9d008e60:	3c03bf80 	lui	v1,0xbf80
9d008e64:	3c04bf80 	lui	a0,0xbf80
9d008e68:	3c05bf80 	lui	a1,0xbf80
9d008e6c:	24636020 	addiu	v1,v1,24608
9d008e70:	24846018 	addiu	a0,a0,24600
9d008e74:	24a56008 	addiu	a1,a1,24584
9d008e78:	34078000 	li	a3,0x8000
9d008e7c:	aca70000 	sw	a3,0(a1)
9d008e80:	24050400 	li	a1,1024
9d008e84:	ac850000 	sw	a1,0(a0)
9d008e88:	8c440000 	lw	a0,0(v0)
9d008e8c:	30840100 	andi	a0,a0,0x100
9d008e90:	1080fffd 	beqz	a0,9d008e88 <_mon_putc+0x9c>
9d008e94:	00000000 	nop
9d008e98:	ac660000 	sw	a2,0(v1)
9d008e9c:	03e00008 	jr	ra
9d008ea0:	00000000 	nop
9d008ea4:	3c04bf80 	lui	a0,0xbf80
9d008ea8:	3c05bf80 	lui	a1,0xbf80
9d008eac:	3c02bf80 	lui	v0,0xbf80
9d008eb0:	24636820 	addiu	v1,v1,26656
9d008eb4:	24846818 	addiu	a0,a0,26648
9d008eb8:	24a56808 	addiu	a1,a1,26632
9d008ebc:	1000ffee 	b	9d008e78 <_mon_putc+0x8c>
9d008ec0:	24426810 	addiu	v0,v0,26640
9d008ec4:	24a56808 	addiu	a1,a1,26632
9d008ec8:	3c04bf80 	lui	a0,0xbf80
9d008ecc:	34078000 	li	a3,0x8000
9d008ed0:	aca70000 	sw	a3,0(a1)
9d008ed4:	3c03bf80 	lui	v1,0xbf80
9d008ed8:	24846818 	addiu	a0,a0,26648
9d008edc:	3c02bf80 	lui	v0,0xbf80
9d008ee0:	24050400 	li	a1,1024
9d008ee4:	24636820 	addiu	v1,v1,26656
9d008ee8:	24426810 	addiu	v0,v0,26640
9d008eec:	ac850000 	sw	a1,0(a0)
9d008ef0:	8c440000 	lw	a0,0(v0)
9d008ef4:	30840100 	andi	a0,a0,0x100
9d008ef8:	1080fffd 	beqz	a0,9d008ef0 <_mon_putc+0x104>
9d008efc:	00000000 	nop
9d008f00:	ac660000 	sw	a2,0(v1)
9d008f04:	1000ffc5 	b	9d008e1c <_mon_putc+0x30>
9d008f08:	8fbf0014 	lw	ra,20(sp)
9d008f0c:	03e00008 	jr	ra
9d008f10:	00000000 	nop

Disassembly of section .text.__shgetc:

9d008f14 <__shgetc>:
9d008f14:	27bdffe8 	addiu	sp,sp,-24
9d008f18:	afb00010 	sw	s0,16(sp)
9d008f1c:	00808025 	move	s0,a0
9d008f20:	8e030054 	lw	v1,84(s0)
9d008f24:	8c840050 	lw	a0,80(a0)
9d008f28:	00831025 	or	v0,a0,v1
9d008f2c:	10400011 	beqz	v0,9d008f74 <__shgetc+0x60>
9d008f30:	afbf0014 	sw	ra,20(sp)
9d008f34:	8e02005c 	lw	v0,92(s0)
9d008f38:	0043282a 	slt	a1,v0,v1
9d008f3c:	14a0000d 	bnez	a1,9d008f74 <__shgetc+0x60>
9d008f40:	00000000 	nop
9d008f44:	54430006 	bnel	v0,v1,9d008f60 <__shgetc+0x4c>
9d008f48:	ae00004c 	sw	zero,76(s0)
9d008f4c:	8e020058 	lw	v0,88(s0)
9d008f50:	0044102b 	sltu	v0,v0,a0
9d008f54:	14400007 	bnez	v0,9d008f74 <__shgetc+0x60>
9d008f58:	00000000 	nop
9d008f5c:	ae00004c 	sw	zero,76(s0)
9d008f60:	2402ffff 	li	v0,-1
9d008f64:	8fbf0014 	lw	ra,20(sp)
9d008f68:	8fb00010 	lw	s0,16(sp)
9d008f6c:	03e00008 	jr	ra
9d008f70:	27bd0018 	addiu	sp,sp,24
9d008f74:	0f402c09 	jal	9d00b024 <__uflow>
9d008f78:	02002025 	move	a0,s0
9d008f7c:	0442fff8 	bltzl	v0,9d008f60 <__shgetc+0x4c>
9d008f80:	ae00004c 	sw	zero,76(s0)
9d008f84:	8e040050 	lw	a0,80(s0)
9d008f88:	8e060054 	lw	a2,84(s0)
9d008f8c:	8e030040 	lw	v1,64(s0)
9d008f90:	8e07003c 	lw	a3,60(s0)
9d008f94:	00864025 	or	t0,a0,a2
9d008f98:	11000014 	beqz	t0,9d008fec <__shgetc+0xd8>
9d008f9c:	00602825 	move	a1,v1
9d008fa0:	8e090058 	lw	t1,88(s0)
9d008fa4:	8e05005c 	lw	a1,92(s0)
9d008fa8:	00894023 	subu	t0,a0,t1
9d008fac:	0088502b 	sltu	t2,a0,t0
9d008fb0:	00c52823 	subu	a1,a2,a1
9d008fb4:	00673023 	subu	a2,v1,a3
9d008fb8:	00aa2823 	subu	a1,a1,t2
9d008fbc:	000657c3 	sra	t2,a2,0x1f
9d008fc0:	0145582a 	slt	t3,t2,a1
9d008fc4:	55600009 	bnezl	t3,9d008fec <__shgetc+0xd8>
9d008fc8:	00602825 	move	a1,v1
9d008fcc:	54aa0005 	bnel	a1,t2,9d008fe4 <__shgetc+0xd0>
9d008fd0:	2484ffff 	addiu	a0,a0,-1
9d008fd4:	00c8402b 	sltu	t0,a2,t0
9d008fd8:	15000004 	bnez	t0,9d008fec <__shgetc+0xd8>
9d008fdc:	00602825 	move	a1,v1
9d008fe0:	2484ffff 	addiu	a0,a0,-1
9d008fe4:	00892023 	subu	a0,a0,t1
9d008fe8:	00e42821 	addu	a1,a3,a0
9d008fec:	1060000c 	beqz	v1,9d009020 <__shgetc+0x10c>
9d008ff0:	ae05004c 	sw	a1,76(s0)
9d008ff4:	8e040058 	lw	a0,88(s0)
9d008ff8:	8e05005c 	lw	a1,92(s0)
9d008ffc:	00671823 	subu	v1,v1,a3
9d009000:	24630001 	addiu	v1,v1,1
9d009004:	000337c3 	sra	a2,v1,0x1f
9d009008:	00831821 	addu	v1,a0,v1
9d00900c:	0064202b 	sltu	a0,v1,a0
9d009010:	00a62821 	addu	a1,a1,a2
9d009014:	00852021 	addu	a0,a0,a1
9d009018:	ae030058 	sw	v1,88(s0)
9d00901c:	ae04005c 	sw	a0,92(s0)
9d009020:	90e3ffff 	lbu	v1,-1(a3)
9d009024:	5462ffcf 	bnel	v1,v0,9d008f64 <__shgetc+0x50>
9d009028:	a0e2ffff 	sb	v0,-1(a3)
9d00902c:	1000ffce 	b	9d008f68 <__shgetc+0x54>
9d009030:	8fbf0014 	lw	ra,20(sp)

Disassembly of section .text.logbl:

9d009034 <logbl>:
9d009034:	27bdffe0 	addiu	sp,sp,-32
9d009038:	afa50024 	sw	a1,36(sp)
9d00903c:	afb20018 	sw	s2,24(sp)
9d009040:	87b20026 	lh	s2,38(sp)
9d009044:	24037ff0 	li	v1,32752
9d009048:	afbf001c 	sw	ra,28(sp)
9d00904c:	32427ff0 	andi	v0,s2,0x7ff0
9d009050:	afb10014 	sw	s1,20(sp)
9d009054:	afb00010 	sw	s0,16(sp)
9d009058:	10430021 	beq	v0,v1,9d0090e0 <logbl+0xac>
9d00905c:	afa40020 	sw	a0,32(sp)
9d009060:	14400012 	bnez	v0,9d0090ac <logbl+0x78>
9d009064:	00003025 	move	a2,zero
9d009068:	0f4022e5 	jal	9d008b94 <__eqdf2>
9d00906c:	00003825 	move	a3,zero
9d009070:	1440002e 	bnez	v0,9d00912c <logbl+0xf8>
9d009074:	3c029d00 	lui	v0,0x9d00
9d009078:	3c02a000 	lui	v0,0xa000
9d00907c:	24030021 	li	v1,33
9d009080:	00008025 	move	s0,zero
9d009084:	3c11ffc0 	lui	s1,0xffc0
9d009088:	ac431c78 	sw	v1,7288(v0)
9d00908c:	8fbf001c 	lw	ra,28(sp)
9d009090:	02001025 	move	v0,s0
9d009094:	02201825 	move	v1,s1
9d009098:	8fb20018 	lw	s2,24(sp)
9d00909c:	8fb10014 	lw	s1,20(sp)
9d0090a0:	8fb00010 	lw	s0,16(sp)
9d0090a4:	03e00008 	jr	ra
9d0090a8:	27bd0020 	addiu	sp,sp,32
9d0090ac:	00022103 	sra	a0,v0,0x4
9d0090b0:	0f402a60 	jal	9d00a980 <__floatsidf>
9d0090b4:	2484fc01 	addiu	a0,a0,-1023
9d0090b8:	8fbf001c 	lw	ra,28(sp)
9d0090bc:	00408025 	move	s0,v0
9d0090c0:	00608825 	move	s1,v1
9d0090c4:	02001025 	move	v0,s0
9d0090c8:	02201825 	move	v1,s1
9d0090cc:	8fb20018 	lw	s2,24(sp)
9d0090d0:	8fb10014 	lw	s1,20(sp)
9d0090d4:	8fb00010 	lw	s0,16(sp)
9d0090d8:	03e00008 	jr	ra
9d0090dc:	27bd0020 	addiu	sp,sp,32
9d0090e0:	00803025 	move	a2,a0
9d0090e4:	00a03825 	move	a3,a1
9d0090e8:	00808025 	move	s0,a0
9d0090ec:	0f4022e5 	jal	9d008b94 <__eqdf2>
9d0090f0:	00a08825 	move	s1,a1
9d0090f4:	1440ffe6 	bnez	v0,9d009090 <logbl+0x5c>
9d0090f8:	8fbf001c 	lw	ra,28(sp)
9d0090fc:	32527fff 	andi	s2,s2,0x7fff
9d009100:	a7b20026 	sh	s2,38(sp)
9d009104:	8fb00020 	lw	s0,32(sp)
9d009108:	8fb10024 	lw	s1,36(sp)
9d00910c:	8fbf001c 	lw	ra,28(sp)
9d009110:	02001025 	move	v0,s0
9d009114:	02201825 	move	v1,s1
9d009118:	8fb20018 	lw	s2,24(sp)
9d00911c:	8fb10014 	lw	s1,20(sp)
9d009120:	8fb00010 	lw	s0,16(sp)
9d009124:	03e00008 	jr	ra
9d009128:	27bd0020 	addiu	sp,sp,32
9d00912c:	8c511eac 	lw	s1,7852(v0)
9d009130:	8c501ea8 	lw	s0,7848(v0)
9d009134:	8fbf001c 	lw	ra,28(sp)
9d009138:	02201825 	move	v1,s1
9d00913c:	02001025 	move	v0,s0
9d009140:	8fb20018 	lw	s2,24(sp)
9d009144:	8fb10014 	lw	s1,20(sp)
9d009148:	8fb00010 	lw	s0,16(sp)
9d00914c:	03e00008 	jr	ra
9d009150:	27bd0020 	addiu	sp,sp,32

Disassembly of section .text.realloc:

9d009154 <realloc>:
9d009154:	27bdffd8 	addiu	sp,sp,-40
9d009158:	afbf0024 	sw	ra,36(sp)
9d00915c:	afb40020 	sw	s4,32(sp)
9d009160:	afb3001c 	sw	s3,28(sp)
9d009164:	afb20018 	sw	s2,24(sp)
9d009168:	afb10014 	sw	s1,20(sp)
9d00916c:	afb00010 	sw	s0,16(sp)
9d009170:	1480000d 	bnez	a0,9d0091a8 <realloc+0x54>
9d009174:	afa5002c 	sw	a1,44(sp)
9d009178:	0f401d6a 	jal	9d0075a8 <malloc>
9d00917c:	00a02025 	move	a0,a1
9d009180:	00408825 	move	s1,v0
9d009184:	8fbf0024 	lw	ra,36(sp)
9d009188:	02201025 	move	v0,s1
9d00918c:	8fb40020 	lw	s4,32(sp)
9d009190:	8fb3001c 	lw	s3,28(sp)
9d009194:	8fb20018 	lw	s2,24(sp)
9d009198:	8fb10014 	lw	s1,20(sp)
9d00919c:	8fb00010 	lw	s0,16(sp)
9d0091a0:	03e00008 	jr	ra
9d0091a4:	27bd0028 	addiu	sp,sp,40
9d0091a8:	00808025 	move	s0,a0
9d0091ac:	0f402bc8 	jal	9d00af20 <adjust_size>
9d0091b0:	27a4002c 	addiu	a0,sp,44
9d0091b4:	0440002b 	bltz	v0,9d009264 <realloc+0x110>
9d0091b8:	2413fffe 	li	s3,-2
9d0091bc:	8e02fffc 	lw	v0,-4(s0)
9d0091c0:	2614fff8 	addiu	s4,s0,-8
9d0091c4:	00539024 	and	s2,v0,s3
9d0091c8:	02928821 	addu	s1,s4,s2
9d0091cc:	8e230000 	lw	v1,0(s1)
9d0091d0:	10430003 	beq	v0,v1,9d0091e0 <realloc+0x8c>
9d0091d4:	8fa2002c 	lw	v0,44(sp)
9d0091d8:	a0000000 	sb	zero,0(zero)
9d0091dc:	00000034 	teq	zero,zero
9d0091e0:	0242102b 	sltu	v0,s2,v0
9d0091e4:	10400009 	beqz	v0,9d00920c <realloc+0xb8>
9d0091e8:	02401825 	move	v1,s2
9d0091ec:	0f402ad5 	jal	9d00ab54 <alloc_fwd>
9d0091f0:	02202025 	move	a0,s1
9d0091f4:	10400005 	beqz	v0,9d00920c <realloc+0xb8>
9d0091f8:	02401825 	move	v1,s2
9d0091fc:	8e220004 	lw	v0,4(s1)
9d009200:	02629824 	and	s3,s3,v0
9d009204:	02721821 	addu	v1,s3,s2
9d009208:	02338821 	addu	s1,s1,s3
9d00920c:	8fa5002c 	lw	a1,44(sp)
9d009210:	34620001 	ori	v0,v1,0x1
9d009214:	ae02fffc 	sw	v0,-4(s0)
9d009218:	0065182b 	sltu	v1,v1,a1
9d00921c:	14600005 	bnez	v1,9d009234 <realloc+0xe0>
9d009220:	ae220000 	sw	v0,0(s1)
9d009224:	0f402bde 	jal	9d00af78 <trim>
9d009228:	02802025 	move	a0,s4
9d00922c:	1000ffd5 	b	9d009184 <realloc+0x30>
9d009230:	02008825 	move	s1,s0
9d009234:	0f401d6a 	jal	9d0075a8 <malloc>
9d009238:	24a4fff8 	addiu	a0,a1,-8
9d00923c:	1040ffd1 	beqz	v0,9d009184 <realloc+0x30>
9d009240:	00408825 	move	s1,v0
9d009244:	2646fff8 	addiu	a2,s2,-8
9d009248:	02002825 	move	a1,s0
9d00924c:	0f402de0 	jal	9d00b780 <memcpy>
9d009250:	00402025 	move	a0,v0
9d009254:	0f40200d 	jal	9d008034 <free>
9d009258:	02002025 	move	a0,s0
9d00925c:	1000ffca 	b	9d009188 <realloc+0x34>
9d009260:	8fbf0024 	lw	ra,36(sp)
9d009264:	1000ffc7 	b	9d009184 <realloc+0x30>
9d009268:	00008825 	move	s1,zero

Disassembly of section .text.__pad:

9d00926c <__pad>:
9d00926c:	27bdffc0 	addiu	sp,sp,-64
9d009270:	afb40030 	sw	s4,48(sp)
9d009274:	8fb40050 	lw	s4,80(sp)
9d009278:	afb50034 	sw	s5,52(sp)
9d00927c:	afb3002c 	sw	s3,44(sp)
9d009280:	32940001 	andi	s4,s4,0x1
9d009284:	afb20028 	sw	s2,40(sp)
9d009288:	afb10024 	sw	s1,36(sp)
9d00928c:	afb00020 	sw	s0,32(sp)
9d009290:	afbf003c 	sw	ra,60(sp)
9d009294:	afb60038 	sw	s6,56(sp)
9d009298:	00809825 	move	s3,a0
9d00929c:	00a0a825 	move	s5,a1
9d0092a0:	00c08825 	move	s1,a2
9d0092a4:	00e09025 	move	s2,a3
9d0092a8:	16800024 	bnez	s4,9d00933c <__pad+0xd0>
9d0092ac:	00c7802a 	slt	s0,a2,a3
9d0092b0:	12000023 	beqz	s0,9d009340 <__pad+0xd4>
9d0092b4:	02203025 	move	a2,s1
9d0092b8:	02518023 	subu	s0,s2,s1
9d0092bc:	2e060011 	sltiu	a2,s0,17
9d0092c0:	24020010 	li	v0,16
9d0092c4:	0206100b 	movn	v0,s0,a2
9d0092c8:	00403025 	move	a2,v0
9d0092cc:	24050020 	li	a1,32
9d0092d0:	27a40010 	addiu	a0,sp,16
9d0092d4:	0f402e49 	jal	9d00b924 <memset>
9d0092d8:	0200b025 	move	s6,s0
9d0092dc:	2a020010 	slti	v0,s0,16
9d0092e0:	1040001e 	beqz	v0,9d00935c <__pad+0xf0>
9d0092e4:	24060010 	li	a2,16
9d0092e8:	32c6000f 	andi	a2,s6,0xf
9d0092ec:	27a50010 	addiu	a1,sp,16
9d0092f0:	0f402934 	jal	9d00a4d0 <__out>
9d0092f4:	02602025 	move	a0,s3
9d0092f8:	16800006 	bnez	s4,9d009314 <__pad+0xa8>
9d0092fc:	8fbf003c 	lw	ra,60(sp)
9d009300:	02203025 	move	a2,s1
9d009304:	02a02825 	move	a1,s5
9d009308:	0f402934 	jal	9d00a4d0 <__out>
9d00930c:	02602025 	move	a0,s3
9d009310:	8fbf003c 	lw	ra,60(sp)
9d009314:	02401025 	move	v0,s2
9d009318:	8fb60038 	lw	s6,56(sp)
9d00931c:	8fb50034 	lw	s5,52(sp)
9d009320:	8fb40030 	lw	s4,48(sp)
9d009324:	8fb3002c 	lw	s3,44(sp)
9d009328:	8fb20028 	lw	s2,40(sp)
9d00932c:	8fb10024 	lw	s1,36(sp)
9d009330:	8fb00020 	lw	s0,32(sp)
9d009334:	03e00008 	jr	ra
9d009338:	27bd0040 	addiu	sp,sp,64
9d00933c:	02203025 	move	a2,s1
9d009340:	02a02825 	move	a1,s5
9d009344:	0f402934 	jal	9d00a4d0 <__out>
9d009348:	02602025 	move	a0,s3
9d00934c:	1600ffdb 	bnez	s0,9d0092bc <__pad+0x50>
9d009350:	02518023 	subu	s0,s2,s1
9d009354:	1000ffee 	b	9d009310 <__pad+0xa4>
9d009358:	02209025 	move	s2,s1
9d00935c:	27a50010 	addiu	a1,sp,16
9d009360:	0f402934 	jal	9d00a4d0 <__out>
9d009364:	02602025 	move	a0,s3
9d009368:	1000ffdc 	b	9d0092dc <__pad+0x70>
9d00936c:	2610fff0 	addiu	s0,s0,-16

Disassembly of section .text.dptofp:

9d009370 <__truncdfsf2>:
9d009370:	00053ac0 00045d42 00eb3825 000432c0     .:..B]..%8...2..
9d009380:	3c018000 00e13825 3c018000 00a14824     ...<%8.....<$H..
9d009390:	00054040 00084542 2508fc80 250bffff     @@..BE.....%...%
9d0093a0:	2d6100fe 10200012 00000000              ..a-.. .....

9d0093ac <Hlab1>:
9d0093ac:	10c00002 	beqz	a2,9d0093b8 <i45>
9d0093b0:	00000000 	nop
9d0093b4:	34e70001 	ori	a3,a3,0x1

9d0093b8 <i45>:
9d0093b8:	24e70080 	addiu	a3,a3,128
9d0093bc:	2ceb0080 	sltiu	t3,a3,128
9d0093c0:	010b4021 	addu	t0,t0,t3
9d0093c4:	00075a02 	srl	t3,a3,0x8
9d0093c8:	316b0001 	andi	t3,t3,0x1
9d0093cc:	00eb3823 	subu	a3,a3,t3
9d0093d0:	00073840 	sll	a3,a3,0x1
9d0093d4:	00073a42 	srl	a3,a3,0x9
9d0093d8:	00085dc0 	sll	t3,t0,0x17
9d0093dc:	00eb3825 	or	a3,a3,t3
9d0093e0:	00e91025 	or	v0,a3,t1

9d0093e4 <H999>:
9d0093e4:	03e00008 	jr	ra
9d0093e8:	00000000 	nop
9d0093ec:	00000000 	nop

9d0093f0 <Hspec>:
9d0093f0:	2401047f 	li	at,1151
9d0093f4:	15010007 	bne	t0,at,9d009414 <i46>
9d0093f8:	00000000 	nop
9d0093fc:	00075840 	sll	t3,a3,0x1
9d009400:	01665825 	or	t3,t3,a2
9d009404:	11600003 	beqz	t3,9d009414 <i46>
9d009408:	00000000 	nop
9d00940c:	1000fff5 	b	9d0093e4 <H999>
9d009410:	3c02ffc0 	lui	v0,0xffc0

9d009414 <i46>:
9d009414:	290100ff 	slti	at,t0,255
9d009418:	14200004 	bnez	at,9d00942c <i48>
9d00941c:	00000000 	nop
9d009420:	3c017f80 	lui	at,0x7f80
9d009424:	1000ffef 	b	9d0093e4 <H999>
9d009428:	01211025 	or	v0,t1,at

9d00942c <i48>:
9d00942c:	240a0001 	li	t2,1
9d009430:	01485023 	subu	t2,t2,t0
9d009434:	2d410020 	sltiu	at,t2,32
9d009438:	14200003 	bnez	at,9d009448 <i49>
9d00943c:	00000000 	nop
9d009440:	1000ffe8 	b	9d0093e4 <H999>
9d009444:	00091025 	or	v0,zero,t1

9d009448 <i49>:
9d009448:	240c0020 	li	t4,32
9d00944c:	018a6023 	subu	t4,t4,t2
9d009450:	01875804 	sllv	t3,a3,t4
9d009454:	00cb3025 	or	a2,a2,t3
9d009458:	01473806 	srlv	a3,a3,t2
9d00945c:	24080000 	li	t0,0
9d009460:	3c018000 	lui	at,0x8000
9d009464:	1000ffd1 	b	9d0093ac <Hlab1>
9d009468:	00e13825 	or	a3,a3,at
9d00946c:	00000000 	nop

Disassembly of section .text.__fmt_o:

9d009470 <__fmt_o>:
9d009470:	8ca20000 	lw	v0,0(a1)
9d009474:	8ca30004 	lw	v1,4(a1)
9d009478:	27bdffc0 	addiu	sp,sp,-64
9d00947c:	afb30038 	sw	s3,56(sp)
9d009480:	afb20034 	sw	s2,52(sp)
9d009484:	afb10030 	sw	s1,48(sp)
9d009488:	afb0002c 	sw	s0,44(sp)
9d00948c:	afbf003c 	sw	ra,60(sp)
9d009490:	00809025 	move	s2,a0
9d009494:	00a08025 	move	s0,a1
9d009498:	8cb30008 	lw	s3,8(a1)
9d00949c:	afa20020 	sw	v0,32(sp)
9d0094a0:	04600003 	bltz	v1,9d0094b0 <__fmt_o+0x40>
9d0094a4:	8cb1000c 	lw	s1,12(a1)
9d0094a8:	7c020844 	ins	v0,zero,0x1,0x1
9d0094ac:	afa20020 	sw	v0,32(sp)
9d0094b0:	27a20020 	addiu	v0,sp,32
9d0094b4:	afa20018 	sw	v0,24(sp)
9d0094b8:	24020008 	li	v0,8
9d0094bc:	afa20014 	sw	v0,20(sp)
9d0094c0:	afb30010 	sw	s3,16(sp)
9d0094c4:	8cc70004 	lw	a3,4(a2)
9d0094c8:	8cc60000 	lw	a2,0(a2)
9d0094cc:	0f402294 	jal	9d008a50 <__cvt_u>
9d0094d0:	02002025 	move	a0,s0
9d0094d4:	8fa30020 	lw	v1,32(sp)
9d0094d8:	30630010 	andi	v1,v1,0x10
9d0094dc:	10600006 	beqz	v1,9d0094f8 <__fmt_o+0x88>
9d0094e0:	8fa30020 	lw	v1,32(sp)
9d0094e4:	2442ffff 	addiu	v0,v0,-1
9d0094e8:	02221821 	addu	v1,s1,v0
9d0094ec:	24040030 	li	a0,48
9d0094f0:	a0640000 	sb	a0,0(v1)
9d0094f4:	8fa30020 	lw	v1,32(sp)
9d0094f8:	30630008 	andi	v1,v1,0x8
9d0094fc:	50600006 	beqzl	v1,9d009518 <__fmt_o+0xa8>
9d009500:	8e060010 	lw	a2,16(s0)
9d009504:	2442ffff 	addiu	v0,v0,-1
9d009508:	02221821 	addu	v1,s1,v0
9d00950c:	24040020 	li	a0,32
9d009510:	a0640000 	sb	a0,0(v1)
9d009514:	8e060010 	lw	a2,16(s0)
9d009518:	8fa30020 	lw	v1,32(sp)
9d00951c:	02603825 	move	a3,s3
9d009520:	24c6ffff 	addiu	a2,a2,-1
9d009524:	afa30010 	sw	v1,16(sp)
9d009528:	00c23023 	subu	a2,a2,v0
9d00952c:	02222821 	addu	a1,s1,v0
9d009530:	0f40249b 	jal	9d00926c <__pad>
9d009534:	02402025 	move	a0,s2
9d009538:	8e430004 	lw	v1,4(s2)
9d00953c:	30630100 	andi	v1,v1,0x100
9d009540:	10600004 	beqz	v1,9d009554 <__fmt_o+0xe4>
9d009544:	8fbf003c 	lw	ra,60(sp)
9d009548:	8e030004 	lw	v1,4(s0)
9d00954c:	0043202a 	slt	a0,v0,v1
9d009550:	0064100b 	movn	v0,v1,a0
9d009554:	8fb30038 	lw	s3,56(sp)
9d009558:	8fb20034 	lw	s2,52(sp)
9d00955c:	8fb10030 	lw	s1,48(sp)
9d009560:	8fb0002c 	lw	s0,44(sp)
9d009564:	03e00008 	jr	ra
9d009568:	27bd0040 	addiu	sp,sp,64

Disassembly of section .text.scalbn:

9d00956c <scalbn>:
9d00956c:	27bdffe0 	addiu	sp,sp,-32
9d009570:	afb10014 	sw	s1,20(sp)
9d009574:	00c08825 	move	s1,a2
9d009578:	28c60400 	slti	a2,a2,1024
9d00957c:	afbf001c 	sw	ra,28(sp)
9d009580:	afb20018 	sw	s2,24(sp)
9d009584:	14c00020 	bnez	a2,9d009608 <scalbn+0x9c>
9d009588:	afb00010 	sw	s0,16(sp)
9d00958c:	3c129d00 	lui	s2,0x9d00
9d009590:	8e461ec8 	lw	a2,7880(s2)
9d009594:	8e471ecc 	lw	a3,7884(s2)
9d009598:	0f401b4d 	jal	9d006d34 <__muldf3>
9d00959c:	2630fc01 	addiu	s0,s1,-1023
9d0095a0:	2a040400 	slti	a0,s0,1024
9d0095a4:	5480000b 	bnezl	a0,9d0095d4 <scalbn+0x68>
9d0095a8:	261003ff 	addiu	s0,s0,1023
9d0095ac:	8e461ec8 	lw	a2,7880(s2)
9d0095b0:	8e471ecc 	lw	a3,7884(s2)
9d0095b4:	00402025 	move	a0,v0
9d0095b8:	00602825 	move	a1,v1
9d0095bc:	0f401b4d 	jal	9d006d34 <__muldf3>
9d0095c0:	2630f802 	addiu	s0,s1,-2046
9d0095c4:	2a050400 	slti	a1,s0,1024
9d0095c8:	240403ff 	li	a0,1023
9d0095cc:	0085800a 	movz	s0,a0,a1
9d0095d0:	261003ff 	addiu	s0,s0,1023
9d0095d4:	00102500 	sll	a0,s0,0x14
9d0095d8:	00002825 	move	a1,zero
9d0095dc:	00a03025 	move	a2,a1
9d0095e0:	00803825 	move	a3,a0
9d0095e4:	00602825 	move	a1,v1
9d0095e8:	0f401b4d 	jal	9d006d34 <__muldf3>
9d0095ec:	00402025 	move	a0,v0
9d0095f0:	8fbf001c 	lw	ra,28(sp)
9d0095f4:	8fb20018 	lw	s2,24(sp)
9d0095f8:	8fb10014 	lw	s1,20(sp)
9d0095fc:	8fb00010 	lw	s0,16(sp)
9d009600:	03e00008 	jr	ra
9d009604:	27bd0020 	addiu	sp,sp,32
9d009608:	2a26fc02 	slti	a2,s1,-1022
9d00960c:	00801025 	move	v0,a0
9d009610:	00a01825 	move	v1,a1
9d009614:	10c0ffee 	beqz	a2,9d0095d0 <scalbn+0x64>
9d009618:	02208025 	move	s0,s1
9d00961c:	3c129d00 	lui	s2,0x9d00
9d009620:	8e461ed0 	lw	a2,7888(s2)
9d009624:	8e471ed4 	lw	a3,7892(s2)
9d009628:	0f401b4d 	jal	9d006d34 <__muldf3>
9d00962c:	263003c9 	addiu	s0,s1,969
9d009630:	2a04fc02 	slti	a0,s0,-1022
9d009634:	5080ffe7 	beqzl	a0,9d0095d4 <scalbn+0x68>
9d009638:	261003ff 	addiu	s0,s0,1023
9d00963c:	8e461ed0 	lw	a2,7888(s2)
9d009640:	8e471ed4 	lw	a3,7892(s2)
9d009644:	00402025 	move	a0,v0
9d009648:	00602825 	move	a1,v1
9d00964c:	0f401b4d 	jal	9d006d34 <__muldf3>
9d009650:	26300792 	addiu	s0,s1,1938
9d009654:	2a05fc02 	slti	a1,s0,-1022
9d009658:	2404fc02 	li	a0,-1022
9d00965c:	1000ffdc 	b	9d0095d0 <scalbn+0x64>
9d009660:	0085800b 	movn	s0,a0,a1

Disassembly of section .text.__pop_ptr:

9d009664 <__pop_ptr>:
9d009664:	24020084 	li	v0,132
9d009668:	50a20022 	beql	a1,v0,9d0096f4 <__pop_ptr+0x90>
9d00966c:	8ce20000 	lw	v0,0(a3)
9d009670:	28a20085 	slti	v0,a1,133
9d009674:	10400011 	beqz	v0,9d0096bc <__pop_ptr+0x58>
9d009678:	24020090 	li	v0,144
9d00967c:	24020081 	li	v0,129
9d009680:	50a20008 	beql	a1,v0,9d0096a4 <__pop_ptr+0x40>
9d009684:	8ce20000 	lw	v0,0(a3)
9d009688:	24020082 	li	v0,130
9d00968c:	50a20026 	beql	a1,v0,9d009728 <__pop_ptr+0xc4>
9d009690:	8ce20000 	lw	v0,0(a3)
9d009694:	24020080 	li	v0,128
9d009698:	14a20010 	bne	a1,v0,9d0096dc <__pop_ptr+0x78>
9d00969c:	00000000 	nop
9d0096a0:	8ce20000 	lw	v0,0(a3)
9d0096a4:	24430004 	addiu	v1,v0,4
9d0096a8:	ace30000 	sw	v1,0(a3)
9d0096ac:	8c420000 	lw	v0,0(v0)
9d0096b0:	ac820000 	sw	v0,0(a0)
9d0096b4:	10000014 	b	9d009708 <__pop_ptr+0xa4>
9d0096b8:	ac460000 	sw	a2,0(v0)
9d0096bc:	50a2001a 	beql	a1,v0,9d009728 <__pop_ptr+0xc4>
9d0096c0:	8ce20000 	lw	v0,0(a3)
9d0096c4:	28a20091 	slti	v0,a1,145
9d0096c8:	10400006 	beqz	v0,9d0096e4 <__pop_ptr+0x80>
9d0096cc:	240200a0 	li	v0,160
9d0096d0:	24020088 	li	v0,136
9d0096d4:	50a2000e 	beql	a1,v0,9d009710 <__pop_ptr+0xac>
9d0096d8:	8ce20000 	lw	v0,0(a3)
9d0096dc:	03e00008 	jr	ra
9d0096e0:	00001025 	move	v0,zero
9d0096e4:	50a2ffef 	beql	a1,v0,9d0096a4 <__pop_ptr+0x40>
9d0096e8:	8ce20000 	lw	v0,0(a3)
9d0096ec:	1000ffea 	b	9d009698 <__pop_ptr+0x34>
9d0096f0:	240200c0 	li	v0,192
9d0096f4:	24430004 	addiu	v1,v0,4
9d0096f8:	ace30000 	sw	v1,0(a3)
9d0096fc:	8c420000 	lw	v0,0(v0)
9d009700:	ac820000 	sw	v0,0(a0)
9d009704:	a4460000 	sh	a2,0(v0)
9d009708:	03e00008 	jr	ra
9d00970c:	24020001 	li	v0,1
9d009710:	24430004 	addiu	v1,v0,4
9d009714:	ace30000 	sw	v1,0(a3)
9d009718:	8c420000 	lw	v0,0(v0)
9d00971c:	ac820000 	sw	v0,0(a0)
9d009720:	1000fff9 	b	9d009708 <__pop_ptr+0xa4>
9d009724:	a0460000 	sb	a2,0(v0)
9d009728:	24430004 	addiu	v1,v0,4
9d00972c:	ace30000 	sw	v1,0(a3)
9d009730:	8c420000 	lw	v0,0(v0)
9d009734:	ac820000 	sw	v0,0(a0)
9d009738:	ac460000 	sw	a2,0(v0)
9d00973c:	000637c3 	sra	a2,a2,0x1f
9d009740:	1000fff1 	b	9d009708 <__pop_ptr+0xa4>
9d009744:	ac460004 	sw	a2,4(v0)

Disassembly of section .text.__stdio_seek_rw:

9d009748 <__stdio_seek_rw>:
9d009748:	27bdffd0 	addiu	sp,sp,-48
9d00974c:	afb20028 	sw	s2,40(sp)
9d009750:	8fb20040 	lw	s2,64(sp)
9d009754:	24020001 	li	v0,1
9d009758:	afb10024 	sw	s1,36(sp)
9d00975c:	afb00020 	sw	s0,32(sp)
9d009760:	afbf002c 	sw	ra,44(sp)
9d009764:	00808025 	move	s0,a0
9d009768:	1642000a 	bne	s2,v0,9d009794 <__stdio_seek_rw+0x4c>
9d00976c:	00c08825 	move	s1,a2
9d009770:	8c83003c 	lw	v1,60(a0)
9d009774:	8c820040 	lw	v0,64(a0)
9d009778:	00431023 	subu	v0,v0,v1
9d00977c:	000227c3 	sra	a0,v0,0x1f
9d009780:	00c21023 	subu	v0,a2,v0
9d009784:	00c2182b 	sltu	v1,a2,v0
9d009788:	00e43823 	subu	a3,a3,a0
9d00978c:	00408825 	move	s1,v0
9d009790:	00e33823 	subu	a3,a3,v1
9d009794:	8e020004 	lw	v0,4(s0)
9d009798:	30420020 	andi	v0,v0,0x20
9d00979c:	5040000a 	beqzl	v0,9d0097c8 <__stdio_seek_rw+0x80>
9d0097a0:	afb20010 	sw	s2,16(sp)
9d0097a4:	8e020014 	lw	v0,20(s0)
9d0097a8:	8e030018 	lw	v1,24(s0)
9d0097ac:	0062102b 	sltu	v0,v1,v0
9d0097b0:	5440000e 	bnezl	v0,9d0097ec <__stdio_seek_rw+0xa4>
9d0097b4:	8e02002c 	lw	v0,44(s0)
9d0097b8:	ae000028 	sw	zero,40(s0)
9d0097bc:	ae000018 	sw	zero,24(s0)
9d0097c0:	ae000014 	sw	zero,20(s0)
9d0097c4:	afb20010 	sw	s2,16(sp)
9d0097c8:	02203025 	move	a2,s1
9d0097cc:	0f402bb2 	jal	9d00aec8 <__stdio_seek_unbuffered>
9d0097d0:	02002025 	move	a0,s0
9d0097d4:	0460000d 	bltz	v1,9d00980c <__stdio_seek_rw+0xc4>
9d0097d8:	00001025 	move	v0,zero
9d0097dc:	ae000040 	sw	zero,64(s0)
9d0097e0:	ae00003c 	sw	zero,60(s0)
9d0097e4:	1000000b 	b	9d009814 <__stdio_seek_rw+0xcc>
9d0097e8:	00001825 	move	v1,zero
9d0097ec:	00003025 	move	a2,zero
9d0097f0:	00002825 	move	a1,zero
9d0097f4:	02002025 	move	a0,s0
9d0097f8:	0040f809 	jalr	v0
9d0097fc:	afa70018 	sw	a3,24(sp)
9d009800:	8e020014 	lw	v0,20(s0)
9d009804:	1440ffec 	bnez	v0,9d0097b8 <__stdio_seek_rw+0x70>
9d009808:	8fa70018 	lw	a3,24(sp)
9d00980c:	2402ffff 	li	v0,-1
9d009810:	2403ffff 	li	v1,-1
9d009814:	8fbf002c 	lw	ra,44(sp)
9d009818:	8fb20028 	lw	s2,40(sp)
9d00981c:	8fb10024 	lw	s1,36(sp)
9d009820:	8fb00020 	lw	s0,32(sp)
9d009824:	03e00008 	jr	ra
9d009828:	27bd0030 	addiu	sp,sp,48

Disassembly of section .text.general_exception:

9d00982c <_general_exception_context>:
9d00982c:	27bdffa8 	addiu	sp,sp,-88
9d009830:	afa10004 	sw	at,4(sp)
9d009834:	afa20008 	sw	v0,8(sp)
9d009838:	afa3000c 	sw	v1,12(sp)
9d00983c:	afa40010 	sw	a0,16(sp)
9d009840:	afa50014 	sw	a1,20(sp)
9d009844:	afa60018 	sw	a2,24(sp)
9d009848:	afa7001c 	sw	a3,28(sp)
9d00984c:	afa80020 	sw	t0,32(sp)
9d009850:	afa90024 	sw	t1,36(sp)
9d009854:	afaa0028 	sw	t2,40(sp)
9d009858:	afab002c 	sw	t3,44(sp)
9d00985c:	afac0030 	sw	t4,48(sp)
9d009860:	afad0034 	sw	t5,52(sp)
9d009864:	afae0038 	sw	t6,56(sp)
9d009868:	afaf003c 	sw	t7,60(sp)
9d00986c:	afb80040 	sw	t8,64(sp)
9d009870:	afb90044 	sw	t9,68(sp)
9d009874:	afbf0048 	sw	ra,72(sp)
9d009878:	00004012 	mflo	t0
9d00987c:	afa8004c 	sw	t0,76(sp)
9d009880:	00004010 	mfhi	t0
9d009884:	afa80050 	sw	t0,80(sp)
9d009888:	3c1a9d01 	lui	k0,0x9d01
9d00988c:	275ab2dc 	addiu	k0,k0,-19748
9d009890:	00000000 	nop
9d009894:	40046800 	mfc0	a0,c0_cause
9d009898:	40056000 	mfc0	a1,c0_status
9d00989c:	0340f809 	jalr	k0
9d0098a0:	00000000 	nop
9d0098a4:	8fa80050 	lw	t0,80(sp)
9d0098a8:	01000011 	mthi	t0
9d0098ac:	8fa8004c 	lw	t0,76(sp)
9d0098b0:	01000013 	mtlo	t0
9d0098b4:	8fa10004 	lw	at,4(sp)
9d0098b8:	8fa20008 	lw	v0,8(sp)
9d0098bc:	8fa3000c 	lw	v1,12(sp)
9d0098c0:	8fa40010 	lw	a0,16(sp)
9d0098c4:	8fa50014 	lw	a1,20(sp)
9d0098c8:	8fa60018 	lw	a2,24(sp)
9d0098cc:	8fa7001c 	lw	a3,28(sp)
9d0098d0:	8fa80020 	lw	t0,32(sp)
9d0098d4:	8fa90024 	lw	t1,36(sp)
9d0098d8:	8faa0028 	lw	t2,40(sp)
9d0098dc:	8fab002c 	lw	t3,44(sp)
9d0098e0:	8fac0030 	lw	t4,48(sp)
9d0098e4:	8fad0034 	lw	t5,52(sp)
9d0098e8:	8fae0038 	lw	t6,56(sp)
9d0098ec:	8faf003c 	lw	t7,60(sp)
9d0098f0:	8fb80040 	lw	t8,64(sp)
9d0098f4:	8fb90044 	lw	t9,68(sp)
9d0098f8:	8fbf0048 	lw	ra,72(sp)
9d0098fc:	27bd0058 	addiu	sp,sp,88
9d009900:	000000c0 	ehb
9d009904:	42000018 	eret

Disassembly of section .text.__stdio_read:

9d009908 <__stdio_read>:
9d009908:	8c83000c 	lw	v1,12(a0)
9d00990c:	27bdffd0 	addiu	sp,sp,-48
9d009910:	afb00020 	sw	s0,32(sp)
9d009914:	0003102b 	sltu	v0,zero,v1
9d009918:	00c21023 	subu	v0,a2,v0
9d00991c:	00808025 	move	s0,a0
9d009920:	afa20014 	sw	v0,20(sp)
9d009924:	8c820008 	lw	v0,8(a0)
9d009928:	8c840000 	lw	a0,0(a0)
9d00992c:	afb20028 	sw	s2,40(sp)
9d009930:	afb10024 	sw	s1,36(sp)
9d009934:	00a09025 	move	s2,a1
9d009938:	00c08825 	move	s1,a2
9d00993c:	afa50010 	sw	a1,16(sp)
9d009940:	24060002 	li	a2,2
9d009944:	27a50010 	addiu	a1,sp,16
9d009948:	afbf002c 	sw	ra,44(sp)
9d00994c:	afa20018 	sw	v0,24(sp)
9d009950:	0f402a41 	jal	9d00a904 <readv>
9d009954:	afa3001c 	sw	v1,28(sp)
9d009958:	1c400008 	bgtz	v0,9d00997c <__stdio_read+0x74>
9d00995c:	8fa40014 	lw	a0,20(sp)
9d009960:	30430018 	andi	v1,v0,0x18
9d009964:	38640008 	xori	a0,v1,0x8
9d009968:	8e030004 	lw	v1,4(s0)
9d00996c:	00641825 	or	v1,v1,a0
9d009970:	ae030004 	sw	v1,4(s0)
9d009974:	10000010 	b	9d0099b8 <__stdio_read+0xb0>
9d009978:	00408825 	move	s1,v0
9d00997c:	0082182b 	sltu	v1,a0,v0
9d009980:	5060000d 	beqzl	v1,9d0099b8 <__stdio_read+0xb0>
9d009984:	00408825 	move	s1,v0
9d009988:	8e030008 	lw	v1,8(s0)
9d00998c:	00441023 	subu	v0,v0,a0
9d009990:	00621021 	addu	v0,v1,v0
9d009994:	ae020040 	sw	v0,64(s0)
9d009998:	8e02000c 	lw	v0,12(s0)
9d00999c:	10400006 	beqz	v0,9d0099b8 <__stdio_read+0xb0>
9d0099a0:	ae03003c 	sw	v1,60(s0)
9d0099a4:	24620001 	addiu	v0,v1,1
9d0099a8:	ae02003c 	sw	v0,60(s0)
9d0099ac:	90620000 	lbu	v0,0(v1)
9d0099b0:	02519021 	addu	s2,s2,s1
9d0099b4:	a242ffff 	sb	v0,-1(s2)
9d0099b8:	8fbf002c 	lw	ra,44(sp)
9d0099bc:	02201025 	move	v0,s1
9d0099c0:	8fb20028 	lw	s2,40(sp)
9d0099c4:	8fb10024 	lw	s1,36(sp)
9d0099c8:	8fb00020 	lw	s0,32(sp)
9d0099cc:	03e00008 	jr	ra
9d0099d0:	27bd0030 	addiu	sp,sp,48

Disassembly of section .text.__stdio_close_rw:

9d0099d4 <__stdio_close_rw>:
9d0099d4:	54800003 	bnezl	a0,9d0099e4 <__stdio_close_rw+0x10>
9d0099d8:	8c820004 	lw	v0,4(a0)
9d0099dc:	03e00008 	jr	ra
9d0099e0:	00001025 	move	v0,zero
9d0099e4:	27bdffd8 	addiu	sp,sp,-40
9d0099e8:	afb10020 	sw	s1,32(sp)
9d0099ec:	30420020 	andi	v0,v0,0x20
9d0099f0:	afb0001c 	sw	s0,28(sp)
9d0099f4:	afbf0024 	sw	ra,36(sp)
9d0099f8:	00808025 	move	s0,a0
9d0099fc:	10400009 	beqz	v0,9d009a24 <__stdio_close_rw+0x50>
9d009a00:	00a08825 	move	s1,a1
9d009a04:	8c820014 	lw	v0,20(a0)
9d009a08:	8c830018 	lw	v1,24(a0)
9d009a0c:	0062102b 	sltu	v0,v1,v0
9d009a10:	54400017 	bnezl	v0,9d009a70 <__stdio_close_rw+0x9c>
9d009a14:	8c82002c 	lw	v0,44(a0)
9d009a18:	ae000028 	sw	zero,40(s0)
9d009a1c:	ae000018 	sw	zero,24(s0)
9d009a20:	ae000014 	sw	zero,20(s0)
9d009a24:	8e06003c 	lw	a2,60(s0)
9d009a28:	8e020040 	lw	v0,64(s0)
9d009a2c:	00c2182b 	sltu	v1,a2,v0
9d009a30:	50600008 	beqzl	v1,9d009a54 <__stdio_close_rw+0x80>
9d009a34:	ae000040 	sw	zero,64(s0)
9d009a38:	00c23023 	subu	a2,a2,v0
9d009a3c:	24020001 	li	v0,1
9d009a40:	afa20010 	sw	v0,16(sp)
9d009a44:	8e040000 	lw	a0,0(s0)
9d009a48:	0f402f35 	jal	9d00bcd4 <lseek>
9d009a4c:	00063fc3 	sra	a3,a2,0x1f
9d009a50:	ae000040 	sw	zero,64(s0)
9d009a54:	ae00003c 	sw	zero,60(s0)
9d009a58:	1220000b 	beqz	s1,9d009a88 <__stdio_close_rw+0xb4>
9d009a5c:	00001025 	move	v0,zero
9d009a60:	0f402f37 	jal	9d00bcdc <close>
9d009a64:	8e040000 	lw	a0,0(s0)
9d009a68:	10000008 	b	9d009a8c <__stdio_close_rw+0xb8>
9d009a6c:	8fbf0024 	lw	ra,36(sp)
9d009a70:	00003025 	move	a2,zero
9d009a74:	0040f809 	jalr	v0
9d009a78:	00002825 	move	a1,zero
9d009a7c:	8e030014 	lw	v1,20(s0)
9d009a80:	1460ffe5 	bnez	v1,9d009a18 <__stdio_close_rw+0x44>
9d009a84:	2402ffff 	li	v0,-1
9d009a88:	8fbf0024 	lw	ra,36(sp)
9d009a8c:	8fb10020 	lw	s1,32(sp)
9d009a90:	8fb0001c 	lw	s0,28(sp)
9d009a94:	03e00008 	jr	ra
9d009a98:	27bd0028 	addiu	sp,sp,40

Disassembly of section .text.__fmt_u:

9d009a9c <__fmt_u>:
9d009a9c:	8ca20000 	lw	v0,0(a1)
9d009aa0:	8ca30004 	lw	v1,4(a1)
9d009aa4:	27bdffc0 	addiu	sp,sp,-64
9d009aa8:	afb30038 	sw	s3,56(sp)
9d009aac:	afb20034 	sw	s2,52(sp)
9d009ab0:	afb10030 	sw	s1,48(sp)
9d009ab4:	afb0002c 	sw	s0,44(sp)
9d009ab8:	afbf003c 	sw	ra,60(sp)
9d009abc:	00808825 	move	s1,a0
9d009ac0:	00a08025 	move	s0,a1
9d009ac4:	8cb20008 	lw	s2,8(a1)
9d009ac8:	afa20020 	sw	v0,32(sp)
9d009acc:	04600003 	bltz	v1,9d009adc <__fmt_u+0x40>
9d009ad0:	8cb3000c 	lw	s3,12(a1)
9d009ad4:	7c020844 	ins	v0,zero,0x1,0x1
9d009ad8:	afa20020 	sw	v0,32(sp)
9d009adc:	27a20020 	addiu	v0,sp,32
9d009ae0:	afa20018 	sw	v0,24(sp)
9d009ae4:	2402000a 	li	v0,10
9d009ae8:	afa20014 	sw	v0,20(sp)
9d009aec:	afb20010 	sw	s2,16(sp)
9d009af0:	8cc70004 	lw	a3,4(a2)
9d009af4:	8cc60000 	lw	a2,0(a2)
9d009af8:	0f402294 	jal	9d008a50 <__cvt_u>
9d009afc:	02002025 	move	a0,s0
9d009b00:	8e060010 	lw	a2,16(s0)
9d009b04:	8fa30020 	lw	v1,32(sp)
9d009b08:	02403825 	move	a3,s2
9d009b0c:	24c6ffff 	addiu	a2,a2,-1
9d009b10:	afa30010 	sw	v1,16(sp)
9d009b14:	00c23023 	subu	a2,a2,v0
9d009b18:	02622821 	addu	a1,s3,v0
9d009b1c:	0f40249b 	jal	9d00926c <__pad>
9d009b20:	02202025 	move	a0,s1
9d009b24:	8e230004 	lw	v1,4(s1)
9d009b28:	30630100 	andi	v1,v1,0x100
9d009b2c:	10600004 	beqz	v1,9d009b40 <__fmt_u+0xa4>
9d009b30:	8fbf003c 	lw	ra,60(sp)
9d009b34:	8e030004 	lw	v1,4(s0)
9d009b38:	0043202a 	slt	a0,v0,v1
9d009b3c:	0064100b 	movn	v0,v1,a0
9d009b40:	8fb30038 	lw	s3,56(sp)
9d009b44:	8fb20034 	lw	s2,52(sp)
9d009b48:	8fb10030 	lw	s1,48(sp)
9d009b4c:	8fb0002c 	lw	s0,44(sp)
9d009b50:	03e00008 	jr	ra
9d009b54:	27bd0040 	addiu	sp,sp,64

Disassembly of section .text.__skipws:

9d009b58 <__skipws>:
9d009b58:	27bdffd8 	addiu	sp,sp,-40
9d009b5c:	afb30020 	sw	s3,32(sp)
9d009b60:	afb2001c 	sw	s2,28(sp)
9d009b64:	afb10018 	sw	s1,24(sp)
9d009b68:	afb00014 	sw	s0,20(sp)
9d009b6c:	afbf0024 	sw	ra,36(sp)
9d009b70:	00808025 	move	s0,a0
9d009b74:	00008825 	move	s1,zero
9d009b78:	2412ffff 	li	s2,-1
9d009b7c:	24130020 	li	s3,32
9d009b80:	8e02003c 	lw	v0,60(s0)
9d009b84:	8e03004c 	lw	v1,76(s0)
9d009b88:	0043182b 	sltu	v1,v0,v1
9d009b8c:	10600018 	beqz	v1,9d009bf0 <__skipws+0x98>
9d009b90:	24430001 	addiu	v1,v0,1
9d009b94:	ae03003c 	sw	v1,60(s0)
9d009b98:	90420000 	lbu	v0,0(v0)
9d009b9c:	10530012 	beq	v0,s3,9d009be8 <__skipws+0x90>
9d009ba0:	2442fff7 	addiu	v0,v0,-9
9d009ba4:	2c420005 	sltiu	v0,v0,5
9d009ba8:	5440fff5 	bnezl	v0,9d009b80 <__skipws+0x28>
9d009bac:	26310001 	addiu	s1,s1,1
9d009bb0:	8e02004c 	lw	v0,76(s0)
9d009bb4:	10400005 	beqz	v0,9d009bcc <__skipws+0x74>
9d009bb8:	8fbf0024 	lw	ra,36(sp)
9d009bbc:	8e02003c 	lw	v0,60(s0)
9d009bc0:	2442ffff 	addiu	v0,v0,-1
9d009bc4:	ae02003c 	sw	v0,60(s0)
9d009bc8:	8fbf0024 	lw	ra,36(sp)
9d009bcc:	02201025 	move	v0,s1
9d009bd0:	8fb30020 	lw	s3,32(sp)
9d009bd4:	8fb2001c 	lw	s2,28(sp)
9d009bd8:	8fb10018 	lw	s1,24(sp)
9d009bdc:	8fb00014 	lw	s0,20(sp)
9d009be0:	03e00008 	jr	ra
9d009be4:	27bd0028 	addiu	sp,sp,40
9d009be8:	1000ffe5 	b	9d009b80 <__skipws+0x28>
9d009bec:	26310001 	addiu	s1,s1,1
9d009bf0:	0f4023c5 	jal	9d008f14 <__shgetc>
9d009bf4:	02002025 	move	a0,s0
9d009bf8:	1452ffe8 	bne	v0,s2,9d009b9c <__skipws+0x44>
9d009bfc:	8fbf0024 	lw	ra,36(sp)
9d009c00:	1000fff3 	b	9d009bd0 <__skipws+0x78>
9d009c04:	02201025 	move	v0,s1

Disassembly of section .text._sbrk:

9d009c08 <_sbrk>:
9d009c08:	27bdffe0 	addiu	sp,sp,-32
9d009c0c:	afb00014 	sw	s0,20(sp)
9d009c10:	3c10a000 	lui	s0,0xa000
9d009c14:	8e021c68 	lw	v0,7272(s0)
9d009c18:	afb10018 	sw	s1,24(sp)
9d009c1c:	afbf001c 	sw	ra,28(sp)
9d009c20:	1440000f 	bnez	v0,9d009c60 <_sbrk+0x58>
9d009c24:	00808825 	move	s1,a0
9d009c28:	0f40223f 	jal	9d0088fc <_sbrk_init>
9d009c2c:	00000000 	nop
9d009c30:	8e021c68 	lw	v0,7272(s0)
9d009c34:	1440000b 	bnez	v0,9d009c64 <_sbrk+0x5c>
9d009c38:	00000000 	nop
9d009c3c:	3c02a000 	lui	v0,0xa000
9d009c40:	2403000c 	li	v1,12
9d009c44:	ac431c78 	sw	v1,7288(v0)
9d009c48:	2402ffff 	li	v0,-1
9d009c4c:	8fbf001c 	lw	ra,28(sp)
9d009c50:	8fb10018 	lw	s1,24(sp)
9d009c54:	8fb00014 	lw	s0,20(sp)
9d009c58:	03e00008 	jr	ra
9d009c5c:	27bd0020 	addiu	sp,sp,32
9d009c60:	8e021c68 	lw	v0,7272(s0)
9d009c64:	1a20000a 	blez	s1,9d009c90 <_sbrk+0x88>
9d009c68:	00511821 	addu	v1,v0,s1
9d009c6c:	0062202b 	sltu	a0,v1,v0
9d009c70:	1480fff2 	bnez	a0,9d009c3c <_sbrk+0x34>
9d009c74:	3c04a000 	lui	a0,0xa000
9d009c78:	8c841c6c 	lw	a0,7276(a0)
9d009c7c:	0083202b 	sltu	a0,a0,v1
9d009c80:	5480ffef 	bnezl	a0,9d009c40 <_sbrk+0x38>
9d009c84:	3c02a000 	lui	v0,0xa000
9d009c88:	1000fff0 	b	9d009c4c <_sbrk+0x44>
9d009c8c:	ae031c68 	sw	v1,7272(s0)
9d009c90:	0043202b 	sltu	a0,v0,v1
9d009c94:	14800005 	bnez	a0,9d009cac <_sbrk+0xa4>
9d009c98:	3c04a000 	lui	a0,0xa000
9d009c9c:	8c841c70 	lw	a0,7280(a0)
9d009ca0:	0064202b 	sltu	a0,v1,a0
9d009ca4:	5080ffe9 	beqzl	a0,9d009c4c <_sbrk+0x44>
9d009ca8:	ae031c68 	sw	v1,7272(s0)
9d009cac:	3c02a000 	lui	v0,0xa000
9d009cb0:	1000ffe4 	b	9d009c44 <_sbrk+0x3c>
9d009cb4:	24030016 	li	v1,22

Disassembly of section .text.unbin:

9d009cb8 <unbin>:
9d009cb8:	27bdffe0 	addiu	sp,sp,-32
9d009cbc:	afb20018 	sw	s2,24(sp)
9d009cc0:	afb10014 	sw	s1,20(sp)
9d009cc4:	8c92000c 	lw	s2,12(a0)
9d009cc8:	8c910008 	lw	s1,8(a0)
9d009ccc:	afb00010 	sw	s0,16(sp)
9d009cd0:	afbf001c 	sw	ra,28(sp)
9d009cd4:	16510013 	bne	s2,s1,9d009d24 <unbin+0x6c>
9d009cd8:	00808025 	move	s0,a0
9d009cdc:	00a03025 	move	a2,a1
9d009ce0:	24040001 	li	a0,1
9d009ce4:	0f402d77 	jal	9d00b5dc <__ashldi3>
9d009ce8:	00002825 	move	a1,zero
9d009cec:	00031827 	nor	v1,zero,v1
9d009cf0:	10400005 	beqz	v0,9d009d08 <unbin+0x50>
9d009cf4:	00022827 	nor	a1,zero,v0
9d009cf8:	3c04a000 	lui	a0,0xa000
9d009cfc:	8c821928 	lw	v0,6440(a0)
9d009d00:	00451024 	and	v0,v0,a1
9d009d04:	ac821928 	sw	v0,6440(a0)
9d009d08:	2402ffff 	li	v0,-1
9d009d0c:	10620005 	beq	v1,v0,9d009d24 <unbin+0x6c>
9d009d10:	3c02a000 	lui	v0,0xa000
9d009d14:	24421928 	addiu	v0,v0,6440
9d009d18:	8c440004 	lw	a0,4(v0)
9d009d1c:	00641824 	and	v1,v1,a0
9d009d20:	ac430004 	sw	v1,4(v0)
9d009d24:	8e020004 	lw	v0,4(s0)
9d009d28:	ae510008 	sw	s1,8(s2)
9d009d2c:	ae32000c 	sw	s2,12(s1)
9d009d30:	34430001 	ori	v1,v0,0x1
9d009d34:	7c020004 	ins	v0,zero,0x0,0x1
9d009d38:	ae030004 	sw	v1,4(s0)
9d009d3c:	02028021 	addu	s0,s0,v0
9d009d40:	8e020000 	lw	v0,0(s0)
9d009d44:	8fbf001c 	lw	ra,28(sp)
9d009d48:	8fb20018 	lw	s2,24(sp)
9d009d4c:	34420001 	ori	v0,v0,0x1
9d009d50:	ae020000 	sw	v0,0(s0)
9d009d54:	8fb10014 	lw	s1,20(sp)
9d009d58:	8fb00010 	lw	s0,16(sp)
9d009d5c:	03e00008 	jr	ra
9d009d60:	27bd0020 	addiu	sp,sp,32

Disassembly of section .text.fptodp:

9d009d64 <__extendsfdf2>:
9d009d64:	00043dc2 30e700ff 3c018000 00813024     .=.....0...<$0..
9d009d74:	24e9ffff 2d2100fe 1020000d 00000000     ...$..!-.. .....

9d009d84 <Glab1>:
9d009d84:	24e70380 	addiu	a3,a3,896
9d009d88:	00044a40 	sll	t1,a0,0x9
9d009d8c:	00094b02 	srl	t1,t1,0xc
9d009d90:	00c93025 	or	a2,a2,t1
9d009d94:	00042f40 	sll	a1,a0,0x1d

9d009d98 <Gret>:
9d009d98:	00074d00 	sll	t1,a3,0x14
9d009d9c:	00c93025 	or	a2,a2,t1
9d009da0:	00051025 	or	v0,zero,a1
9d009da4:	00061825 	or	v1,zero,a2

9d009da8 <G999>:
9d009da8:	03e00008 	jr	ra
9d009dac:	00000000 	nop
9d009db0:	00000000 	nop

9d009db4 <Gspec>:
9d009db4:	24050000 	li	a1,0
9d009db8:	00842021 	addu	a0,a0,a0
9d009dbc:	1080fff6 	beqz	a0,9d009d98 <Gret>
9d009dc0:	00000000 	nop
9d009dc4:	14e00009 	bnez	a3,9d009dec <i42>
9d009dc8:	00000000 	nop

9d009dcc <b43>:
9d009dcc:	24e7ffff 	addiu	a3,a3,-1
9d009dd0:	00842021 	addu	a0,a0,a0
9d009dd4:	3c010080 	lui	at,0x80
9d009dd8:	0081082b 	sltu	at,a0,at
9d009ddc:	1420fffb 	bnez	at,9d009dcc <b43>
9d009de0:	00000000 	nop
9d009de4:	1000ffe7 	b	9d009d84 <Glab1>
9d009de8:	00000000 	nop

9d009dec <i42>:
9d009dec:	240707ff 	li	a3,2047
9d009df0:	3c01ff00 	lui	at,0xff00
9d009df4:	34210001 	ori	at,at,0x1
9d009df8:	0081082b 	sltu	at,a0,at
9d009dfc:	1420ffe6 	bnez	at,9d009d98 <Gret>
9d009e00:	00000000 	nop
9d009e04:	1000ffe4 	b	9d009d98 <Gret>
9d009e08:	3c06fff8 	lui	a2,0xfff8
9d009e0c:	00000000 	nop

Disassembly of section .text.__fmt_s:

9d009e10 <__fmt_s>:
9d009e10:	3c036c75 	lui	v1,0x6c75
9d009e14:	27bdffc8 	addiu	sp,sp,-56
9d009e18:	24636e28 	addiu	v1,v1,28200
9d009e1c:	afa30018 	sw	v1,24(sp)
9d009e20:	2403296c 	li	v1,10604
9d009e24:	afb40030 	sw	s4,48(sp)
9d009e28:	afb3002c 	sw	s3,44(sp)
9d009e2c:	afb20028 	sw	s2,40(sp)
9d009e30:	afb10024 	sw	s1,36(sp)
9d009e34:	afb00020 	sw	s0,32(sp)
9d009e38:	afbf0034 	sw	ra,52(sp)
9d009e3c:	00809025 	move	s2,a0
9d009e40:	00e01025 	move	v0,a3
9d009e44:	a7a3001c 	sh	v1,28(sp)
9d009e48:	a3a0001e 	sb	zero,30(sp)
9d009e4c:	8cb10004 	lw	s1,4(a1)
9d009e50:	8cb30008 	lw	s3,8(a1)
9d009e54:	8cb40000 	lw	s4,0(a1)
9d009e58:	10c00002 	beqz	a2,9d009e64 <__fmt_s+0x54>
9d009e5c:	27b00018 	addiu	s0,sp,24
9d009e60:	00c08025 	move	s0,a2
9d009e64:	14400003 	bnez	v0,9d009e74 <__fmt_s+0x64>
9d009e68:	00000000 	nop
9d009e6c:	0f402efc 	jal	9d00bbf0 <strlen>
9d009e70:	02002025 	move	a0,s0
9d009e74:	06200002 	bltz	s1,9d009e80 <__fmt_s+0x70>
9d009e78:	0222182b 	sltu	v1,s1,v0
9d009e7c:	0223100b 	movn	v0,s1,v1
9d009e80:	afb40010 	sw	s4,16(sp)
9d009e84:	02603825 	move	a3,s3
9d009e88:	02002825 	move	a1,s0
9d009e8c:	02402025 	move	a0,s2
9d009e90:	0f40249b 	jal	9d00926c <__pad>
9d009e94:	00403025 	move	a2,v0
9d009e98:	8fbf0034 	lw	ra,52(sp)
9d009e9c:	8fb40030 	lw	s4,48(sp)
9d009ea0:	8fb3002c 	lw	s3,44(sp)
9d009ea4:	8fb20028 	lw	s2,40(sp)
9d009ea8:	8fb10024 	lw	s1,36(sp)
9d009eac:	8fb00020 	lw	s0,32(sp)
9d009eb0:	03e00008 	jr	ra
9d009eb4:	27bd0038 	addiu	sp,sp,56

Disassembly of section .text.strtox:

9d009eb8 <strtox>:
9d009eb8:	27bdff78 	addiu	sp,sp,-136
9d009ebc:	afb20080 	sw	s2,128(sp)
9d009ec0:	afb1007c 	sw	s1,124(sp)
9d009ec4:	afb00078 	sw	s0,120(sp)
9d009ec8:	00c09025 	move	s2,a2
9d009ecc:	00808025 	move	s0,a0
9d009ed0:	24060068 	li	a2,104
9d009ed4:	27a40010 	addiu	a0,sp,16
9d009ed8:	00a08825 	move	s1,a1
9d009edc:	afbf0084 	sw	ra,132(sp)
9d009ee0:	0f402e49 	jal	9d00b924 <memset>
9d009ee4:	00002825 	move	a1,zero
9d009ee8:	2402ffff 	li	v0,-1
9d009eec:	00003025 	move	a2,zero
9d009ef0:	00003825 	move	a3,zero
9d009ef4:	27a40010 	addiu	a0,sp,16
9d009ef8:	afa20050 	sw	v0,80(sp)
9d009efc:	afb00018 	sw	s0,24(sp)
9d009f00:	0f402c5a 	jal	9d00b168 <__shlim>
9d009f04:	afb0004c 	sw	s0,76(sp)
9d009f08:	02402825 	move	a1,s2
9d009f0c:	27a40010 	addiu	a0,sp,16
9d009f10:	0f400b24 	jal	9d002c90 <__floatscan>
9d009f14:	24060001 	li	a2,1
9d009f18:	00402025 	move	a0,v0
9d009f1c:	12200008 	beqz	s1,9d009f40 <strtox+0x88>
9d009f20:	00602825 	move	a1,v1
9d009f24:	8fa20050 	lw	v0,80(sp)
9d009f28:	8fa3004c 	lw	v1,76(sp)
9d009f2c:	00621823 	subu	v1,v1,v0
9d009f30:	8fa20068 	lw	v0,104(sp)
9d009f34:	00621821 	addu	v1,v1,v0
9d009f38:	02038021 	addu	s0,s0,v1
9d009f3c:	ae300000 	sw	s0,0(s1)
9d009f40:	8fbf0084 	lw	ra,132(sp)
9d009f44:	00801025 	move	v0,a0
9d009f48:	00a01825 	move	v1,a1
9d009f4c:	8fb20080 	lw	s2,128(sp)
9d009f50:	8fb1007c 	lw	s1,124(sp)
9d009f54:	8fb00078 	lw	s0,120(sp)
9d009f58:	03e00008 	jr	ra
9d009f5c:	27bd0088 	addiu	sp,sp,136

Disassembly of section .text.__push_float:

9d009f60 <__push_float>:
9d009f60:	24020081 	li	v0,129
9d009f64:	50a20012 	beql	a1,v0,9d009fb0 <__push_float+0x50>
9d009f68:	8cc20000 	lw	v0,0(a2)
9d009f6c:	24020083 	li	v0,131
9d009f70:	50a20006 	beql	a1,v0,9d009f8c <__push_float+0x2c>
9d009f74:	8cc20000 	lw	v0,0(a2)
9d009f78:	24020080 	li	v0,128
9d009f7c:	10a20012 	beq	a1,v0,9d009fc8 <__push_float+0x68>
9d009f80:	00001025 	move	v0,zero
9d009f84:	03e00008 	jr	ra
9d009f88:	00000000 	nop
9d009f8c:	24430004 	addiu	v1,v0,4
9d009f90:	acc30000 	sw	v1,0(a2)
9d009f94:	8c850004 	lw	a1,4(a0)
9d009f98:	8c420000 	lw	v0,0(v0)
9d009f9c:	8c840000 	lw	a0,0(a0)
9d009fa0:	ac440000 	sw	a0,0(v0)
9d009fa4:	ac450004 	sw	a1,4(v0)
9d009fa8:	03e00008 	jr	ra
9d009fac:	24020001 	li	v0,1
9d009fb0:	24430004 	addiu	v1,v0,4
9d009fb4:	acc30000 	sw	v1,0(a2)
9d009fb8:	8c850004 	lw	a1,4(a0)
9d009fbc:	8c420000 	lw	v0,0(v0)
9d009fc0:	1000fff7 	b	9d009fa0 <__push_float+0x40>
9d009fc4:	8c840000 	lw	a0,0(a0)
9d009fc8:	8cc20000 	lw	v0,0(a2)
9d009fcc:	8c850004 	lw	a1,4(a0)
9d009fd0:	8c840000 	lw	a0,0(a0)
9d009fd4:	24430004 	addiu	v1,v0,4
9d009fd8:	27bdffe8 	addiu	sp,sp,-24
9d009fdc:	acc30000 	sw	v1,0(a2)
9d009fe0:	afb00010 	sw	s0,16(sp)
9d009fe4:	afbf0014 	sw	ra,20(sp)
9d009fe8:	0f4024dc 	jal	9d009370 <__truncdfsf2>
9d009fec:	8c500000 	lw	s0,0(v0)
9d009ff0:	8fbf0014 	lw	ra,20(sp)
9d009ff4:	ae020000 	sw	v0,0(s0)
9d009ff8:	24020001 	li	v0,1
9d009ffc:	8fb00010 	lw	s0,16(sp)
9d00a000:	03e00008 	jr	ra
9d00a004:	27bd0018 	addiu	sp,sp,24

Disassembly of section .text.__string_read:

9d00a008 <__string_read>:
9d00a008:	27bdffd0 	addiu	sp,sp,-48
9d00a00c:	afb00014 	sw	s0,20(sp)
9d00a010:	8c900038 	lw	s0,56(a0)
9d00a014:	afb2001c 	sw	s2,28(sp)
9d00a018:	24d20100 	addiu	s2,a2,256
9d00a01c:	afb50028 	sw	s5,40(sp)
9d00a020:	afb40024 	sw	s4,36(sp)
9d00a024:	afb30020 	sw	s3,32(sp)
9d00a028:	00a0a825 	move	s5,a1
9d00a02c:	00809825 	move	s3,a0
9d00a030:	00c0a025 	move	s4,a2
9d00a034:	00002825 	move	a1,zero
9d00a038:	02403025 	move	a2,s2
9d00a03c:	02002025 	move	a0,s0
9d00a040:	afbf002c 	sw	ra,44(sp)
9d00a044:	0f402dc8 	jal	9d00b720 <memchr>
9d00a048:	afb10018 	sw	s1,24(sp)
9d00a04c:	54400001 	bnezl	v0,9d00a054 <__string_read+0x4c>
9d00a050:	00509023 	subu	s2,v0,s0
9d00a054:	0292882b 	sltu	s1,s4,s2
9d00a058:	0251a00a 	movz	s4,s2,s1
9d00a05c:	02803025 	move	a2,s4
9d00a060:	02002825 	move	a1,s0
9d00a064:	0f402de0 	jal	9d00b780 <memcpy>
9d00a068:	02a02025 	move	a0,s5
9d00a06c:	8fbf002c 	lw	ra,44(sp)
9d00a070:	02141021 	addu	v0,s0,s4
9d00a074:	02128021 	addu	s0,s0,s2
9d00a078:	ae62003c 	sw	v0,60(s3)
9d00a07c:	ae700040 	sw	s0,64(s3)
9d00a080:	ae700038 	sw	s0,56(s3)
9d00a084:	02801025 	move	v0,s4
9d00a088:	8fb50028 	lw	s5,40(sp)
9d00a08c:	8fb40024 	lw	s4,36(sp)
9d00a090:	8fb30020 	lw	s3,32(sp)
9d00a094:	8fb2001c 	lw	s2,28(sp)
9d00a098:	8fb10018 	lw	s1,24(sp)
9d00a09c:	8fb00014 	lw	s0,20(sp)
9d00a0a0:	03e00008 	jr	ra
9d00a0a4:	27bd0030 	addiu	sp,sp,48

Disassembly of section .text.__stdio_seek:

9d00a0a8 <__stdio_seek>:
9d00a0a8:	8c820004 	lw	v0,4(a0)
9d00a0ac:	27bdffd8 	addiu	sp,sp,-40
9d00a0b0:	afb30020 	sw	s3,32(sp)
9d00a0b4:	30420020 	andi	v0,v0,0x20
9d00a0b8:	afb2001c 	sw	s2,28(sp)
9d00a0bc:	afb00018 	sw	s0,24(sp)
9d00a0c0:	afbf0024 	sw	ra,36(sp)
9d00a0c4:	00808025 	move	s0,a0
9d00a0c8:	00c09025 	move	s2,a2
9d00a0cc:	10400009 	beqz	v0,9d00a0f4 <__stdio_seek+0x4c>
9d00a0d0:	00e09825 	move	s3,a3
9d00a0d4:	8c820014 	lw	v0,20(a0)
9d00a0d8:	8c830018 	lw	v1,24(a0)
9d00a0dc:	0062102b 	sltu	v0,v1,v0
9d00a0e0:	5440000c 	bnezl	v0,9d00a114 <__stdio_seek+0x6c>
9d00a0e4:	8c82002c 	lw	v0,44(a0)
9d00a0e8:	ae000028 	sw	zero,40(s0)
9d00a0ec:	ae000018 	sw	zero,24(s0)
9d00a0f0:	ae000014 	sw	zero,20(s0)
9d00a0f4:	8fa20038 	lw	v0,56(sp)
9d00a0f8:	02403025 	move	a2,s2
9d00a0fc:	02603825 	move	a3,s3
9d00a100:	afa20010 	sw	v0,16(sp)
9d00a104:	0f402bb2 	jal	9d00aec8 <__stdio_seek_unbuffered>
9d00a108:	02002025 	move	a0,s0
9d00a10c:	10000009 	b	9d00a134 <__stdio_seek+0x8c>
9d00a110:	8fbf0024 	lw	ra,36(sp)
9d00a114:	00003025 	move	a2,zero
9d00a118:	0040f809 	jalr	v0
9d00a11c:	00002825 	move	a1,zero
9d00a120:	8e040014 	lw	a0,20(s0)
9d00a124:	2402ffff 	li	v0,-1
9d00a128:	1480ffef 	bnez	a0,9d00a0e8 <__stdio_seek+0x40>
9d00a12c:	2403ffff 	li	v1,-1
9d00a130:	8fbf0024 	lw	ra,36(sp)
9d00a134:	8fb30020 	lw	s3,32(sp)
9d00a138:	8fb2001c 	lw	s2,28(sp)
9d00a13c:	8fb00018 	lw	s0,24(sp)
9d00a140:	03e00008 	jr	ra
9d00a144:	27bd0028 	addiu	sp,sp,40

Disassembly of section .text.fpcmp:

9d00a148 <__eqsf2>:
9d00a148:	2408fffe 00043040 00053840 00c74825     ...$@0..@8..%H..
9d00a158:	1120001b 00000000 3c01ff00 34210001     .. ........<..!4
9d00a168:	00c1082b 1020001a 00000000 3c01ff00     +..... ........<
9d00a178:	34210001 00e1082b 10200015 00000000     ..!4+..... .....
9d00a188:	04810002 00063042 00063023              ....B0..#0..

9d00a194 <i48>:
9d00a194:	04a10002 	bgez	a1,9d00a1a0 <i49>
9d00a198:	00073842 	srl	a3,a3,0x1
9d00a19c:	00073823 	negu	a3,a3

9d00a1a0 <i49>:
9d00a1a0:	00c7082a 	slt	at,a2,a3
9d00a1a4:	10200003 	beqz	at,9d00a1b4 <i50>
9d00a1a8:	00000000 	nop
9d00a1ac:	10000007 	b	9d00a1cc <J999>
9d00a1b0:	2402ffff 	li	v0,-1

9d00a1b4 <i50>:
9d00a1b4:	00e6082a 	slt	at,a3,a2
9d00a1b8:	10200003 	beqz	at,9d00a1c8 <Jequ>
9d00a1bc:	00000000 	nop
9d00a1c0:	10000002 	b	9d00a1cc <J999>
9d00a1c4:	24020001 	li	v0,1

9d00a1c8 <Jequ>:
9d00a1c8:	24020000 	li	v0,0

9d00a1cc <J999>:
9d00a1cc:	03e00008 	jr	ra
9d00a1d0:	00000000 	nop
9d00a1d4:	00000000 	nop

9d00a1d8 <Jnan>:
9d00a1d8:	1000fffc 	b	9d00a1cc <J999>
9d00a1dc:	00081025 	or	v0,zero,t0
9d00a1e0:	00000000 	nop

Disassembly of section .text.fpcmplt:

9d00a1e4 <fpcmplt>:
9d00a1e4:	2408fffe 	li	t0,-2
9d00a1e8:	00043040 	sll	a2,a0,0x1
9d00a1ec:	00053840 	sll	a3,a1,0x1
9d00a1f0:	00c74825 	or	t1,a2,a3
9d00a1f4:	1120001b 	beqz	t1,9d00a264 <fpcmplt+0x80>
9d00a1f8:	00000000 	nop
9d00a1fc:	3c01ff00 	lui	at,0xff00
9d00a200:	34210001 	ori	at,at,0x1
9d00a204:	00c1082b 	sltu	at,a2,at
9d00a208:	1020001a 	beqz	at,9d00a274 <fpcmplt+0x90>
9d00a20c:	00000000 	nop
9d00a210:	3c01ff00 	lui	at,0xff00
9d00a214:	34210001 	ori	at,at,0x1
9d00a218:	00e1082b 	sltu	at,a3,at
9d00a21c:	10200015 	beqz	at,9d00a274 <fpcmplt+0x90>
9d00a220:	00000000 	nop
9d00a224:	04810002 	bgez	a0,9d00a230 <fpcmplt+0x4c>
9d00a228:	00063042 	srl	a2,a2,0x1
9d00a22c:	00063023 	negu	a2,a2
9d00a230:	04a10002 	bgez	a1,9d00a23c <fpcmplt+0x58>
9d00a234:	00073842 	srl	a3,a3,0x1
9d00a238:	00073823 	negu	a3,a3
9d00a23c:	00c7082a 	slt	at,a2,a3
9d00a240:	10200003 	beqz	at,9d00a250 <fpcmplt+0x6c>
9d00a244:	00000000 	nop
9d00a248:	10000007 	b	9d00a268 <fpcmplt+0x84>
9d00a24c:	2402ffff 	li	v0,-1
9d00a250:	00e6082a 	slt	at,a3,a2
9d00a254:	10200003 	beqz	at,9d00a264 <fpcmplt+0x80>
9d00a258:	00000000 	nop
9d00a25c:	10000002 	b	9d00a268 <fpcmplt+0x84>
9d00a260:	24020001 	li	v0,1
9d00a264:	24020000 	li	v0,0
9d00a268:	03e00008 	jr	ra
9d00a26c:	00000000 	nop
9d00a270:	00000000 	nop
9d00a274:	1000fffc 	b	9d00a268 <fpcmplt+0x84>
9d00a278:	34020001 	li	v0,0x1
9d00a27c:	00000000 	nop

Disassembly of section .text.__stdio_close:

9d00a280 <__stdio_close>:
9d00a280:	54800003 	bnezl	a0,9d00a290 <__stdio_close+0x10>
9d00a284:	8c820004 	lw	v0,4(a0)
9d00a288:	03e00008 	jr	ra
9d00a28c:	00001025 	move	v0,zero
9d00a290:	27bdffe0 	addiu	sp,sp,-32
9d00a294:	afb10018 	sw	s1,24(sp)
9d00a298:	30420020 	andi	v0,v0,0x20
9d00a29c:	afb00014 	sw	s0,20(sp)
9d00a2a0:	afbf001c 	sw	ra,28(sp)
9d00a2a4:	00808025 	move	s0,a0
9d00a2a8:	1440000a 	bnez	v0,9d00a2d4 <__stdio_close+0x54>
9d00a2ac:	00a08825 	move	s1,a1
9d00a2b0:	ae000028 	sw	zero,40(s0)
9d00a2b4:	ae000018 	sw	zero,24(s0)
9d00a2b8:	ae000014 	sw	zero,20(s0)
9d00a2bc:	12200011 	beqz	s1,9d00a304 <__stdio_close+0x84>
9d00a2c0:	00001025 	move	v0,zero
9d00a2c4:	0f402f37 	jal	9d00bcdc <close>
9d00a2c8:	8e040000 	lw	a0,0(s0)
9d00a2cc:	1000000e 	b	9d00a308 <__stdio_close+0x88>
9d00a2d0:	8fbf001c 	lw	ra,28(sp)
9d00a2d4:	8c820014 	lw	v0,20(a0)
9d00a2d8:	8c830018 	lw	v1,24(a0)
9d00a2dc:	0062102b 	sltu	v0,v1,v0
9d00a2e0:	5040fff4 	beqzl	v0,9d00a2b4 <__stdio_close+0x34>
9d00a2e4:	ae000028 	sw	zero,40(s0)
9d00a2e8:	8c82002c 	lw	v0,44(a0)
9d00a2ec:	00003025 	move	a2,zero
9d00a2f0:	0040f809 	jalr	v0
9d00a2f4:	00002825 	move	a1,zero
9d00a2f8:	8e030014 	lw	v1,20(s0)
9d00a2fc:	1460ffec 	bnez	v1,9d00a2b0 <__stdio_close+0x30>
9d00a300:	2402ffff 	li	v0,-1
9d00a304:	8fbf001c 	lw	ra,28(sp)
9d00a308:	8fb10018 	lw	s1,24(sp)
9d00a30c:	8fb00014 	lw	s0,20(sp)
9d00a310:	03e00008 	jr	ra
9d00a314:	27bd0020 	addiu	sp,sp,32

Disassembly of section .text.__overflow:

9d00a318 <__overflow>:
9d00a318:	8c820028 	lw	v0,40(a0)
9d00a31c:	27bdffe0 	addiu	sp,sp,-32
9d00a320:	afb00018 	sw	s0,24(sp)
9d00a324:	afbf001c 	sw	ra,28(sp)
9d00a328:	00808025 	move	s0,a0
9d00a32c:	10400010 	beqz	v0,9d00a370 <__overflow+0x58>
9d00a330:	a3a50010 	sb	a1,16(sp)
9d00a334:	8e030014 	lw	v1,20(s0)
9d00a338:	8e020028 	lw	v0,40(s0)
9d00a33c:	0062102b 	sltu	v0,v1,v0
9d00a340:	14400014 	bnez	v0,9d00a394 <__overflow+0x7c>
9d00a344:	93a20010 	lbu	v0,16(sp)
9d00a348:	8e02002c 	lw	v0,44(s0)
9d00a34c:	24060001 	li	a2,1
9d00a350:	27a50010 	addiu	a1,sp,16
9d00a354:	0040f809 	jalr	v0
9d00a358:	02002025 	move	a0,s0
9d00a35c:	24030001 	li	v1,1
9d00a360:	14430007 	bne	v0,v1,9d00a380 <__overflow+0x68>
9d00a364:	93a20010 	lbu	v0,16(sp)
9d00a368:	10000007 	b	9d00a388 <__overflow+0x70>
9d00a36c:	8fbf001c 	lw	ra,28(sp)
9d00a370:	0f402cec 	jal	9d00b3b0 <__towrite>
9d00a374:	00000000 	nop
9d00a378:	5040ffef 	beqzl	v0,9d00a338 <__overflow+0x20>
9d00a37c:	8e030014 	lw	v1,20(s0)
9d00a380:	2402ffff 	li	v0,-1
9d00a384:	8fbf001c 	lw	ra,28(sp)
9d00a388:	8fb00018 	lw	s0,24(sp)
9d00a38c:	03e00008 	jr	ra
9d00a390:	27bd0020 	addiu	sp,sp,32
9d00a394:	82040034 	lb	a0,52(s0)
9d00a398:	5044ffec 	beql	v0,a0,9d00a34c <__overflow+0x34>
9d00a39c:	8e02002c 	lw	v0,44(s0)
9d00a3a0:	24640001 	addiu	a0,v1,1
9d00a3a4:	ae040014 	sw	a0,20(s0)
9d00a3a8:	1000fff6 	b	9d00a384 <__overflow+0x6c>
9d00a3ac:	a0620000 	sb	v0,0(v1)

Disassembly of section .text.__toread:

9d00a3b0 <__toread>:
9d00a3b0:	27bdffe8 	addiu	sp,sp,-24
9d00a3b4:	afb00010 	sw	s0,16(sp)
9d00a3b8:	afbf0014 	sw	ra,20(sp)
9d00a3bc:	80820048 	lb	v0,72(a0)
9d00a3c0:	2443ffff 	addiu	v1,v0,-1
9d00a3c4:	00431025 	or	v0,v0,v1
9d00a3c8:	a0820048 	sb	v0,72(a0)
9d00a3cc:	8c830018 	lw	v1,24(a0)
9d00a3d0:	8c820014 	lw	v0,20(a0)
9d00a3d4:	0062102b 	sltu	v0,v1,v0
9d00a3d8:	10400005 	beqz	v0,9d00a3f0 <__toread+0x40>
9d00a3dc:	00808025 	move	s0,a0
9d00a3e0:	8c82002c 	lw	v0,44(a0)
9d00a3e4:	00003025 	move	a2,zero
9d00a3e8:	0040f809 	jalr	v0
9d00a3ec:	00002825 	move	a1,zero
9d00a3f0:	8e020004 	lw	v0,4(s0)
9d00a3f4:	ae000028 	sw	zero,40(s0)
9d00a3f8:	ae000018 	sw	zero,24(s0)
9d00a3fc:	30430002 	andi	v1,v0,0x2
9d00a400:	10600008 	beqz	v1,9d00a424 <__toread+0x74>
9d00a404:	ae000014 	sw	zero,20(s0)
9d00a408:	34420010 	ori	v0,v0,0x10
9d00a40c:	ae020004 	sw	v0,4(s0)
9d00a410:	2402ffff 	li	v0,-1
9d00a414:	8fbf0014 	lw	ra,20(sp)
9d00a418:	8fb00010 	lw	s0,16(sp)
9d00a41c:	03e00008 	jr	ra
9d00a420:	27bd0018 	addiu	sp,sp,24
9d00a424:	8e030008 	lw	v1,8(s0)
9d00a428:	8e04000c 	lw	a0,12(s0)
9d00a42c:	7c4200c0 	ext	v0,v0,0x3,0x1
9d00a430:	00021023 	negu	v0,v0
9d00a434:	00641821 	addu	v1,v1,a0
9d00a438:	ae030040 	sw	v1,64(s0)
9d00a43c:	1000fff5 	b	9d00a414 <__toread+0x64>
9d00a440:	ae03003c 	sw	v1,60(s0)

Disassembly of section .text:

9d00a444 <__pic32_data_init>:
9d00a444:	03e01825 	move	v1,ra

9d00a448 <_dinit_init>:
9d00a448:	3c089d01 	lui	t0,0x9d01
9d00a44c:	250884c8 	addiu	t0,t0,-31544
9d00a450:	1100001b 	beqz	t0,9d00a4c0 <_dinit_end+0x18>
9d00a454:	00000000 	nop
9d00a458:	8d090000 	lw	t1,0(t0)
9d00a45c:	11200018 	beqz	t1,9d00a4c0 <_dinit_end+0x18>
9d00a460:	25080004 	addiu	t0,t0,4
9d00a464:	8d0a0000 	lw	t2,0(t0)
9d00a468:	25080004 	addiu	t0,t0,4
9d00a46c:	8d0b0000 	lw	t3,0(t0)
9d00a470:	11600009 	beqz	t3,9d00a498 <_dinit_clear>
9d00a474:	25080004 	addiu	t0,t0,4

9d00a478 <_dinit_copy>:
9d00a478:	910c0000 	lbu	t4,0(t0)
9d00a47c:	254affff 	addiu	t2,t2,-1
9d00a480:	25080001 	addiu	t0,t0,1
9d00a484:	a12c0000 	sb	t4,0(t1)
9d00a488:	1540fffb 	bnez	t2,9d00a478 <_dinit_copy>
9d00a48c:	25290001 	addiu	t1,t1,1
9d00a490:	10000005 	b	9d00a4a8 <_dinit_end>
9d00a494:	00000000 	nop

9d00a498 <_dinit_clear>:
9d00a498:	a1200000 	sb	zero,0(t1)
9d00a49c:	254affff 	addiu	t2,t2,-1
9d00a4a0:	1540fffd 	bnez	t2,9d00a498 <_dinit_clear>
9d00a4a4:	25290001 	addiu	t1,t1,1

9d00a4a8 <_dinit_end>:
9d00a4a8:	25080003 	addiu	t0,t0,3
9d00a4ac:	240afffc 	li	t2,-4
9d00a4b0:	01484024 	and	t0,t2,t0
9d00a4b4:	8d090000 	lw	t1,0(t0)
9d00a4b8:	1520ffe7 	bnez	t1,9d00a458 <_dinit_init+0x10>
9d00a4bc:	00000000 	nop
9d00a4c0:	0060f825 	move	ra,v1
9d00a4c4:	03e00008 	jr	ra
9d00a4c8:	00000000 	nop
9d00a4cc:	00000000 	nop

Disassembly of section .text.__out:

9d00a4d0 <__out>:
9d00a4d0:	8c820004 	lw	v0,4(a0)
9d00a4d4:	27bdffe0 	addiu	sp,sp,-32
9d00a4d8:	afbf001c 	sw	ra,28(sp)
9d00a4dc:	30470100 	andi	a3,v0,0x100
9d00a4e0:	afb10018 	sw	s1,24(sp)
9d00a4e4:	10e00016 	beqz	a3,9d00a540 <__out+0x70>
9d00a4e8:	afb00014 	sw	s0,20(sp)
9d00a4ec:	8c820010 	lw	v0,16(a0)
9d00a4f0:	00808025 	move	s0,a0
9d00a4f4:	00c01825 	move	v1,a2
9d00a4f8:	00c2882b 	sltu	s1,a2,v0
9d00a4fc:	8c840014 	lw	a0,20(a0)
9d00a500:	0051180a 	movz	v1,v0,s1
9d00a504:	00603025 	move	a2,v1
9d00a508:	0f402de0 	jal	9d00b780 <memcpy>
9d00a50c:	00608825 	move	s1,v1
9d00a510:	8e020014 	lw	v0,20(s0)
9d00a514:	8e030010 	lw	v1,16(s0)
9d00a518:	00511021 	addu	v0,v0,s1
9d00a51c:	00718823 	subu	s1,v1,s1
9d00a520:	ae020014 	sw	v0,20(s0)
9d00a524:	ae110010 	sw	s1,16(s0)
9d00a528:	a0400000 	sb	zero,0(v0)
9d00a52c:	8fbf001c 	lw	ra,28(sp)
9d00a530:	8fb10018 	lw	s1,24(sp)
9d00a534:	8fb00014 	lw	s0,20(sp)
9d00a538:	03e00008 	jr	ra
9d00a53c:	27bd0020 	addiu	sp,sp,32
9d00a540:	30420010 	andi	v0,v0,0x10
9d00a544:	5440fffa 	bnezl	v0,9d00a530 <__out+0x60>
9d00a548:	8fbf001c 	lw	ra,28(sp)
9d00a54c:	0f402dae 	jal	9d00b6b8 <__fwrite>
9d00a550:	00000000 	nop
9d00a554:	1000fff6 	b	9d00a530 <__out+0x60>
9d00a558:	8fbf001c 	lw	ra,28(sp)

Disassembly of section .text.dptoul:

9d00a55c <__fixunsdfsi>:
9d00a55c:	00053ac0 00045542 00ea3825 3c018000     .:..BU..%8.....<
9d00a56c:	00e13825 00055040 000a5542 2406041e     %8..@P..BU.....$
9d00a57c:	00ca3023 04c0000c 00000000 2cc10020     #0.......... ..,
9d00a58c:	14200002 00000000 34070000              .. ........4

9d00a598 <L43>:
9d00a598:	04a10002 	bgez	a1,9d00a5a4 <i53>
9d00a59c:	00c73806 	srlv	a3,a3,a2
9d00a5a0:	00073823 	negu	a3,a3

9d00a5a4 <i53>:
9d00a5a4:	00071025 	or	v0,zero,a3

9d00a5a8 <K999>:
9d00a5a8:	03e00008 	jr	ra
9d00a5ac:	00000000 	nop
9d00a5b0:	00000000 	nop

9d00a5b4 <Knaninf>:
9d00a5b4:	10800002 	beqz	a0,9d00a5c0 <i54>
9d00a5b8:	00000000 	nop
9d00a5bc:	34a50001 	ori	a1,a1,0x1

9d00a5c0 <i54>:
9d00a5c0:	3c017ff0 	lui	at,0x7ff0
9d00a5c4:	34210001 	ori	at,at,0x1
9d00a5c8:	00a1082b 	sltu	at,a1,at
9d00a5cc:	14200003 	bnez	at,9d00a5dc <i55>
9d00a5d0:	00000000 	nop
9d00a5d4:	1000fff4 	b	9d00a5a8 <K999>
9d00a5d8:	3c028000 	lui	v0,0x8000

9d00a5dc <i55>:
9d00a5dc:	1000fff2 	b	9d00a5a8 <K999>
9d00a5e0:	2402ffff 	li	v0,-1
9d00a5e4:	00000000 	nop

Disassembly of section .text.copysignf:

9d00a5e8 <copysignf>:
9d00a5e8:	27bdffd0 	addiu	sp,sp,-48
9d00a5ec:	afb30028 	sw	s3,40(sp)
9d00a5f0:	afb20024 	sw	s2,36(sp)
9d00a5f4:	00e09825 	move	s3,a3
9d00a5f8:	00c09025 	move	s2,a2
9d00a5fc:	afbf002c 	sw	ra,44(sp)
9d00a600:	afb10020 	sw	s1,32(sp)
9d00a604:	0f4024dc 	jal	9d009370 <__truncdfsf2>
9d00a608:	afb0001c 	sw	s0,28(sp)
9d00a60c:	02602825 	move	a1,s3
9d00a610:	02402025 	move	a0,s2
9d00a614:	0f4024dc 	jal	9d009370 <__truncdfsf2>
9d00a618:	00408825 	move	s1,v0
9d00a61c:	00408025 	move	s0,v0
9d00a620:	0f402759 	jal	9d009d64 <__extendsfdf2>
9d00a624:	02202025 	move	a0,s1
9d00a628:	02002025 	move	a0,s0
9d00a62c:	afa20010 	sw	v0,16(sp)
9d00a630:	7c707400 	ext	s0,v1,0x10,0xf
9d00a634:	0f402759 	jal	9d009d64 <__extendsfdf2>
9d00a638:	afa30014 	sw	v1,20(sp)
9d00a63c:	00031c02 	srl	v1,v1,0x10
9d00a640:	7c037004 	ins	v1,zero,0x0,0xf
9d00a644:	02031825 	or	v1,s0,v1
9d00a648:	a7a30016 	sh	v1,22(sp)
9d00a64c:	8fa40010 	lw	a0,16(sp)
9d00a650:	0f4024dc 	jal	9d009370 <__truncdfsf2>
9d00a654:	8fa50014 	lw	a1,20(sp)
9d00a658:	8fbf002c 	lw	ra,44(sp)
9d00a65c:	8fb30028 	lw	s3,40(sp)
9d00a660:	8fb20024 	lw	s2,36(sp)
9d00a664:	8fb10020 	lw	s1,32(sp)
9d00a668:	8fb0001c 	lw	s0,28(sp)
9d00a66c:	03e00008 	jr	ra
9d00a670:	27bd0030 	addiu	sp,sp,48

Disassembly of section .text.__fopen_rw:

9d00a674 <__fopen_rw>:
9d00a674:	27bdffe8 	addiu	sp,sp,-24
9d00a678:	afb00010 	sw	s0,16(sp)
9d00a67c:	afbf0014 	sw	ra,20(sp)
9d00a680:	0f401d6a 	jal	9d0075a8 <malloc>
9d00a684:	24040470 	li	a0,1136
9d00a688:	10400017 	beqz	v0,9d00a6e8 <__fopen_rw+0x74>
9d00a68c:	00408025 	move	s0,v0
9d00a690:	24060068 	li	a2,104
9d00a694:	00002825 	move	a1,zero
9d00a698:	0f402e49 	jal	9d00b924 <memset>
9d00a69c:	00402025 	move	a0,v0
9d00a6a0:	3c029d01 	lui	v0,0x9d01
9d00a6a4:	2442b990 	addiu	v0,v0,-18032
9d00a6a8:	ae02002c 	sw	v0,44(s0)
9d00a6ac:	3c029d01 	lui	v0,0x9d01
9d00a6b0:	24429748 	addiu	v0,v0,-26808
9d00a6b4:	ae020030 	sw	v0,48(s0)
9d00a6b8:	3c029d01 	lui	v0,0x9d01
9d00a6bc:	244299d4 	addiu	v0,v0,-26156
9d00a6c0:	ae02001c 	sw	v0,28(s0)
9d00a6c4:	3c029d01 	lui	v0,0x9d01
9d00a6c8:	24429908 	addiu	v0,v0,-26360
9d00a6cc:	ae020044 	sw	v0,68(s0)
9d00a6d0:	2402ffff 	li	v0,-1
9d00a6d4:	a2020034 	sb	v0,52(s0)
9d00a6d8:	26020070 	addiu	v0,s0,112
9d00a6dc:	ae020008 	sw	v0,8(s0)
9d00a6e0:	24020400 	li	v0,1024
9d00a6e4:	ae02000c 	sw	v0,12(s0)
9d00a6e8:	8fbf0014 	lw	ra,20(sp)
9d00a6ec:	02001025 	move	v0,s0
9d00a6f0:	8fb00010 	lw	s0,16(sp)
9d00a6f4:	03e00008 	jr	ra
9d00a6f8:	27bd0018 	addiu	sp,sp,24

Disassembly of section .text.write:

9d00a6fc <write>:
9d00a6fc:	27bdffe0 	addiu	sp,sp,-32
9d00a700:	afb10014 	sw	s1,20(sp)
9d00a704:	afbf001c 	sw	ra,28(sp)
9d00a708:	afb20018 	sw	s2,24(sp)
9d00a70c:	afb00010 	sw	s0,16(sp)
9d00a710:	10a0000d 	beqz	a1,9d00a748 <write+0x4c>
9d00a714:	00008825 	move	s1,zero
9d00a718:	50c0000c 	beqzl	a2,9d00a74c <write+0x50>
9d00a71c:	8fbf001c 	lw	ra,28(sp)
9d00a720:	2c840003 	sltiu	a0,a0,3
9d00a724:	10800008 	beqz	a0,9d00a748 <write+0x4c>
9d00a728:	00c08825 	move	s1,a2
9d00a72c:	3c020000 	lui	v0,0x0
9d00a730:	24420000 	addiu	v0,v0,0
9d00a734:	1040000b 	beqz	v0,9d00a764 <write+0x68>
9d00a738:	00a08025 	move	s0,a1
9d00a73c:	00c02825 	move	a1,a2
9d00a740:	0c000000 	jal	90000000 <_bmxdudba_address+0x8ffe0000>
9d00a744:	02002025 	move	a0,s0
9d00a748:	8fbf001c 	lw	ra,28(sp)
9d00a74c:	02201025 	move	v0,s1
9d00a750:	8fb20018 	lw	s2,24(sp)
9d00a754:	8fb10014 	lw	s1,20(sp)
9d00a758:	8fb00010 	lw	s0,16(sp)
9d00a75c:	03e00008 	jr	ra
9d00a760:	27bd0020 	addiu	sp,sp,32
9d00a764:	00a69021 	addu	s2,a1,a2
9d00a768:	82040000 	lb	a0,0(s0)
9d00a76c:	0f40237b 	jal	9d008dec <_mon_putc>
9d00a770:	26100001 	addiu	s0,s0,1
9d00a774:	5650fffd 	bnel	s2,s0,9d00a76c <write+0x70>
9d00a778:	82040000 	lb	a0,0(s0)
9d00a77c:	1000fff3 	b	9d00a74c <write+0x50>
9d00a780:	8fbf001c 	lw	ra,28(sp)

Disassembly of section .text.atoi:

9d00a784 <atoi>:
9d00a784:	24050020 	li	a1,32
9d00a788:	80820000 	lb	v0,0(a0)
9d00a78c:	1045000e 	beq	v0,a1,9d00a7c8 <atoi+0x44>
9d00a790:	2443fff7 	addiu	v1,v0,-9
9d00a794:	2c630005 	sltiu	v1,v1,5
9d00a798:	5460fffb 	bnezl	v1,9d00a788 <atoi+0x4>
9d00a79c:	24840001 	addiu	a0,a0,1
9d00a7a0:	2403002b 	li	v1,43
9d00a7a4:	1043000a 	beq	v0,v1,9d00a7d0 <atoi+0x4c>
9d00a7a8:	2403002d 	li	v1,45
9d00a7ac:	14430003 	bne	v0,v1,9d00a7bc <atoi+0x38>
9d00a7b0:	00002825 	move	a1,zero
9d00a7b4:	24050001 	li	a1,1
9d00a7b8:	24840001 	addiu	a0,a0,1
9d00a7bc:	00001025 	move	v0,zero
9d00a7c0:	10000007 	b	9d00a7e0 <atoi+0x5c>
9d00a7c4:	2407000a 	li	a3,10
9d00a7c8:	1000ffef 	b	9d00a788 <atoi+0x4>
9d00a7cc:	24840001 	addiu	a0,a0,1
9d00a7d0:	1000fff9 	b	9d00a7b8 <atoi+0x34>
9d00a7d4:	00002825 	move	a1,zero
9d00a7d8:	24840001 	addiu	a0,a0,1
9d00a7dc:	00431023 	subu	v0,v0,v1
9d00a7e0:	80830000 	lb	v1,0(a0)
9d00a7e4:	2463ffd0 	addiu	v1,v1,-48
9d00a7e8:	2c66000a 	sltiu	a2,v1,10
9d00a7ec:	54c0fffa 	bnezl	a2,9d00a7d8 <atoi+0x54>
9d00a7f0:	70471002 	mul	v0,v0,a3
9d00a7f4:	50a00001 	beqzl	a1,9d00a7fc <atoi+0x78>
9d00a7f8:	00021023 	negu	v0,v0
9d00a7fc:	03e00008 	jr	ra
9d00a800:	00000000 	nop

Disassembly of section .text.__vsnprintf:

9d00a804 <__vsnprintf>:
9d00a804:	27bdffc8 	addiu	sp,sp,-56
9d00a808:	2403ffff 	li	v1,-1
9d00a80c:	afa30010 	sw	v1,16(sp)
9d00a810:	24030102 	li	v1,258
9d00a814:	00a01025 	move	v0,a1
9d00a818:	afbf0034 	sw	ra,52(sp)
9d00a81c:	00c02825 	move	a1,a2
9d00a820:	afa30014 	sw	v1,20(sp)
9d00a824:	14800002 	bnez	a0,9d00a830 <__vsnprintf+0x2c>
9d00a828:	00e03025 	move	a2,a3
9d00a82c:	27a4002c 	addiu	a0,sp,44
9d00a830:	afa40018 	sw	a0,24(sp)
9d00a834:	afa2001c 	sw	v0,28(sp)
9d00a838:	10400002 	beqz	v0,9d00a844 <__vsnprintf+0x40>
9d00a83c:	00001825 	move	v1,zero
9d00a840:	2443ffff 	addiu	v1,v0,-1
9d00a844:	04410008 	bgez	v0,9d00a868 <__vsnprintf+0x64>
9d00a848:	afa30020 	sw	v1,32(sp)
9d00a84c:	3c02a000 	lui	v0,0xa000
9d00a850:	2403004f 	li	v1,79
9d00a854:	ac431c78 	sw	v1,7288(v0)
9d00a858:	2402ffff 	li	v0,-1
9d00a85c:	8fbf0034 	lw	ra,52(sp)
9d00a860:	03e00008 	jr	ra
9d00a864:	27bd0038 	addiu	sp,sp,56
9d00a868:	afa40028 	sw	a0,40(sp)
9d00a86c:	afa40024 	sw	a0,36(sp)
9d00a870:	a0800000 	sb	zero,0(a0)
9d00a874:	0f402d4a 	jal	9d00b528 <__vfprintf>
9d00a878:	27a40010 	addiu	a0,sp,16
9d00a87c:	1000fff8 	b	9d00a860 <__vsnprintf+0x5c>
9d00a880:	8fbf0034 	lw	ra,52(sp)

Disassembly of section .text.dremf:

9d00a884 <dremf>:
9d00a884:	27bdffe0 	addiu	sp,sp,-32
9d00a888:	afb10014 	sw	s1,20(sp)
9d00a88c:	afb00010 	sw	s0,16(sp)
9d00a890:	00e08825 	move	s1,a3
9d00a894:	00c08025 	move	s0,a2
9d00a898:	afbf001c 	sw	ra,28(sp)
9d00a89c:	0f4024dc 	jal	9d009370 <__truncdfsf2>
9d00a8a0:	afb20018 	sw	s2,24(sp)
9d00a8a4:	02202825 	move	a1,s1
9d00a8a8:	02002025 	move	a0,s0
9d00a8ac:	0f4024dc 	jal	9d009370 <__truncdfsf2>
9d00a8b0:	00409025 	move	s2,v0
9d00a8b4:	0f402759 	jal	9d009d64 <__extendsfdf2>
9d00a8b8:	00402025 	move	a0,v0
9d00a8bc:	02402025 	move	a0,s2
9d00a8c0:	00408025 	move	s0,v0
9d00a8c4:	0f402759 	jal	9d009d64 <__extendsfdf2>
9d00a8c8:	00608825 	move	s1,v1
9d00a8cc:	00402025 	move	a0,v0
9d00a8d0:	02003025 	move	a2,s0
9d00a8d4:	02203825 	move	a3,s1
9d00a8d8:	0f401413 	jal	9d00504c <dreml>
9d00a8dc:	00602825 	move	a1,v1
9d00a8e0:	00402025 	move	a0,v0
9d00a8e4:	0f4024dc 	jal	9d009370 <__truncdfsf2>
9d00a8e8:	00602825 	move	a1,v1
9d00a8ec:	8fbf001c 	lw	ra,28(sp)
9d00a8f0:	8fb20018 	lw	s2,24(sp)
9d00a8f4:	8fb10014 	lw	s1,20(sp)
9d00a8f8:	8fb00010 	lw	s0,16(sp)
9d00a8fc:	03e00008 	jr	ra
9d00a900:	27bd0020 	addiu	sp,sp,32

Disassembly of section .text.__readv:

9d00a904 <readv>:
9d00a904:	27bdffd8 	addiu	sp,sp,-40
9d00a908:	afb40020 	sw	s4,32(sp)
9d00a90c:	afb3001c 	sw	s3,28(sp)
9d00a910:	afb20018 	sw	s2,24(sp)
9d00a914:	afb10014 	sw	s1,20(sp)
9d00a918:	afb00010 	sw	s0,16(sp)
9d00a91c:	afbf0024 	sw	ra,36(sp)
9d00a920:	0080a025 	move	s4,a0
9d00a924:	00c09825 	move	s3,a2
9d00a928:	00a08025 	move	s0,a1
9d00a92c:	00008825 	move	s1,zero
9d00a930:	00009025 	move	s2,zero
9d00a934:	0253102a 	slt	v0,s2,s3
9d00a938:	5440000a 	bnezl	v0,9d00a964 <readv+0x60>
9d00a93c:	8e060004 	lw	a2,4(s0)
9d00a940:	8fbf0024 	lw	ra,36(sp)
9d00a944:	02201025 	move	v0,s1
9d00a948:	8fb40020 	lw	s4,32(sp)
9d00a94c:	8fb3001c 	lw	s3,28(sp)
9d00a950:	8fb20018 	lw	s2,24(sp)
9d00a954:	8fb10014 	lw	s1,20(sp)
9d00a958:	8fb00010 	lw	s0,16(sp)
9d00a95c:	03e00008 	jr	ra
9d00a960:	27bd0028 	addiu	sp,sp,40
9d00a964:	8e050000 	lw	a1,0(s0)
9d00a968:	02802025 	move	a0,s4
9d00a96c:	0f402ec7 	jal	9d00bb1c <__read>
9d00a970:	26520001 	addiu	s2,s2,1
9d00a974:	02228821 	addu	s1,s1,v0
9d00a978:	1000ffee 	b	9d00a934 <readv+0x30>
9d00a97c:	26100008 	addiu	s0,s0,8

Disassembly of section .text.litodp:

9d00a980 <__floatsidf>:
9d00a980:	24050000 00054825 00053825 00043025     ...$%H..%8..%0..
9d00a990:	10c0000c 00000000 04c10006 00000000     ................
9d00a9a0:	3c098000 0005502b 00052823 00063023     ...<+P..#(..#0..
9d00a9b0:	00ca3023                                #0..

9d00a9b4 <i40>:
9d00a9b4:	2407041e 	li	a3,1054
9d00a9b8:	70c84020 	clz	t0,a2
9d00a9bc:	00e83823 	subu	a3,a3,t0
9d00a9c0:	01063004 	sllv	a2,a2,t0

9d00a9c4 <i39>:
9d00a9c4:	000542c2 	srl	t0,a1,0xb
9d00a9c8:	00065540 	sll	t2,a2,0x15
9d00a9cc:	010a4025 	or	t0,t0,t2
9d00a9d0:	00065040 	sll	t2,a2,0x1
9d00a9d4:	000a5302 	srl	t2,t2,0xc
9d00a9d8:	012a4825 	or	t1,t1,t2
9d00a9dc:	00075500 	sll	t2,a3,0x14
9d00a9e0:	012a4825 	or	t1,t1,t2
9d00a9e4:	00081025 	or	v0,zero,t0
9d00a9e8:	00091825 	or	v1,zero,t1

9d00a9ec <E999>:
9d00a9ec:	03e00008 	jr	ra
9d00a9f0:	00000000 	nop
9d00a9f4:	00000000 	nop

Disassembly of section .text.__consumews:

9d00a9f8 <__consumews>:
9d00a9f8:	8ca20000 	lw	v0,0(a1)
9d00a9fc:	24030020 	li	v1,32
9d00aa00:	80420000 	lb	v0,0(v0)
9d00aa04:	10430004 	beq	v0,v1,9d00aa18 <__consumews+0x20>
9d00aa08:	2442fff7 	addiu	v0,v0,-9
9d00aa0c:	2c430005 	sltiu	v1,v0,5
9d00aa10:	10600014 	beqz	v1,9d00aa64 <__consumews+0x6c>
9d00aa14:	00001025 	move	v0,zero
9d00aa18:	27bdffe8 	addiu	sp,sp,-24
9d00aa1c:	afb00010 	sw	s0,16(sp)
9d00aa20:	afbf0014 	sw	ra,20(sp)
9d00aa24:	0f4026d6 	jal	9d009b58 <__skipws>
9d00aa28:	00a08025 	move	s0,a1
9d00aa2c:	24040020 	li	a0,32
9d00aa30:	8e030000 	lw	v1,0(s0)
9d00aa34:	24650001 	addiu	a1,v1,1
9d00aa38:	ae050000 	sw	a1,0(s0)
9d00aa3c:	80630001 	lb	v1,1(v1)
9d00aa40:	1064fffb 	beq	v1,a0,9d00aa30 <__consumews+0x38>
9d00aa44:	2463fff7 	addiu	v1,v1,-9
9d00aa48:	2c630005 	sltiu	v1,v1,5
9d00aa4c:	5460fff9 	bnezl	v1,9d00aa34 <__consumews+0x3c>
9d00aa50:	8e030000 	lw	v1,0(s0)
9d00aa54:	8fbf0014 	lw	ra,20(sp)
9d00aa58:	8fb00010 	lw	s0,16(sp)
9d00aa5c:	03e00008 	jr	ra
9d00aa60:	27bd0018 	addiu	sp,sp,24
9d00aa64:	03e00008 	jr	ra
9d00aa68:	00000000 	nop

Disassembly of section .text.__putc:

9d00aa6c <__putc>:
9d00aa6c:	8ca20004 	lw	v0,4(a1)
9d00aa70:	27bdffe8 	addiu	sp,sp,-24
9d00aa74:	30420020 	andi	v0,v0,0x20
9d00aa78:	14400006 	bnez	v0,9d00aa94 <__putc+0x28>
9d00aa7c:	afbf0014 	sw	ra,20(sp)
9d00aa80:	0f402b25 	jal	9d00ac94 <__putc_unbuffered>
9d00aa84:	00000000 	nop
9d00aa88:	8fbf0014 	lw	ra,20(sp)
9d00aa8c:	03e00008 	jr	ra
9d00aa90:	27bd0018 	addiu	sp,sp,24
9d00aa94:	00803025 	move	a2,a0
9d00aa98:	308200ff 	andi	v0,a0,0xff
9d00aa9c:	80a40034 	lb	a0,52(a1)
9d00aaa0:	1082000a 	beq	a0,v0,9d00aacc <__putc+0x60>
9d00aaa4:	00a01825 	move	v1,a1
9d00aaa8:	8ca40014 	lw	a0,20(a1)
9d00aaac:	8ca50028 	lw	a1,40(a1)
9d00aab0:	0085282b 	sltu	a1,a0,a1
9d00aab4:	10a00006 	beqz	a1,9d00aad0 <__putc+0x64>
9d00aab8:	00c02825 	move	a1,a2
9d00aabc:	24850001 	addiu	a1,a0,1
9d00aac0:	ac650014 	sw	a1,20(v1)
9d00aac4:	1000fff0 	b	9d00aa88 <__putc+0x1c>
9d00aac8:	a0860000 	sb	a2,0(a0)
9d00aacc:	00c02825 	move	a1,a2
9d00aad0:	0f4028c6 	jal	9d00a318 <__overflow>
9d00aad4:	00602025 	move	a0,v1
9d00aad8:	1000ffec 	b	9d00aa8c <__putc+0x20>
9d00aadc:	8fbf0014 	lw	ra,20(sp)

Disassembly of section .text.alloc_rev:

9d00aae0 <alloc_rev>:
9d00aae0:	8c860000 	lw	a2,0(a0)
9d00aae4:	30c20001 	andi	v0,a2,0x1
9d00aae8:	10400008 	beqz	v0,9d00ab0c <alloc_rev+0x2c>
9d00aaec:	00803825 	move	a3,a0
9d00aaf0:	03e00008 	jr	ra
9d00aaf4:	00001025 	move	v0,zero
9d00aaf8:	30c20001 	andi	v0,a2,0x1
9d00aafc:	10400005 	beqz	v0,9d00ab14 <alloc_rev+0x34>
9d00ab00:	00001025 	move	v0,zero
9d00ab04:	10000011 	b	9d00ab4c <alloc_rev+0x6c>
9d00ab08:	8fbf0014 	lw	ra,20(sp)
9d00ab0c:	27bdffe8 	addiu	sp,sp,-24
9d00ab10:	afbf0014 	sw	ra,20(sp)
9d00ab14:	0f402b0c 	jal	9d00ac30 <bin_index>
9d00ab18:	00c02025 	move	a0,a2
9d00ab1c:	00402025 	move	a0,v0
9d00ab20:	0f402d94 	jal	9d00b650 <lock_bin>
9d00ab24:	00404025 	move	t0,v0
9d00ab28:	8ce40000 	lw	a0,0(a3)
9d00ab2c:	5486fff2 	bnel	a0,a2,9d00aaf8 <alloc_rev+0x18>
9d00ab30:	8ce60000 	lw	a2,0(a3)
9d00ab34:	7c040004 	ins	a0,zero,0x0,0x1
9d00ab38:	01002825 	move	a1,t0
9d00ab3c:	0f40272e 	jal	9d009cb8 <unbin>
9d00ab40:	00e42023 	subu	a0,a3,a0
9d00ab44:	24020001 	li	v0,1
9d00ab48:	8fbf0014 	lw	ra,20(sp)
9d00ab4c:	03e00008 	jr	ra
9d00ab50:	27bd0018 	addiu	sp,sp,24

Disassembly of section .text.alloc_fwd:

9d00ab54 <alloc_fwd>:
9d00ab54:	8c860004 	lw	a2,4(a0)
9d00ab58:	30c20001 	andi	v0,a2,0x1
9d00ab5c:	10400008 	beqz	v0,9d00ab80 <alloc_fwd+0x2c>
9d00ab60:	00803825 	move	a3,a0
9d00ab64:	03e00008 	jr	ra
9d00ab68:	00001025 	move	v0,zero
9d00ab6c:	30c20001 	andi	v0,a2,0x1
9d00ab70:	10400005 	beqz	v0,9d00ab88 <alloc_fwd+0x34>
9d00ab74:	00001025 	move	v0,zero
9d00ab78:	10000010 	b	9d00abbc <alloc_fwd+0x68>
9d00ab7c:	8fbf0014 	lw	ra,20(sp)
9d00ab80:	27bdffe8 	addiu	sp,sp,-24
9d00ab84:	afbf0014 	sw	ra,20(sp)
9d00ab88:	0f402b0c 	jal	9d00ac30 <bin_index>
9d00ab8c:	00c02025 	move	a0,a2
9d00ab90:	00402025 	move	a0,v0
9d00ab94:	0f402d94 	jal	9d00b650 <lock_bin>
9d00ab98:	00404025 	move	t0,v0
9d00ab9c:	8ce20004 	lw	v0,4(a3)
9d00aba0:	5446fff2 	bnel	v0,a2,9d00ab6c <alloc_fwd+0x18>
9d00aba4:	8ce60004 	lw	a2,4(a3)
9d00aba8:	01002825 	move	a1,t0
9d00abac:	0f40272e 	jal	9d009cb8 <unbin>
9d00abb0:	00e02025 	move	a0,a3
9d00abb4:	24020001 	li	v0,1
9d00abb8:	8fbf0014 	lw	ra,20(sp)
9d00abbc:	03e00008 	jr	ra
9d00abc0:	27bd0018 	addiu	sp,sp,24

Disassembly of section .text.__vsscanf:

9d00abc4 <__vsscanf>:
9d00abc4:	27bdff78 	addiu	sp,sp,-136
9d00abc8:	afb20080 	sw	s2,128(sp)
9d00abcc:	afb1007c 	sw	s1,124(sp)
9d00abd0:	afb00078 	sw	s0,120(sp)
9d00abd4:	00a08825 	move	s1,a1
9d00abd8:	00808025 	move	s0,a0
9d00abdc:	00c09025 	move	s2,a2
9d00abe0:	27a40010 	addiu	a0,sp,16
9d00abe4:	24060068 	li	a2,104
9d00abe8:	afbf0084 	sw	ra,132(sp)
9d00abec:	0f402e49 	jal	9d00b924 <memset>
9d00abf0:	00002825 	move	a1,zero
9d00abf4:	3c029d01 	lui	v0,0x9d01
9d00abf8:	2442ba90 	addiu	v0,v0,-17776
9d00abfc:	02403025 	move	a2,s2
9d00ac00:	02202825 	move	a1,s1
9d00ac04:	27a40010 	addiu	a0,sp,16
9d00ac08:	afb00018 	sw	s0,24(sp)
9d00ac0c:	afb00048 	sw	s0,72(sp)
9d00ac10:	0f402d2c 	jal	9d00b4b0 <__vfscanf>
9d00ac14:	afa20054 	sw	v0,84(sp)
9d00ac18:	8fbf0084 	lw	ra,132(sp)
9d00ac1c:	8fb20080 	lw	s2,128(sp)
9d00ac20:	8fb1007c 	lw	s1,124(sp)
9d00ac24:	8fb00078 	lw	s0,120(sp)
9d00ac28:	03e00008 	jr	ra
9d00ac2c:	27bd0088 	addiu	sp,sp,136

Disassembly of section .text.bin_index:

9d00ac30 <bin_index>:
9d00ac30:	00042102 	srl	a0,a0,0x4
9d00ac34:	2484ffff 	addiu	a0,a0,-1
9d00ac38:	2c820021 	sltiu	v0,a0,33
9d00ac3c:	50400003 	beqzl	v0,9d00ac4c <bin_index+0x1c>
9d00ac40:	2c820200 	sltiu	v0,a0,512
9d00ac44:	03e00008 	jr	ra
9d00ac48:	00801025 	move	v0,a0
9d00ac4c:	10400007 	beqz	v0,9d00ac6c <bin_index+0x3c>
9d00ac50:	2c831c01 	sltiu	v1,a0,7169
9d00ac54:	3c029d01 	lui	v0,0x9d01
9d00ac58:	2442ae8c 	addiu	v0,v0,-20852
9d00ac5c:	000420c2 	srl	a0,a0,0x3
9d00ac60:	00822021 	addu	a0,a0,v0
9d00ac64:	03e00008 	jr	ra
9d00ac68:	9082fffc 	lbu	v0,-4(a0)
9d00ac6c:	10600007 	beqz	v1,9d00ac8c <bin_index+0x5c>
9d00ac70:	2402003f 	li	v0,63
9d00ac74:	3c029d01 	lui	v0,0x9d01
9d00ac78:	2442ae8c 	addiu	v0,v0,-20852
9d00ac7c:	000421c2 	srl	a0,a0,0x7
9d00ac80:	00822021 	addu	a0,a0,v0
9d00ac84:	9082fffc 	lbu	v0,-4(a0)
9d00ac88:	24420010 	addiu	v0,v0,16
9d00ac8c:	03e00008 	jr	ra
9d00ac90:	00000000 	nop

Disassembly of section .text.__putc_unbuffered:

9d00ac94 <__putc_unbuffered>:
9d00ac94:	8ca20004 	lw	v0,4(a1)
9d00ac98:	27bdffe0 	addiu	sp,sp,-32
9d00ac9c:	308300ff 	andi	v1,a0,0xff
9d00aca0:	30420100 	andi	v0,v0,0x100
9d00aca4:	afbf001c 	sw	ra,28(sp)
9d00aca8:	1040000a 	beqz	v0,9d00acd4 <__putc_unbuffered+0x40>
9d00acac:	a3a30010 	sb	v1,16(sp)
9d00acb0:	8ca20014 	lw	v0,20(a1)
9d00acb4:	308400ff 	andi	a0,a0,0xff
9d00acb8:	24460001 	addiu	a2,v0,1
9d00acbc:	aca60014 	sw	a2,20(a1)
9d00acc0:	a0430000 	sb	v1,0(v0)
9d00acc4:	8fbf001c 	lw	ra,28(sp)
9d00acc8:	00801025 	move	v0,a0
9d00accc:	03e00008 	jr	ra
9d00acd0:	27bd0020 	addiu	sp,sp,32
9d00acd4:	00a02025 	move	a0,a1
9d00acd8:	24060001 	li	a2,1
9d00acdc:	0f402dae 	jal	9d00b6b8 <__fwrite>
9d00ace0:	27a50010 	addiu	a1,sp,16
9d00ace4:	1040fff7 	beqz	v0,9d00acc4 <__putc_unbuffered+0x30>
9d00ace8:	2404ffff 	li	a0,-1
9d00acec:	1000fff5 	b	9d00acc4 <__putc_unbuffered+0x30>
9d00acf0:	93a40010 	lbu	a0,16(sp)

Disassembly of section .text.__fopen_std:

9d00acf4 <__fopen_std>:
9d00acf4:	27bdffe8 	addiu	sp,sp,-24
9d00acf8:	afb00010 	sw	s0,16(sp)
9d00acfc:	afbf0014 	sw	ra,20(sp)
9d00ad00:	0f401d6a 	jal	9d0075a8 <malloc>
9d00ad04:	24040038 	li	a0,56
9d00ad08:	1040000d 	beqz	v0,9d00ad40 <__fopen_std+0x4c>
9d00ad0c:	00408025 	move	s0,v0
9d00ad10:	24060038 	li	a2,56
9d00ad14:	00002825 	move	a1,zero
9d00ad18:	0f402e49 	jal	9d00b924 <memset>
9d00ad1c:	00402025 	move	a0,v0
9d00ad20:	3c029d01 	lui	v0,0x9d01
9d00ad24:	2442b990 	addiu	v0,v0,-18032
9d00ad28:	ae02002c 	sw	v0,44(s0)
9d00ad2c:	3c029d01 	lui	v0,0x9d01
9d00ad30:	2442a0a8 	addiu	v0,v0,-24408
9d00ad34:	ae020030 	sw	v0,48(s0)
9d00ad38:	2402ffff 	li	v0,-1
9d00ad3c:	a2020034 	sb	v0,52(s0)
9d00ad40:	8fbf0014 	lw	ra,20(sp)
9d00ad44:	02001025 	move	v0,s0
9d00ad48:	8fb00010 	lw	s0,16(sp)
9d00ad4c:	03e00008 	jr	ra
9d00ad50:	27bd0018 	addiu	sp,sp,24

Disassembly of section .text.sitofp:

9d00ad54 <__floatsisf>:
9d00ad54:	3c018000 10800012 00813024 04810002     ...<....$0......
9d00ad64:	00000000 00042023                       ....# ..

9d00ad6c <i40>:
9d00ad6c:	2405009e 	li	a1,158
9d00ad70:	70873820 	clz	a3,a0
9d00ad74:	00a72823 	subu	a1,a1,a3
9d00ad78:	00e42004 	sllv	a0,a0,a3
9d00ad7c:	24840080 	addiu	a0,a0,128
9d00ad80:	2c880080 	sltiu	t0,a0,128
9d00ad84:	00a82821 	addu	a1,a1,t0
9d00ad88:	00044203 	sra	t0,a0,0x8
9d00ad8c:	31080001 	andi	t0,t0,0x1
9d00ad90:	00882023 	subu	a0,a0,t0
9d00ad94:	00042040 	sll	a0,a0,0x1
9d00ad98:	00042242 	srl	a0,a0,0x9
9d00ad9c:	000545c0 	sll	t0,a1,0x17
9d00ada0:	00882025 	or	a0,a0,t0

9d00ada4 <i39>:
9d00ada4:	00861025 	or	v0,a0,a2

9d00ada8 <E999>:
9d00ada8:	03e00008 	jr	ra
9d00adac:	00000000 	nop
9d00adb0:	00000000 	nop

Disassembly of section .text.__string_out:

9d00adb4 <__string_out>:
9d00adb4:	8c820010 	lw	v0,16(a0)
9d00adb8:	27bdffe0 	addiu	sp,sp,-32
9d00adbc:	afb00014 	sw	s0,20(sp)
9d00adc0:	00808025 	move	s0,a0
9d00adc4:	8c840014 	lw	a0,20(a0)
9d00adc8:	afb10018 	sw	s1,24(sp)
9d00adcc:	00c2882b 	sltu	s1,a2,v0
9d00add0:	0051300a 	movz	a2,v0,s1
9d00add4:	afbf001c 	sw	ra,28(sp)
9d00add8:	0f402de0 	jal	9d00b780 <memcpy>
9d00addc:	00c08825 	move	s1,a2
9d00ade0:	8e020014 	lw	v0,20(s0)
9d00ade4:	8e060010 	lw	a2,16(s0)
9d00ade8:	00511021 	addu	v0,v0,s1
9d00adec:	00d18823 	subu	s1,a2,s1
9d00adf0:	ae110010 	sw	s1,16(s0)
9d00adf4:	ae020014 	sw	v0,20(s0)
9d00adf8:	a0400000 	sb	zero,0(v0)
9d00adfc:	8fbf001c 	lw	ra,28(sp)
9d00ae00:	8fb10018 	lw	s1,24(sp)
9d00ae04:	8fb00014 	lw	s0,20(sp)
9d00ae08:	03e00008 	jr	ra
9d00ae0c:	27bd0020 	addiu	sp,sp,32

Disassembly of section .text.__fmt_state:

9d00ae10 <__fmt_state>:
9d00ae10:	3c069d01 	lui	a2,0x9d01
9d00ae14:	00001025 	move	v0,zero
9d00ae18:	24c6bbd8 	addiu	a2,a2,-17448
9d00ae1c:	00021840 	sll	v1,v0,0x1
9d00ae20:	00661821 	addu	v1,v1,a2
9d00ae24:	80670000 	lb	a3,0(v1)
9d00ae28:	54e00003 	bnezl	a3,9d00ae38 <__fmt_state+0x28>
9d00ae2c:	8c850000 	lw	a1,0(a0)
9d00ae30:	03e00008 	jr	ra
9d00ae34:	90620001 	lbu	v0,1(v1)
9d00ae38:	80a80000 	lb	t0,0(a1)
9d00ae3c:	15070009 	bne	t0,a3,9d00ae64 <__fmt_state+0x54>
9d00ae40:	24420001 	addiu	v0,v0,1
9d00ae44:	90620001 	lbu	v0,1(v1)
9d00ae48:	24a50001 	addiu	a1,a1,1
9d00ae4c:	ac850000 	sw	a1,0(a0)
9d00ae50:	2c43000b 	sltiu	v1,v0,11
9d00ae54:	1460fff2 	bnez	v1,9d00ae20 <__fmt_state+0x10>
9d00ae58:	00021840 	sll	v1,v0,0x1
9d00ae5c:	03e00008 	jr	ra
9d00ae60:	00000000 	nop
9d00ae64:	1000fffa 	b	9d00ae50 <__fmt_state+0x40>
9d00ae68:	304200ff 	andi	v0,v0,0xff

Disassembly of section .rodata:

9d00ae6c <debruijn32.1766>:
9d00ae6c:	02170100 0313181d 0b191b1e 0d040814     ................
9d00ae7c:	121c161f 0c070a1a 06091115 0e0f0510     ................

9d00ae8c <bin_tab>:
9d00ae8c:	23222120 25252424 27272626 28282828      !"#$$%%&&''((((
9d00ae9c:	29292929 2a2a2a2a 2b2b2b2b 2c2c2c2c     ))))****++++,,,,
9d00aeac:	2c2c2c2c 2d2d2d2d 2d2d2d2d 2e2e2e2e     ,,,,--------....
9d00aebc:	2e2e2e2e 2f2f2f2f 2f2f2f2f              ....////////

Disassembly of section .text.__stdio_seek_unbuffered:

9d00aec8 <__stdio_seek_unbuffered>:
9d00aec8:	27bdffe0 	addiu	sp,sp,-32
9d00aecc:	8fa20030 	lw	v0,48(sp)
9d00aed0:	afb00018 	sw	s0,24(sp)
9d00aed4:	00808025 	move	s0,a0
9d00aed8:	afa20010 	sw	v0,16(sp)
9d00aedc:	8c840000 	lw	a0,0(a0)
9d00aee0:	afbf001c 	sw	ra,28(sp)
9d00aee4:	0f402f35 	jal	9d00bcd4 <lseek>
9d00aee8:	00000000 	nop
9d00aeec:	0460000a 	bltz	v1,9d00af18 <__stdio_seek_unbuffered+0x50>
9d00aef0:	2402ffff 	li	v0,-1
9d00aef4:	8e020004 	lw	v0,4(s0)
9d00aef8:	00001825 	move	v1,zero
9d00aefc:	7c0218c4 	ins	v0,zero,0x3,0x1
9d00af00:	ae020004 	sw	v0,4(s0)
9d00af04:	00001025 	move	v0,zero
9d00af08:	8fbf001c 	lw	ra,28(sp)
9d00af0c:	8fb00018 	lw	s0,24(sp)
9d00af10:	03e00008 	jr	ra
9d00af14:	27bd0020 	addiu	sp,sp,32
9d00af18:	1000fffb 	b	9d00af08 <__stdio_seek_unbuffered+0x40>
9d00af1c:	2403ffff 	li	v1,-1

Disassembly of section .text.adjust_size:

9d00af20 <adjust_size>:
9d00af20:	3c03a000 	lui	v1,0xa000
9d00af24:	8c661c34 	lw	a2,7220(v1)
9d00af28:	8c820000 	lw	v0,0(a0)
9d00af2c:	3c037fff 	lui	v1,0x7fff
9d00af30:	3463ffef 	ori	v1,v1,0xffef
9d00af34:	2445ffff 	addiu	a1,v0,-1
9d00af38:	00661823 	subu	v1,v1,a2
9d00af3c:	0065182b 	sltu	v1,v1,a1
9d00af40:	5060000b 	beqzl	v1,9d00af70 <adjust_size+0x50>
9d00af44:	24420017 	addiu	v0,v0,23
9d00af48:	50400006 	beqzl	v0,9d00af64 <adjust_size+0x44>
9d00af4c:	24020010 	li	v0,16
9d00af50:	3c02a000 	lui	v0,0xa000
9d00af54:	2403000c 	li	v1,12
9d00af58:	ac431c78 	sw	v1,7288(v0)
9d00af5c:	03e00008 	jr	ra
9d00af60:	2402ffff 	li	v0,-1
9d00af64:	ac820000 	sw	v0,0(a0)
9d00af68:	03e00008 	jr	ra
9d00af6c:	00001025 	move	v0,zero
9d00af70:	1000fffc 	b	9d00af64 <adjust_size+0x44>
9d00af74:	7c021804 	ins	v0,zero,0x0,0x4

Disassembly of section .text.trim:

9d00af78 <trim>:
9d00af78:	8c820004 	lw	v0,4(a0)
9d00af7c:	7c020004 	ins	v0,zero,0x0,0x1
9d00af80:	00451823 	subu	v1,v0,a1
9d00af84:	2c660011 	sltiu	a2,v1,17
9d00af88:	14c0000f 	bnez	a2,9d00afc8 <trim+0x50>
9d00af8c:	00853021 	addu	a2,a0,a1
9d00af90:	27bdffe8 	addiu	sp,sp,-24
9d00af94:	34a50001 	ori	a1,a1,0x1
9d00af98:	34630001 	ori	v1,v1,0x1
9d00af9c:	00821021 	addu	v0,a0,v0
9d00afa0:	afbf0014 	sw	ra,20(sp)
9d00afa4:	acc50000 	sw	a1,0(a2)
9d00afa8:	acc30004 	sw	v1,4(a2)
9d00afac:	ac430000 	sw	v1,0(v0)
9d00afb0:	ac850004 	sw	a1,4(a0)
9d00afb4:	0f40200d 	jal	9d008034 <free>
9d00afb8:	24c40008 	addiu	a0,a2,8
9d00afbc:	8fbf0014 	lw	ra,20(sp)
9d00afc0:	03e00008 	jr	ra
9d00afc4:	27bd0018 	addiu	sp,sp,24
9d00afc8:	03e00008 	jr	ra
9d00afcc:	00000000 	nop

Disassembly of section .text.main_entry:

9d00afd0 <_main_entry>:
9d00afd0:	3c040000 	lui	a0,0x0
9d00afd4:	27bdffe8 	addiu	sp,sp,-24
9d00afd8:	24840000 	addiu	a0,a0,0
9d00afdc:	10800003 	beqz	a0,9d00afec <_main_entry+0x1c>
9d00afe0:	afbf0014 	sw	ra,20(sp)
9d00afe4:	0080f809 	jalr	a0
9d00afe8:	00000000 	nop
9d00afec:	30840000 	andi	a0,a0,0x0
9d00aff0:	30a50000 	andi	a1,a1,0x0
9d00aff4:	3c089d00 	lui	t0,0x9d00
9d00aff8:	2508408c 	addiu	t0,t0,16524
9d00affc:	0100f809 	jalr	t0
9d00b000:	00000000 	nop

9d00b004 <__crt0_exit>:
9d00b004:	3c020000 24420000 10400003 00000000     ...<..B$..@.....
9d00b014:	0040f809 00000000 1000fff9 00000000     ..@.............

Disassembly of section .text.__uflow:

9d00b024 <__uflow>:
9d00b024:	27bdffe0 	addiu	sp,sp,-32
9d00b028:	afb00018 	sw	s0,24(sp)
9d00b02c:	afbf001c 	sw	ra,28(sp)
9d00b030:	0f4028ec 	jal	9d00a3b0 <__toread>
9d00b034:	00808025 	move	s0,a0
9d00b038:	50400006 	beqzl	v0,9d00b054 <__uflow+0x30>
9d00b03c:	8e020044 	lw	v0,68(s0)
9d00b040:	2402ffff 	li	v0,-1
9d00b044:	8fbf001c 	lw	ra,28(sp)
9d00b048:	8fb00018 	lw	s0,24(sp)
9d00b04c:	03e00008 	jr	ra
9d00b050:	27bd0020 	addiu	sp,sp,32
9d00b054:	24060001 	li	a2,1
9d00b058:	27a50010 	addiu	a1,sp,16
9d00b05c:	0040f809 	jalr	v0
9d00b060:	02002025 	move	a0,s0
9d00b064:	24030001 	li	v1,1
9d00b068:	1443fff5 	bne	v0,v1,9d00b040 <__uflow+0x1c>
9d00b06c:	93a20010 	lbu	v0,16(sp)
9d00b070:	1000fff5 	b	9d00b048 <__uflow+0x24>
9d00b074:	8fbf001c 	lw	ra,28(sp)

Disassembly of section .text.__pop_float:

9d00b078 <__pop_float>:
9d00b078:	28a30080 	slti	v1,a1,128
9d00b07c:	14600010 	bnez	v1,9d00b0c0 <__pop_float+0x48>
9d00b080:	00001025 	move	v0,zero
9d00b084:	28a20082 	slti	v0,a1,130
9d00b088:	14400003 	bnez	v0,9d00b098 <__pop_float+0x20>
9d00b08c:	24030083 	li	v1,131
9d00b090:	14a3000b 	bne	a1,v1,9d00b0c0 <__pop_float+0x48>
9d00b094:	00001025 	move	v0,zero
9d00b098:	8cc20000 	lw	v0,0(a2)
9d00b09c:	24420007 	addiu	v0,v0,7
9d00b0a0:	7c021004 	ins	v0,zero,0x0,0x3
9d00b0a4:	24430008 	addiu	v1,v0,8
9d00b0a8:	acc30000 	sw	v1,0(a2)
9d00b0ac:	8c430004 	lw	v1,4(v0)
9d00b0b0:	8c420000 	lw	v0,0(v0)
9d00b0b4:	ac830004 	sw	v1,4(a0)
9d00b0b8:	ac820000 	sw	v0,0(a0)
9d00b0bc:	24020001 	li	v0,1
9d00b0c0:	03e00008 	jr	ra
9d00b0c4:	00000000 	nop

Disassembly of section .text.__ftello_adj_rw:

9d00b0c8 <__ftello_adj_rw>:
9d00b0c8:	8c830004 	lw	v1,4(a0)
9d00b0cc:	30620002 	andi	v0,v1,0x2
9d00b0d0:	14400004 	bnez	v0,9d00b0e4 <__ftello_adj_rw+0x1c>
9d00b0d4:	00003025 	move	a2,zero
9d00b0d8:	8c820040 	lw	v0,64(a0)
9d00b0dc:	8c86003c 	lw	a2,60(a0)
9d00b0e0:	00463023 	subu	a2,v0,a2
9d00b0e4:	8c870014 	lw	a3,20(a0)
9d00b0e8:	8c840018 	lw	a0,24(a0)
9d00b0ec:	30630040 	andi	v1,v1,0x40
9d00b0f0:	00e41023 	subu	v0,a3,a0
9d00b0f4:	00461021 	addu	v0,v0,a2
9d00b0f8:	aca20000 	sw	v0,0(a1)
9d00b0fc:	000217c3 	sra	v0,v0,0x1f
9d00b100:	aca20004 	sw	v0,4(a1)
9d00b104:	10600002 	beqz	v1,9d00b110 <__ftello_adj_rw+0x48>
9d00b108:	00001025 	move	v0,zero
9d00b10c:	0087102b 	sltu	v0,a0,a3
9d00b110:	03e00008 	jr	ra
9d00b114:	00000000 	nop

Disassembly of section .text.__malloc0:

9d00b118 <__malloc0>:
9d00b118:	27bdffe8 	addiu	sp,sp,-24
9d00b11c:	afb00010 	sw	s0,16(sp)
9d00b120:	afbf0014 	sw	ra,20(sp)
9d00b124:	0f401d6a 	jal	9d0075a8 <malloc>
9d00b128:	00808025 	move	s0,a0
9d00b12c:	10400006 	beqz	v0,9d00b148 <__malloc0+0x30>
9d00b130:	26100003 	addiu	s0,s0,3
9d00b134:	7c100804 	ins	s0,zero,0x0,0x2
9d00b138:	00508021 	addu	s0,v0,s0
9d00b13c:	00401825 	move	v1,v0
9d00b140:	54700005 	bnel	v1,s0,9d00b158 <__malloc0+0x40>
9d00b144:	8c640000 	lw	a0,0(v1)
9d00b148:	8fbf0014 	lw	ra,20(sp)
9d00b14c:	8fb00010 	lw	s0,16(sp)
9d00b150:	03e00008 	jr	ra
9d00b154:	27bd0018 	addiu	sp,sp,24
9d00b158:	54800001 	bnezl	a0,9d00b160 <__malloc0+0x48>
9d00b15c:	ac600000 	sw	zero,0(v1)
9d00b160:	1000fff7 	b	9d00b140 <__malloc0+0x28>
9d00b164:	24630004 	addiu	v1,v1,4

Disassembly of section .text.__shlim:

9d00b168 <__shlim>:
9d00b168:	8c830040 	lw	v1,64(a0)
9d00b16c:	8c88003c 	lw	t0,60(a0)
9d00b170:	00c74825 	or	t1,a2,a3
9d00b174:	ac860050 	sw	a2,80(a0)
9d00b178:	00681023 	subu	v0,v1,t0
9d00b17c:	00022fc3 	sra	a1,v0,0x1f
9d00b180:	ac870054 	sw	a3,84(a0)
9d00b184:	ac820058 	sw	v0,88(a0)
9d00b188:	11200008 	beqz	t1,9d00b1ac <__shlim+0x44>
9d00b18c:	ac85005c 	sw	a1,92(a0)
9d00b190:	00e5482a 	slt	t1,a3,a1
9d00b194:	55200005 	bnezl	t1,9d00b1ac <__shlim+0x44>
9d00b198:	01061821 	addu	v1,t0,a2
9d00b19c:	14a70003 	bne	a1,a3,9d00b1ac <__shlim+0x44>
9d00b1a0:	00c2102b 	sltu	v0,a2,v0
9d00b1a4:	54400001 	bnezl	v0,9d00b1ac <__shlim+0x44>
9d00b1a8:	01061821 	addu	v1,t0,a2
9d00b1ac:	03e00008 	jr	ra
9d00b1b0:	ac83004c 	sw	v1,76(a0)

Disassembly of section .text.__stdio_exit:

9d00b1b4 <__stdio_exit>:
9d00b1b4:	27bdffe8 	addiu	sp,sp,-24
9d00b1b8:	afbf0014 	sw	ra,20(sp)
9d00b1bc:	0f402f29 	jal	9d00bca4 <__stdio_exit_ofl>
9d00b1c0:	00000000 	nop
9d00b1c4:	3c02a000 	lui	v0,0xa000
9d00b1c8:	8c441c74 	lw	a0,7284(v0)
9d00b1cc:	0f402d86 	jal	9d00b618 <__fclose>
9d00b1d0:	00002825 	move	a1,zero
9d00b1d4:	3c02a000 	lui	v0,0xa000
9d00b1d8:	8c441c74 	lw	a0,7284(v0)
9d00b1dc:	0f402d86 	jal	9d00b618 <__fclose>
9d00b1e0:	00002825 	move	a1,zero
9d00b1e4:	3c02a000 	lui	v0,0xa000
9d00b1e8:	8c441c74 	lw	a0,7284(v0)
9d00b1ec:	0f402d86 	jal	9d00b618 <__fclose>
9d00b1f0:	00002825 	move	a1,zero
9d00b1f4:	8fbf0014 	lw	ra,20(sp)
9d00b1f8:	03e00008 	jr	ra
9d00b1fc:	27bd0018 	addiu	sp,sp,24

Disassembly of section .text.sbrk:

9d00b200 <sbrk>:
9d00b200:	27bdffe8 	addiu	sp,sp,-24
9d00b204:	afb00010 	sw	s0,16(sp)
9d00b208:	afbf0014 	sw	ra,20(sp)
9d00b20c:	0f402702 	jal	9d009c08 <_sbrk>
9d00b210:	00808025 	move	s0,a0
9d00b214:	1a000008 	blez	s0,9d00b238 <sbrk+0x38>
9d00b218:	00401825 	move	v1,v0
9d00b21c:	2402ffff 	li	v0,-1
9d00b220:	10620005 	beq	v1,v0,9d00b238 <sbrk+0x38>
9d00b224:	00602025 	move	a0,v1
9d00b228:	02003025 	move	a2,s0
9d00b22c:	0f402e49 	jal	9d00b924 <memset>
9d00b230:	00002825 	move	a1,zero
9d00b234:	00401825 	move	v1,v0
9d00b238:	8fbf0014 	lw	ra,20(sp)
9d00b23c:	00601025 	move	v0,v1
9d00b240:	8fb00010 	lw	s0,16(sp)
9d00b244:	03e00008 	jr	ra
9d00b248:	27bd0018 	addiu	sp,sp,24

Disassembly of section .text:

9d00b24c <__floatunsisf>:
9d00b24c:	27bdffe8 	addiu	sp,sp,-24
9d00b250:	0481000c 	bgez	a0,9d00b284 <__floatunsisf+0x38>
9d00b254:	afbf0014 	sw	ra,20(sp)
9d00b258:	00801025 	move	v0,a0
9d00b25c:	00021042 	srl	v0,v0,0x1
9d00b260:	30840001 	andi	a0,a0,0x1
9d00b264:	0f402b55 	jal	9d00ad54 <__floatsisf>
9d00b268:	00822025 	or	a0,a0,v0
9d00b26c:	00402825 	move	a1,v0
9d00b270:	0f401e13 	jal	9d00784c <__addsf3>
9d00b274:	00402025 	move	a0,v0
9d00b278:	8fbf0014 	lw	ra,20(sp)
9d00b27c:	03e00008 	jr	ra
9d00b280:	27bd0018 	addiu	sp,sp,24
9d00b284:	0f402b55 	jal	9d00ad54 <__floatsisf>
9d00b288:	00000000 	nop
9d00b28c:	1000fffb 	b	9d00b27c <__floatunsisf+0x30>
9d00b290:	8fbf0014 	lw	ra,20(sp)

Disassembly of section .text._bootstrap_exception_handler:

9d00b294 <_bootstrap_exception_handler>:
9d00b294:	3c020000 	lui	v0,0x0
9d00b298:	24420000 	addiu	v0,v0,0
9d00b29c:	10400005 	beqz	v0,9d00b2b4 <_bootstrap_exception_handler+0x20>
9d00b2a0:	3c020000 	lui	v0,0x0
9d00b2a4:	24420000 	addiu	v0,v0,0
9d00b2a8:	10400003 	beqz	v0,9d00b2b8 <_bootstrap_exception_handler+0x24>
9d00b2ac:	3c029d01 	lui	v0,0x9d01
9d00b2b0:	7000003f 	sdbbp
9d00b2b4:	3c029d01 	lui	v0,0x9d01
9d00b2b8:	2442b36c 	addiu	v0,v0,-19604
9d00b2bc:	10400005 	beqz	v0,9d00b2d4 <_bootstrap_exception_handler+0x40>
9d00b2c0:	00000000 	nop
9d00b2c4:	27bdffe8 	addiu	sp,sp,-24
9d00b2c8:	afbf0014 	sw	ra,20(sp)
9d00b2cc:	0040f809 	jalr	v0
9d00b2d0:	00000000 	nop
9d00b2d4:	1000ffff 	b	9d00b2d4 <_bootstrap_exception_handler+0x40>
9d00b2d8:	00000000 	nop

Disassembly of section .text._general_exception_handler:

9d00b2dc <_general_exception_handler>:
9d00b2dc:	3c020000 	lui	v0,0x0
9d00b2e0:	24420000 	addiu	v0,v0,0
9d00b2e4:	10400005 	beqz	v0,9d00b2fc <_general_exception_handler+0x20>
9d00b2e8:	3c020000 	lui	v0,0x0
9d00b2ec:	24420000 	addiu	v0,v0,0
9d00b2f0:	10400003 	beqz	v0,9d00b300 <_general_exception_handler+0x24>
9d00b2f4:	3c029d01 	lui	v0,0x9d01
9d00b2f8:	7000003f 	sdbbp
9d00b2fc:	3c029d01 	lui	v0,0x9d01
9d00b300:	2442b36c 	addiu	v0,v0,-19604
9d00b304:	10400005 	beqz	v0,9d00b31c <_general_exception_handler+0x40>
9d00b308:	00000000 	nop
9d00b30c:	27bdffe8 	addiu	sp,sp,-24
9d00b310:	afbf0014 	sw	ra,20(sp)
9d00b314:	0040f809 	jalr	v0
9d00b318:	00000000 	nop
9d00b31c:	1000ffff 	b	9d00b31c <_general_exception_handler+0x40>
9d00b320:	00000000 	nop

Disassembly of section .vector_default:

9d00b324 <_DefaultInterrupt>:
9d00b324:	3c020000 	lui	v0,0x0
9d00b328:	24420000 	addiu	v0,v0,0
9d00b32c:	10400007 	beqz	v0,9d00b34c <_DefaultInterrupt+0x28>
9d00b330:	3c020000 	lui	v0,0x0
9d00b334:	24420000 	addiu	v0,v0,0
9d00b338:	50400005 	beqzl	v0,9d00b350 <_DefaultInterrupt+0x2c>
9d00b33c:	3c029d01 	lui	v0,0x9d01
9d00b340:	7000003f 	sdbbp
9d00b344:	03e00008 	jr	ra
9d00b348:	00000000 	nop
9d00b34c:	3c029d01 	lui	v0,0x9d01
9d00b350:	2442b36c 	addiu	v0,v0,-19604
9d00b354:	10400003 	beqz	v0,9d00b364 <_DefaultInterrupt+0x40>
9d00b358:	00000000 	nop
9d00b35c:	0040f809 	jalr	v0
9d00b360:	00000000 	nop
9d00b364:	03e00008 	jr	ra
9d00b368:	00000000 	nop

Disassembly of section .text:

9d00b36c <__pic32_software_reset>:
9d00b36c:	41606000 	di
9d00b370:	000000c0 	ehb
9d00b374:	3c03aa99 	lui	v1,0xaa99
9d00b378:	3c02bf81 	lui	v0,0xbf81
9d00b37c:	24636655 	addiu	v1,v1,26197
9d00b380:	ac40f230 	sw	zero,-3536(v0)
9d00b384:	ac43f230 	sw	v1,-3536(v0)
9d00b388:	3c035566 	lui	v1,0x5566
9d00b38c:	346399aa 	ori	v1,v1,0x99aa
9d00b390:	ac43f230 	sw	v1,-3536(v0)
9d00b394:	3c02bf81 	lui	v0,0xbf81
9d00b398:	24030001 	li	v1,1
9d00b39c:	ac43f618 	sw	v1,-2536(v0)
9d00b3a0:	3c02bf81 	lui	v0,0xbf81
9d00b3a4:	8c42f610 	lw	v0,-2544(v0)
9d00b3a8:	0b402cdd 	j	9d00b374 <__pic32_software_reset+0x8>
9d00b3ac:	00000000 	nop

Disassembly of section .text.__towrite:

9d00b3b0 <__towrite>:
9d00b3b0:	27bdffe8 	addiu	sp,sp,-24
9d00b3b4:	afb00010 	sw	s0,16(sp)
9d00b3b8:	afbf0014 	sw	ra,20(sp)
9d00b3bc:	0f402d1d 	jal	9d00b474 <__towrite_rw>
9d00b3c0:	00808025 	move	s0,a0
9d00b3c4:	14400008 	bnez	v0,9d00b3e8 <__towrite+0x38>
9d00b3c8:	8fbf0014 	lw	ra,20(sp)
9d00b3cc:	8e030008 	lw	v1,8(s0)
9d00b3d0:	8e04000c 	lw	a0,12(s0)
9d00b3d4:	ae030018 	sw	v1,24(s0)
9d00b3d8:	ae030014 	sw	v1,20(s0)
9d00b3dc:	00641821 	addu	v1,v1,a0
9d00b3e0:	ae030028 	sw	v1,40(s0)
9d00b3e4:	8fbf0014 	lw	ra,20(sp)
9d00b3e8:	8fb00010 	lw	s0,16(sp)
9d00b3ec:	03e00008 	jr	ra
9d00b3f0:	27bd0018 	addiu	sp,sp,24

Disassembly of section .text:

9d00b3f4 <__floatunsidf>:
9d00b3f4:	27bdffe8 	addiu	sp,sp,-24
9d00b3f8:	afb00010 	sw	s0,16(sp)
9d00b3fc:	afbf0014 	sw	ra,20(sp)
9d00b400:	0f402a60 	jal	9d00a980 <__floatsidf>
9d00b404:	00808025 	move	s0,a0
9d00b408:	06010008 	bgez	s0,9d00b42c <__floatunsidf+0x38>
9d00b40c:	8fbf0014 	lw	ra,20(sp)
9d00b410:	3c049d00 	lui	a0,0x9d00
9d00b414:	8c861ed8 	lw	a2,7896(a0)
9d00b418:	8c871edc 	lw	a3,7900(a0)
9d00b41c:	00602825 	move	a1,v1
9d00b420:	0f40174c 	jal	9d005d30 <__adddf3>
9d00b424:	00402025 	move	a0,v0
9d00b428:	8fbf0014 	lw	ra,20(sp)
9d00b42c:	8fb00010 	lw	s0,16(sp)
9d00b430:	03e00008 	jr	ra
9d00b434:	27bd0018 	addiu	sp,sp,24

Disassembly of section .text.__sio_sprintf_doux:

9d00b438 <__sio_sprintf_doux>:
9d00b438:	27bdffe8 	addiu	sp,sp,-24
9d00b43c:	afbf0014 	sw	ra,20(sp)
9d00b440:	0f4021e9 	jal	9d0087a4 <__fmt_d>
9d00b444:	00000000 	nop
9d00b448:	0f40251c 	jal	9d009470 <__fmt_o>
9d00b44c:	00000000 	nop
9d00b450:	0f4026a7 	jal	9d009a9c <__fmt_u>
9d00b454:	00000000 	nop
9d00b458:	0f401eaf 	jal	9d007abc <__fmt_x>
9d00b45c:	00000000 	nop
9d00b460:	0f402784 	jal	9d009e10 <__fmt_s>
9d00b464:	00000000 	nop
9d00b468:	8fbf0014 	lw	ra,20(sp)
9d00b46c:	03e00008 	jr	ra
9d00b470:	27bd0018 	addiu	sp,sp,24

Disassembly of section .text.__towrite_rw:

9d00b474 <__towrite_rw>:
9d00b474:	80820048 	lb	v0,72(a0)
9d00b478:	2443ffff 	addiu	v1,v0,-1
9d00b47c:	00431025 	or	v0,v0,v1
9d00b480:	a0820048 	sb	v0,72(a0)
9d00b484:	8c820004 	lw	v0,4(a0)
9d00b488:	30430004 	andi	v1,v0,0x4
9d00b48c:	50600005 	beqzl	v1,9d00b4a4 <__towrite_rw+0x30>
9d00b490:	ac800040 	sw	zero,64(a0)
9d00b494:	34420010 	ori	v0,v0,0x10
9d00b498:	ac820004 	sw	v0,4(a0)
9d00b49c:	03e00008 	jr	ra
9d00b4a0:	2402ffff 	li	v0,-1
9d00b4a4:	ac80003c 	sw	zero,60(a0)
9d00b4a8:	03e00008 	jr	ra
9d00b4ac:	00001025 	move	v0,zero

Disassembly of section .text.__vfscanf:

9d00b4b0 <__vfscanf>:
9d00b4b0:	27bdffe0 	addiu	sp,sp,-32
9d00b4b4:	afb00018 	sw	s0,24(sp)
9d00b4b8:	afa60010 	sw	a2,16(sp)
9d00b4bc:	00808025 	move	s0,a0
9d00b4c0:	afbf001c 	sw	ra,28(sp)
9d00b4c4:	0f400e35 	jal	9d0038d4 <__scanf_core>
9d00b4c8:	27a60010 	addiu	a2,sp,16
9d00b4cc:	8e030004 	lw	v1,4(s0)
9d00b4d0:	8fbf001c 	lw	ra,28(sp)
9d00b4d4:	2404ffff 	li	a0,-1
9d00b4d8:	30630010 	andi	v1,v1,0x10
9d00b4dc:	0083100b 	movn	v0,a0,v1
9d00b4e0:	8fb00018 	lw	s0,24(sp)
9d00b4e4:	03e00008 	jr	ra
9d00b4e8:	27bd0020 	addiu	sp,sp,32

Disassembly of section .text.__expand_heap:

9d00b4ec <__expand_heap>:
9d00b4ec:	8c840000 	lw	a0,0(a0)
9d00b4f0:	04810003 	bgez	a0,9d00b500 <__expand_heap+0x14>
9d00b4f4:	00001025 	move	v0,zero
9d00b4f8:	03e00008 	jr	ra
9d00b4fc:	00000000 	nop
9d00b500:	27bdffe8 	addiu	sp,sp,-24
9d00b504:	afbf0014 	sw	ra,20(sp)
9d00b508:	0f402702 	jal	9d009c08 <_sbrk>
9d00b50c:	00000000 	nop
9d00b510:	2403ffff 	li	v1,-1
9d00b514:	50430001 	beql	v0,v1,9d00b51c <__expand_heap+0x30>
9d00b518:	00001025 	move	v0,zero
9d00b51c:	8fbf0014 	lw	ra,20(sp)
9d00b520:	03e00008 	jr	ra
9d00b524:	27bd0018 	addiu	sp,sp,24

Disassembly of section .text.__vfprintf:

9d00b528 <__vfprintf>:
9d00b528:	27bdffe0 	addiu	sp,sp,-32
9d00b52c:	afb00018 	sw	s0,24(sp)
9d00b530:	afa60010 	sw	a2,16(sp)
9d00b534:	00808025 	move	s0,a0
9d00b538:	afbf001c 	sw	ra,28(sp)
9d00b53c:	0f401183 	jal	9d00460c <__printf_core>
9d00b540:	27a60010 	addiu	a2,sp,16
9d00b544:	8e030004 	lw	v1,4(s0)
9d00b548:	8fbf001c 	lw	ra,28(sp)
9d00b54c:	2404ffff 	li	a0,-1
9d00b550:	30630010 	andi	v1,v1,0x10
9d00b554:	0083100b 	movn	v0,a0,v1
9d00b558:	8fb00018 	lw	s0,24(sp)
9d00b55c:	03e00008 	jr	ra
9d00b560:	27bd0020 	addiu	sp,sp,32

Disassembly of section .text.logbf:

9d00b564 <logbf>:
9d00b564:	27bdffe8 	addiu	sp,sp,-24
9d00b568:	afbf0014 	sw	ra,20(sp)
9d00b56c:	0f4024dc 	jal	9d009370 <__truncdfsf2>
9d00b570:	00000000 	nop
9d00b574:	0f402759 	jal	9d009d64 <__extendsfdf2>
9d00b578:	00402025 	move	a0,v0
9d00b57c:	00402025 	move	a0,v0
9d00b580:	0f40240d 	jal	9d009034 <logbl>
9d00b584:	00602825 	move	a1,v1
9d00b588:	00402025 	move	a0,v0
9d00b58c:	0f4024dc 	jal	9d009370 <__truncdfsf2>
9d00b590:	00602825 	move	a1,v1
9d00b594:	8fbf0014 	lw	ra,20(sp)
9d00b598:	03e00008 	jr	ra
9d00b59c:	27bd0018 	addiu	sp,sp,24

Disassembly of section .text:

9d00b5a0 <__lshrdi3>:
9d00b5a0:	10c00008 	beqz	a2,9d00b5c4 <__lshrdi3+0x24>
9d00b5a4:	00801025 	move	v0,a0
9d00b5a8:	24030020 	li	v1,32
9d00b5ac:	00661823 	subu	v1,v1,a2
9d00b5b0:	1c600006 	bgtz	v1,9d00b5cc <__lshrdi3+0x2c>
9d00b5b4:	00c52006 	srlv	a0,a1,a2
9d00b5b8:	00002025 	move	a0,zero
9d00b5bc:	00c51006 	srlv	v0,a1,a2
9d00b5c0:	00802825 	move	a1,a0
9d00b5c4:	03e00008 	jr	ra
9d00b5c8:	00a01825 	move	v1,a1
9d00b5cc:	00c21006 	srlv	v0,v0,a2
9d00b5d0:	00652804 	sllv	a1,a1,v1
9d00b5d4:	1000fffa 	b	9d00b5c0 <__lshrdi3+0x20>
9d00b5d8:	00451025 	or	v0,v0,a1

9d00b5dc <__ashldi3>:
9d00b5dc:	10c00008 	beqz	a2,9d00b600 <__ashldi3+0x24>
9d00b5e0:	00801025 	move	v0,a0
9d00b5e4:	24040020 	li	a0,32
9d00b5e8:	00862023 	subu	a0,a0,a2
9d00b5ec:	5c800006 	bgtzl	a0,9d00b608 <__ashldi3+0x2c>
9d00b5f0:	00c21804 	sllv	v1,v0,a2
9d00b5f4:	00001825 	move	v1,zero
9d00b5f8:	00c22804 	sllv	a1,v0,a2
9d00b5fc:	00601025 	move	v0,v1
9d00b600:	03e00008 	jr	ra
9d00b604:	00a01825 	move	v1,a1
9d00b608:	00c52804 	sllv	a1,a1,a2
9d00b60c:	00821006 	srlv	v0,v0,a0
9d00b610:	1000fffa 	b	9d00b5fc <__ashldi3+0x20>
9d00b614:	00a22825 	or	a1,a1,v0

Disassembly of section .text.__fclose:

9d00b618 <__fclose>:
9d00b618:	1080000b 	beqz	a0,9d00b648 <__fclose+0x30>
9d00b61c:	00001025 	move	v0,zero
9d00b620:	8c83001c 	lw	v1,28(a0)
9d00b624:	10600008 	beqz	v1,9d00b648 <__fclose+0x30>
9d00b628:	00000000 	nop
9d00b62c:	27bdffe8 	addiu	sp,sp,-24
9d00b630:	afbf0014 	sw	ra,20(sp)
9d00b634:	0060f809 	jalr	v1
9d00b638:	00000000 	nop
9d00b63c:	8fbf0014 	lw	ra,20(sp)
9d00b640:	03e00008 	jr	ra
9d00b644:	27bd0018 	addiu	sp,sp,24
9d00b648:	03e00008 	jr	ra
9d00b64c:	00000000 	nop

Disassembly of section .text.lock_bin:

9d00b650 <lock_bin>:
9d00b650:	24840001 	addiu	a0,a0,1
9d00b654:	000410c0 	sll	v0,a0,0x3
9d00b658:	3c04a000 	lui	a0,0xa000
9d00b65c:	24841928 	addiu	a0,a0,6440
9d00b660:	00441821 	addu	v1,v0,a0
9d00b664:	8c650000 	lw	a1,0(v1)
9d00b668:	14a00004 	bnez	a1,9d00b67c <lock_bin+0x2c>
9d00b66c:	2442fff8 	addiu	v0,v0,-8
9d00b670:	00822021 	addu	a0,a0,v0
9d00b674:	ac640004 	sw	a0,4(v1)
9d00b678:	ac640000 	sw	a0,0(v1)
9d00b67c:	03e00008 	jr	ra
9d00b680:	00000000 	nop

Disassembly of section .text.__dummy:

9d00b684 <__dummy>:
9d00b684:	8c870014 	lw	a3,20(a0)
9d00b688:	8c860018 	lw	a2,24(a0)
9d00b68c:	8c830004 	lw	v1,4(a0)
9d00b690:	00e61023 	subu	v0,a3,a2
9d00b694:	aca20000 	sw	v0,0(a1)
9d00b698:	30630040 	andi	v1,v1,0x40
9d00b69c:	000217c3 	sra	v0,v0,0x1f
9d00b6a0:	aca20004 	sw	v0,4(a1)
9d00b6a4:	10600002 	beqz	v1,9d00b6b0 <__dummy+0x2c>
9d00b6a8:	00001025 	move	v0,zero
9d00b6ac:	00c7102b 	sltu	v0,a2,a3
9d00b6b0:	03e00008 	jr	ra
9d00b6b4:	00000000 	nop

Disassembly of section .text.__fwrite:

9d00b6b8 <__fwrite>:
9d00b6b8:	8c83002c 	lw	v1,44(a0)
9d00b6bc:	27bdffe8 	addiu	sp,sp,-24
9d00b6c0:	10600006 	beqz	v1,9d00b6dc <__fwrite+0x24>
9d00b6c4:	afbf0014 	sw	ra,20(sp)
9d00b6c8:	0060f809 	jalr	v1
9d00b6cc:	00000000 	nop
9d00b6d0:	8fbf0014 	lw	ra,20(sp)
9d00b6d4:	03e00008 	jr	ra
9d00b6d8:	27bd0018 	addiu	sp,sp,24
9d00b6dc:	0f4029bf 	jal	9d00a6fc <write>
9d00b6e0:	8c840000 	lw	a0,0(a0)
9d00b6e4:	1000fffb 	b	9d00b6d4 <__fwrite+0x1c>
9d00b6e8:	8fbf0014 	lw	ra,20(sp)

Disassembly of section .text.finitef:

9d00b6ec <finitef>:
9d00b6ec:	27bdffe8 	addiu	sp,sp,-24
9d00b6f0:	afbf0014 	sw	ra,20(sp)
9d00b6f4:	0f4024dc 	jal	9d009370 <__truncdfsf2>
9d00b6f8:	00000000 	nop
9d00b6fc:	0f402759 	jal	9d009d64 <__extendsfdf2>
9d00b700:	00402025 	move	a0,v0
9d00b704:	00031403 	sra	v0,v1,0x10
9d00b708:	8fbf0014 	lw	ra,20(sp)
9d00b70c:	30427ff0 	andi	v0,v0,0x7ff0
9d00b710:	38427ff0 	xori	v0,v0,0x7ff0
9d00b714:	0002102b 	sltu	v0,zero,v0
9d00b718:	03e00008 	jr	ra
9d00b71c:	27bd0018 	addiu	sp,sp,24

Disassembly of section .text.memchr:

9d00b720 <memchr>:
9d00b720:	00801025 	move	v0,a0
9d00b724:	30a500ff 	andi	a1,a1,0xff
9d00b728:	00863021 	addu	a2,a0,a2
9d00b72c:	54460004 	bnel	v0,a2,9d00b740 <memchr+0x20>
9d00b730:	90430000 	lbu	v1,0(v0)
9d00b734:	00001025 	move	v0,zero
9d00b738:	03e00008 	jr	ra
9d00b73c:	00000000 	nop
9d00b740:	1065fffd 	beq	v1,a1,9d00b738 <memchr+0x18>
9d00b744:	00000000 	nop
9d00b748:	1000fff8 	b	9d00b72c <memchr+0xc>
9d00b74c:	24420001 	addiu	v0,v0,1

Disassembly of section .text.copysign:

9d00b750 <copysign>:
9d00b750:	00071c02 	srl	v1,a3,0x10
9d00b754:	7c037004 	ins	v1,zero,0x0,0xf
9d00b758:	7ca27400 	ext	v0,a1,0x10,0xf
9d00b75c:	27bdfff8 	addiu	sp,sp,-8
9d00b760:	00431025 	or	v0,v0,v1
9d00b764:	afa50004 	sw	a1,4(sp)
9d00b768:	afa40000 	sw	a0,0(sp)
9d00b76c:	a7a20006 	sh	v0,6(sp)
9d00b770:	8fa30004 	lw	v1,4(sp)
9d00b774:	8fa20000 	lw	v0,0(sp)
9d00b778:	03e00008 	jr	ra
9d00b77c:	27bd0008 	addiu	sp,sp,8

Disassembly of section .text.memcpy:

9d00b780 <memcpy>:
9d00b780:	00801025 	move	v0,a0
9d00b784:	00001825 	move	v1,zero
9d00b788:	14c30003 	bne	a2,v1,9d00b798 <memcpy+0x18>
9d00b78c:	00a33821 	addu	a3,a1,v1
9d00b790:	03e00008 	jr	ra
9d00b794:	00000000 	nop
9d00b798:	90e70000 	lbu	a3,0(a3)
9d00b79c:	00432021 	addu	a0,v0,v1
9d00b7a0:	24630001 	addiu	v1,v1,1
9d00b7a4:	1000fff8 	b	9d00b788 <memcpy+0x8>
9d00b7a8:	a0870000 	sb	a3,0(a0)

Disassembly of section .rodata:

9d00b7ac <CSWTCH.35>:
9d00b7ac:	fbceff6b 0000fbce                       k.......

9d00b7b4 <CSWTCH.34>:
9d00b7b4:	00353518                                .55.

9d00b7b8 <p10s.2638>:
9d00b7b8:	0000000a 00000064 000003e8 00002710     ....d........'..
9d00b7c8:	000186a0 000f4240 00989680 05f5e100     ....@B..........

Disassembly of section .text.__init_stdio:

9d00b7d8 <__init_stdio>:
9d00b7d8:	27bdffe8 	addiu	sp,sp,-24
9d00b7dc:	afbf0014 	sw	ra,20(sp)
9d00b7e0:	0f402f31 	jal	9d00bcc4 <__init_stderr>
9d00b7e4:	00000000 	nop
9d00b7e8:	0f402f31 	jal	9d00bcc4 <__init_stderr>
9d00b7ec:	00000000 	nop
9d00b7f0:	0f402f31 	jal	9d00bcc4 <__init_stderr>
9d00b7f4:	00000000 	nop
9d00b7f8:	8fbf0014 	lw	ra,20(sp)
9d00b7fc:	03e00008 	jr	ra
9d00b800:	27bd0018 	addiu	sp,sp,24

Disassembly of section .text.copysignl:

9d00b804 <copysignl>:
9d00b804:	afa50004 	sw	a1,4(sp)
9d00b808:	97a20006 	lhu	v0,6(sp)
9d00b80c:	00073c02 	srl	a3,a3,0x10
9d00b810:	7c077004 	ins	a3,zero,0x0,0xf
9d00b814:	30427fff 	andi	v0,v0,0x7fff
9d00b818:	00471025 	or	v0,v0,a3
9d00b81c:	a7a20006 	sh	v0,6(sp)
9d00b820:	afa40000 	sw	a0,0(sp)
9d00b824:	8fa20000 	lw	v0,0(sp)
9d00b828:	03e00008 	jr	ra
9d00b82c:	8fa30004 	lw	v1,4(sp)

Disassembly of section .text._stub_sbd_memlayout:

9d00b830 <_stub_sbd_memlayout>:
9d00b830:	3c04a000 	lui	a0,0xa000
9d00b834:	24821c50 	addiu	v0,a0,7248
9d00b838:	24030001 	li	v1,1
9d00b83c:	ac430008 	sw	v1,8(v0)
9d00b840:	3c03a000 	lui	v1,0xa000
9d00b844:	24631c80 	addiu	v1,v1,7296
9d00b848:	ac831c50 	sw	v1,7248(a0)
9d00b84c:	3c030000 	lui	v1,0x0
9d00b850:	24630000 	addiu	v1,v1,0
9d00b854:	03e00008 	jr	ra
9d00b858:	ac430004 	sw	v1,4(v0)

Disassembly of section .text.__wrap_sprintf:

9d00b85c <_dsprintf_cdnopuxX>:
9d00b85c:	27bdffe0 	addiu	sp,sp,-32
9d00b860:	afa60028 	sw	a2,40(sp)
9d00b864:	27a60028 	addiu	a2,sp,40
9d00b868:	afbf001c 	sw	ra,28(sp)
9d00b86c:	afa7002c 	sw	a3,44(sp)
9d00b870:	0f402e35 	jal	9d00b8d4 <__vsprintf>
9d00b874:	afa60010 	sw	a2,16(sp)
9d00b878:	8fbf001c 	lw	ra,28(sp)
9d00b87c:	03e00008 	jr	ra
9d00b880:	27bd0020 	addiu	sp,sp,32

Disassembly of section .text.__wrap_sscanf:

9d00b884 <_dsscanf_eE>:
9d00b884:	27bdffe0 	addiu	sp,sp,-32
9d00b888:	afa60028 	sw	a2,40(sp)
9d00b88c:	27a60028 	addiu	a2,sp,40
9d00b890:	afbf001c 	sw	ra,28(sp)
9d00b894:	afa7002c 	sw	a3,44(sp)
9d00b898:	0f402af1 	jal	9d00abc4 <__vsscanf>
9d00b89c:	afa60010 	sw	a2,16(sp)
9d00b8a0:	8fbf001c 	lw	ra,28(sp)
9d00b8a4:	03e00008 	jr	ra
9d00b8a8:	27bd0020 	addiu	sp,sp,32

Disassembly of section .text.strtof:

9d00b8ac <strtof>:
9d00b8ac:	27bdffe8 	addiu	sp,sp,-24
9d00b8b0:	afbf0014 	sw	ra,20(sp)
9d00b8b4:	0f4027ae 	jal	9d009eb8 <strtox>
9d00b8b8:	00003025 	move	a2,zero
9d00b8bc:	00402025 	move	a0,v0
9d00b8c0:	0f4024dc 	jal	9d009370 <__truncdfsf2>
9d00b8c4:	00602825 	move	a1,v1
9d00b8c8:	8fbf0014 	lw	ra,20(sp)
9d00b8cc:	03e00008 	jr	ra
9d00b8d0:	27bd0018 	addiu	sp,sp,24

Disassembly of section .text.__vsprintf:

9d00b8d4 <__vsprintf>:
9d00b8d4:	00c03825 	move	a3,a2
9d00b8d8:	00a03025 	move	a2,a1
9d00b8dc:	3c057fff 	lui	a1,0x7fff
9d00b8e0:	27bdffe8 	addiu	sp,sp,-24
9d00b8e4:	afbf0014 	sw	ra,20(sp)
9d00b8e8:	0f402a01 	jal	9d00a804 <__vsnprintf>
9d00b8ec:	34a5ffff 	ori	a1,a1,0xffff
9d00b8f0:	8fbf0014 	lw	ra,20(sp)
9d00b8f4:	03e00008 	jr	ra
9d00b8f8:	27bd0018 	addiu	sp,sp,24

Disassembly of section .text.__fseeko:

9d00b8fc <__fseeko>:
9d00b8fc:	27bdffe0 	addiu	sp,sp,-32
9d00b900:	8fa20030 	lw	v0,48(sp)
9d00b904:	afbf001c 	sw	ra,28(sp)
9d00b908:	afa20010 	sw	v0,16(sp)
9d00b90c:	8c820030 	lw	v0,48(a0)
9d00b910:	0040f809 	jalr	v0
9d00b914:	00000000 	nop
9d00b918:	8fbf001c 	lw	ra,28(sp)
9d00b91c:	03e00008 	jr	ra
9d00b920:	27bd0020 	addiu	sp,sp,32

Disassembly of section .text.memset:

9d00b924 <memset>:
9d00b924:	00801025 	move	v0,a0
9d00b928:	00863021 	addu	a2,a0,a2
9d00b92c:	00801825 	move	v1,a0
9d00b930:	14660003 	bne	v1,a2,9d00b940 <memset+0x1c>
9d00b934:	24630001 	addiu	v1,v1,1
9d00b938:	03e00008 	jr	ra
9d00b93c:	00000000 	nop
9d00b940:	1000fffb 	b	9d00b930 <memset+0xc>
9d00b944:	a065ffff 	sb	a1,-1(v1)

Disassembly of section .text.isxdigit:

9d00b948 <isxdigit>:
9d00b948:	2483ffd0 	addiu	v1,a0,-48
9d00b94c:	2c63000a 	sltiu	v1,v1,10
9d00b950:	14600004 	bnez	v1,9d00b964 <isxdigit+0x1c>
9d00b954:	24020001 	li	v0,1
9d00b958:	34840020 	ori	a0,a0,0x20
9d00b95c:	2482ff9f 	addiu	v0,a0,-97
9d00b960:	2c420006 	sltiu	v0,v0,6
9d00b964:	03e00008 	jr	ra
9d00b968:	00000000 	nop

Disassembly of section .text.__syscall_ret:

9d00b96c <__syscall_ret>:
9d00b96c:	2c83f001 	sltiu	v1,a0,-4095
9d00b970:	14600005 	bnez	v1,9d00b988 <__syscall_ret+0x1c>
9d00b974:	00801025 	move	v0,a0
9d00b978:	00041023 	negu	v0,a0
9d00b97c:	3c03a000 	lui	v1,0xa000
9d00b980:	ac621c78 	sw	v0,7288(v1)
9d00b984:	2402ffff 	li	v0,-1
9d00b988:	03e00008 	jr	ra
9d00b98c:	00000000 	nop

Disassembly of section .text.__fwrite_min:

9d00b990 <__stdio_write>:
9d00b990:	8c840000 	lw	a0,0(a0)
9d00b994:	27bdffe8 	addiu	sp,sp,-24
9d00b998:	afbf0014 	sw	ra,20(sp)
9d00b99c:	0f4029bf 	jal	9d00a6fc <write>
9d00b9a0:	00000000 	nop
9d00b9a4:	8fbf0014 	lw	ra,20(sp)
9d00b9a8:	03e00008 	jr	ra
9d00b9ac:	27bd0018 	addiu	sp,sp,24

Disassembly of section .text.__sio_sscanf_f:

9d00b9b0 <__sio_sscanf_f>:
9d00b9b0:	27bdffe8 	addiu	sp,sp,-24
9d00b9b4:	afbf0014 	sw	ra,20(sp)
9d00b9b8:	0f401856 	jal	9d006158 <__scan_fp>
9d00b9bc:	00000000 	nop
9d00b9c0:	8fbf0014 	lw	ra,20(sp)
9d00b9c4:	03e00008 	jr	ra
9d00b9c8:	27bd0018 	addiu	sp,sp,24

Disassembly of section .text.strtod:

9d00b9cc <strtod>:
9d00b9cc:	27bdffe8 	addiu	sp,sp,-24
9d00b9d0:	afbf0014 	sw	ra,20(sp)
9d00b9d4:	0f4027ae 	jal	9d009eb8 <strtox>
9d00b9d8:	24060001 	li	a2,1
9d00b9dc:	8fbf0014 	lw	ra,20(sp)
9d00b9e0:	03e00008 	jr	ra
9d00b9e4:	27bd0018 	addiu	sp,sp,24

Disassembly of section .text.strtold:

9d00b9e8 <strtold>:
9d00b9e8:	27bdffe8 	addiu	sp,sp,-24
9d00b9ec:	afbf0014 	sw	ra,20(sp)
9d00b9f0:	0f4027ae 	jal	9d009eb8 <strtox>
9d00b9f4:	24060002 	li	a2,2
9d00b9f8:	8fbf0014 	lw	ra,20(sp)
9d00b9fc:	03e00008 	jr	ra
9d00ba00:	27bd0018 	addiu	sp,sp,24

Disassembly of section .text.__isxdigit_l:

9d00ba04 <__isxdigit_l>:
9d00ba04:	27bdffe8 	addiu	sp,sp,-24
9d00ba08:	afbf0014 	sw	ra,20(sp)
9d00ba0c:	0f402e52 	jal	9d00b948 <isxdigit>
9d00ba10:	00000000 	nop
9d00ba14:	8fbf0014 	lw	ra,20(sp)
9d00ba18:	03e00008 	jr	ra
9d00ba1c:	27bd0018 	addiu	sp,sp,24

Disassembly of section .text.tolower:

9d00ba20 <tolower>:
9d00ba20:	2483ffbf 	addiu	v1,a0,-65
9d00ba24:	2c63001a 	sltiu	v1,v1,26
9d00ba28:	10600002 	beqz	v1,9d00ba34 <tolower+0x14>
9d00ba2c:	00801025 	move	v0,a0
9d00ba30:	34820020 	ori	v0,a0,0x20
9d00ba34:	03e00008 	jr	ra
9d00ba38:	00000000 	nop

Disassembly of section .text.__tolower_l:

9d00ba3c <__tolower_l>:
9d00ba3c:	27bdffe8 	addiu	sp,sp,-24
9d00ba40:	afbf0014 	sw	ra,20(sp)
9d00ba44:	0f402e88 	jal	9d00ba20 <tolower>
9d00ba48:	00000000 	nop
9d00ba4c:	8fbf0014 	lw	ra,20(sp)
9d00ba50:	03e00008 	jr	ra
9d00ba54:	27bd0018 	addiu	sp,sp,24

Disassembly of section .text.toupper:

9d00ba58 <toupper>:
9d00ba58:	2483ff9f 	addiu	v1,a0,-97
9d00ba5c:	2c63001a 	sltiu	v1,v1,26
9d00ba60:	10600002 	beqz	v1,9d00ba6c <toupper+0x14>
9d00ba64:	00801025 	move	v0,a0
9d00ba68:	3082005f 	andi	v0,a0,0x5f
9d00ba6c:	03e00008 	jr	ra
9d00ba70:	00000000 	nop

Disassembly of section .text.__toupper_l:

9d00ba74 <__toupper_l>:
9d00ba74:	27bdffe8 	addiu	sp,sp,-24
9d00ba78:	afbf0014 	sw	ra,20(sp)
9d00ba7c:	0f402e96 	jal	9d00ba58 <toupper>
9d00ba80:	00000000 	nop
9d00ba84:	8fbf0014 	lw	ra,20(sp)
9d00ba88:	03e00008 	jr	ra
9d00ba8c:	27bd0018 	addiu	sp,sp,24

Disassembly of section .text.do_read:

9d00ba90 <do_read>:
9d00ba90:	27bdffe8 	addiu	sp,sp,-24
9d00ba94:	afbf0014 	sw	ra,20(sp)
9d00ba98:	0f402802 	jal	9d00a008 <__string_read>
9d00ba9c:	00000000 	nop
9d00baa0:	8fbf0014 	lw	ra,20(sp)
9d00baa4:	03e00008 	jr	ra
9d00baa8:	27bd0018 	addiu	sp,sp,24

Disassembly of section .text.__toread_needs_stdio_exit:

9d00baac <__toread_needs_stdio_exit>:
9d00baac:	27bdffe8 	addiu	sp,sp,-24
9d00bab0:	afbf0014 	sw	ra,20(sp)
9d00bab4:	0f402c6d 	jal	9d00b1b4 <__stdio_exit>
9d00bab8:	00000000 	nop
9d00babc:	8fbf0014 	lw	ra,20(sp)
9d00bac0:	03e00008 	jr	ra
9d00bac4:	27bd0018 	addiu	sp,sp,24

Disassembly of section .text.putc:

9d00bac8 <putc>:
9d00bac8:	27bdffe8 	addiu	sp,sp,-24
9d00bacc:	afbf0014 	sw	ra,20(sp)
9d00bad0:	0f402a9b 	jal	9d00aa6c <__putc>
9d00bad4:	00000000 	nop
9d00bad8:	8fbf0014 	lw	ra,20(sp)
9d00badc:	03e00008 	jr	ra
9d00bae0:	27bd0018 	addiu	sp,sp,24

Disassembly of section .text.__fopen:

9d00bae4 <__fopen>:
9d00bae4:	27bdffe8 	addiu	sp,sp,-24
9d00bae8:	afbf0014 	sw	ra,20(sp)
9d00baec:	0f40299d 	jal	9d00a674 <__fopen_rw>
9d00baf0:	00000000 	nop
9d00baf4:	8fbf0014 	lw	ra,20(sp)
9d00baf8:	03e00008 	jr	ra
9d00bafc:	27bd0018 	addiu	sp,sp,24

Disassembly of section .text.__ftello_adj:

9d00bb00 <__ftello_adj>:
9d00bb00:	27bdffe8 	addiu	sp,sp,-24
9d00bb04:	afbf0014 	sw	ra,20(sp)
9d00bb08:	0f402c32 	jal	9d00b0c8 <__ftello_adj_rw>
9d00bb0c:	00000000 	nop
9d00bb10:	8fbf0014 	lw	ra,20(sp)
9d00bb14:	03e00008 	jr	ra
9d00bb18:	27bd0018 	addiu	sp,sp,24

Disassembly of section .text.__read:

9d00bb1c <__read>:
9d00bb1c:	27bdffe8 	addiu	sp,sp,-24
9d00bb20:	afbf0014 	sw	ra,20(sp)
9d00bb24:	0f402e5b 	jal	9d00b96c <__syscall_ret>
9d00bb28:	2404fff7 	li	a0,-9
9d00bb2c:	8fbf0014 	lw	ra,20(sp)
9d00bb30:	03e00008 	jr	ra
9d00bb34:	27bd0018 	addiu	sp,sp,24

Disassembly of section .text.logb:

9d00bb38 <logb>:
9d00bb38:	27bdffe8 	addiu	sp,sp,-24
9d00bb3c:	afbf0014 	sw	ra,20(sp)
9d00bb40:	0f40240d 	jal	9d009034 <logbl>
9d00bb44:	00000000 	nop
9d00bb48:	8fbf0014 	lw	ra,20(sp)
9d00bb4c:	03e00008 	jr	ra
9d00bb50:	27bd0018 	addiu	sp,sp,24

Disassembly of section .text.drem:

9d00bb54 <drem>:
9d00bb54:	27bdffe8 	addiu	sp,sp,-24
9d00bb58:	afbf0014 	sw	ra,20(sp)
9d00bb5c:	0f401413 	jal	9d00504c <dreml>
9d00bb60:	00000000 	nop
9d00bb64:	8fbf0014 	lw	ra,20(sp)
9d00bb68:	03e00008 	jr	ra
9d00bb6c:	27bd0018 	addiu	sp,sp,24

Disassembly of section .text.fabsl:

9d00bb70 <fabsl>:
9d00bb70:	27bdffe8 	addiu	sp,sp,-24
9d00bb74:	afbf0014 	sw	ra,20(sp)
9d00bb78:	0f402f0c 	jal	9d00bc30 <fabs>
9d00bb7c:	00000000 	nop
9d00bb80:	8fbf0014 	lw	ra,20(sp)
9d00bb84:	03e00008 	jr	ra
9d00bb88:	27bd0018 	addiu	sp,sp,24

Disassembly of section .text.scalbnl:

9d00bb8c <scalbnl>:
9d00bb8c:	27bdffe8 	addiu	sp,sp,-24
9d00bb90:	afbf0014 	sw	ra,20(sp)
9d00bb94:	0f40255b 	jal	9d00956c <scalbn>
9d00bb98:	00000000 	nop
9d00bb9c:	8fbf0014 	lw	ra,20(sp)
9d00bba0:	03e00008 	jr	ra
9d00bba4:	27bd0018 	addiu	sp,sp,24

Disassembly of section .text:

9d00bbc0 <_nmi_handler>:
9d00bbc0:	401a6000 	mfc0	k0,c0_status
9d00bbc4:	3c1bffbf 	lui	k1,0xffbf
9d00bbc8:	377bffff 	ori	k1,k1,0xffff
9d00bbcc:	035bd024 	and	k0,k0,k1
9d00bbd0:	409a6000 	mtc0	k0,c0_status
9d00bbd4:	42000018 	eret

Disassembly of section .rodata:

9d00bbd8 <state_table>:
9d00bbd8:	096c0768 906a834c c07aa074 88688000     h.l.L.j.t.z...h.
9d00bbe8:	826c8400 00008100                       ..l.....

Disassembly of section .text.strlen:

9d00bbf0 <strlen>:
9d00bbf0:	00801025 	move	v0,a0
9d00bbf4:	80430000 	lb	v1,0(v0)
9d00bbf8:	5460fffe 	bnezl	v1,9d00bbf4 <strlen+0x4>
9d00bbfc:	24420001 	addiu	v0,v0,1
9d00bc00:	03e00008 	jr	ra
9d00bc04:	00441023 	subu	v0,v0,a0

Disassembly of section .text.finitel:

9d00bc08 <finitel>:
9d00bc08:	00051403 	sra	v0,a1,0x10
9d00bc0c:	30427ff0 	andi	v0,v0,0x7ff0
9d00bc10:	38427ff0 	xori	v0,v0,0x7ff0
9d00bc14:	03e00008 	jr	ra
9d00bc18:	0002102b 	sltu	v0,zero,v0

Disassembly of section .text.finite:

9d00bc1c <finite>:
9d00bc1c:	00051403 	sra	v0,a1,0x10
9d00bc20:	30427ff0 	andi	v0,v0,0x7ff0
9d00bc24:	38427ff0 	xori	v0,v0,0x7ff0
9d00bc28:	03e00008 	jr	ra
9d00bc2c:	0002102b 	sltu	v0,zero,v0

Disassembly of section .text.fabs:

9d00bc30 <fabs>:
9d00bc30:	7ca6f000 	ext	a2,a1,0x0,0x1f
9d00bc34:	00801025 	move	v0,a0
9d00bc38:	03e00008 	jr	ra
9d00bc3c:	00c01825 	move	v1,a2

Disassembly of section .text.__get_stderr:

9d00bc40 <__get_stderr>:
9d00bc40:	3c02a000 	lui	v0,0xa000
9d00bc44:	03e00008 	jr	ra
9d00bc48:	24421b30 	addiu	v0,v0,6960

Disassembly of section .text.__get_stdout:

9d00bc4c <__get_stdout>:
9d00bc4c:	3c02a000 	lui	v0,0xa000
9d00bc50:	03e00008 	jr	ra
9d00bc54:	24421b98 	addiu	v0,v0,7064

Disassembly of section .text.__dummy:

9d00bc58 <__dummy>:
9d00bc58:	00001025 	move	v0,zero
9d00bc5c:	03e00008 	jr	ra
9d00bc60:	00001825 	move	v1,zero

Disassembly of section .text._on_reset:

9d00bc64 <_on_reset>:
9d00bc64:	03e00008 	jr	ra
9d00bc68:	00000000 	nop

Disassembly of section .text._on_bootstrap:

9d00bc6c <_on_bootstrap>:
9d00bc6c:	03e00008 	jr	ra
9d00bc70:	00000000 	nop

Disassembly of section .text.__dummy_fmt3:

9d00bc74 <__dummy_fmt3>:
9d00bc74:	03e00008 	jr	ra
9d00bc78:	00001025 	move	v0,zero

Disassembly of section .text.__dummy_fmt4:

9d00bc7c <__fmt_a>:
9d00bc7c:	03e00008 	jr	ra
9d00bc80:	00001025 	move	v0,zero

Disassembly of section .text.__dummy_fmts:

9d00bc84 <__dummy_fmts>:
9d00bc84:	03e00008 	jr	ra
9d00bc88:	00001025 	move	v0,zero

Disassembly of section .text.__dummy_scan:

9d00bc8c <__scan_a>:
9d00bc8c:	03e00008 	jr	ra
9d00bc90:	00001025 	move	v0,zero

Disassembly of section .text.__dummy_scan_s:

9d00bc94 <__scan_s>:
9d00bc94:	03e00008 	jr	ra
9d00bc98:	00001025 	move	v0,zero

Disassembly of section .text.__dummy:

9d00bc9c <__dummy>:
9d00bc9c:	03e00008 	jr	ra
9d00bca0:	00000000 	nop

9d00bca4 <__stdio_exit_ofl>:
9d00bca4:	03e00008 	jr	ra
9d00bca8:	00000000 	nop

Disassembly of section .text.__dummy1:

9d00bcac <__dummy1>:
9d00bcac:	03e00008 	jr	ra
9d00bcb0:	00001025 	move	v0,zero

Disassembly of section .text.__dummy:

9d00bcb4 <__dummy>:
9d00bcb4:	03e00008 	jr	ra
9d00bcb8:	00000000 	nop

9d00bcbc <__dummy>:
9d00bcbc:	03e00008 	jr	ra
9d00bcc0:	00001025 	move	v0,zero

Disassembly of section .text.__dummy:

9d00bcc4 <__init_stderr>:
9d00bcc4:	03e00008 	jr	ra
9d00bcc8:	00000000 	nop

Disassembly of section .text.getpagesize:

9d00bccc <getpagesize>:
9d00bccc:	03e00008 	jr	ra
9d00bcd0:	24020080 	li	v0,128

Disassembly of section .text.lseek:

9d00bcd4 <lseek>:
9d00bcd4:	03e00008 	jr	ra
9d00bcd8:	00001025 	move	v0,zero

Disassembly of section .text.close:

9d00bcdc <close>:
9d00bcdc:	03e00008 	jr	ra
9d00bce0:	00001025 	move	v0,zero
