
out.elf:     file format elf32-tradlittlemips


Disassembly of section .config_BFC02FF0:

bfc02ff0 <__config_BFC02FF0>:
bfc02ff0:	ff ff fe fa                                         ....

Disassembly of section .config_BFC02FF4:

bfc02ff4 <__config_BFC02FF4>:
bfc02ff4:	d9 79 f8 ff                                         .y..

Disassembly of section .config_BFC02FF8:

bfc02ff8 <__config_BFC02FF8>:
bfc02ff8:	db ce 6c ff                                         ..l.

Disassembly of section .config_BFC02FFC:

bfc02ffc <__config_BFC02FFC>:
bfc02ffc:	ff ff ff 7e                                         ...~

Disassembly of section .reset:

bd001970 <_reset>:
bd001970:	0f40065e 	jal	bd001978 <_startup>
bd001974:	00000000 	nop

bd001978 <_startup>:
bd001978:	401a6000 	mfc0	k0,c0_status
bd00197c:	7f5a04c0 	ext	k0,k0,0x13,0x1
bd001980:	13400005 	beqz	k0,bd001998 <_no_nmi>
bd001984:	00000000 	nop
bd001988:	3c1a9d00 	lui	k0,0x9d00
bd00198c:	275a40c8 	addiu	k0,k0,16584
bd001990:	03400008 	jr	k0
bd001994:	00000000 	nop

bd001998 <_no_nmi>:
bd001998:	3c1da002 	lui	sp,0xa002
bd00199c:	27bdfff0 	addiu	sp,sp,-16
bd0019a0:	3c1ca000 	lui	gp,0xa000
bd0019a4:	279c7ff0 	addiu	gp,gp,32752
bd0019a8:	40096002 	mfc0	t1,c0_srsctl
bd0019ac:	01205820 	add	t3,t1,zero
bd0019b0:	7d2a1e80 	ext	t2,t1,0x1a,0x4
bd0019b4:	7d494984 	ins	t1,t2,0x6,0x4
bd0019b8:	40896002 	mtc0	t1,c0_srsctl
bd0019bc:	000000c0 	ehb
bd0019c0:	41dce000 	wrpgpr	gp,gp
bd0019c4:	408b6002 	mtc0	t3,c0_srsctl
bd0019c8:	000000c0 	ehb
bd0019cc:	3c089d00 	lui	t0,0x9d00
bd0019d0:	25084110 	addiu	t0,t0,16656
bd0019d4:	0100f809 	jalr	t0
bd0019d8:	00000000 	nop

bd0019dc <_start_bss_init>:
bd0019dc:	3c08a000 	lui	t0,0xa000
bd0019e0:	25080000 	addiu	t0,t0,0
bd0019e4:	3c09a000 	lui	t1,0xa000
bd0019e8:	25290008 	addiu	t1,t1,8
bd0019ec:	10000003 	b	bd0019fc <_bss_check>
bd0019f0:	00000000 	nop

bd0019f4 <_bss_init>:
bd0019f4:	ad000000 	sw	zero,0(t0)
bd0019f8:	25080004 	addiu	t0,t0,4

bd0019fc <_bss_check>:
bd0019fc:	0109082b 	sltu	at,t0,t1
bd001a00:	1420fffc 	bnez	at,bd0019f4 <_bss_init>
bd001a04:	00000000 	nop
bd001a08:	3c089d00 	lui	t0,0x9d00
bd001a0c:	25083b00 	addiu	t0,t0,15104
bd001a10:	0100f809 	jalr	t0
bd001a14:	00000000 	nop
bd001a18:	3c090000 	lui	t1,0x0
bd001a1c:	25290000 	addiu	t1,t1,0
bd001a20:	11200010 	beqz	t1,bd001a64 <_ramfunc_done>
bd001a24:	00000000 	nop
bd001a28:	3c090002 	lui	t1,0x2
bd001a2c:	25290000 	addiu	t1,t1,0
bd001a30:	3c0abf88 	lui	t2,0xbf88
bd001a34:	254a2010 	addiu	t2,t2,8208
bd001a38:	ad490000 	sw	t1,0(t2)
bd001a3c:	3c090002 	lui	t1,0x2
bd001a40:	25290000 	addiu	t1,t1,0
bd001a44:	3c0abf88 	lui	t2,0xbf88
bd001a48:	254a2020 	addiu	t2,t2,8224
bd001a4c:	ad490000 	sw	t1,0(t2)
bd001a50:	3c090002 	lui	t1,0x2
bd001a54:	25290000 	addiu	t1,t1,0
bd001a58:	3c0abf88 	lui	t2,0xbf88
bd001a5c:	254a2030 	addiu	t2,t2,8240
bd001a60:	ad490000 	sw	t1,0(t2)

bd001a64 <_ramfunc_done>:
bd001a64:	40804800 	mtc0	zero,c0_count
bd001a68:	240affff 	li	t2,-1
bd001a6c:	408a5800 	mtc0	t2,c0_compare
bd001a70:	3c080040 	lui	t0,0x40
bd001a74:	400a6000 	mfc0	t2,c0_status
bd001a78:	010a5025 	or	t2,t0,t2
bd001a7c:	408a6000 	mtc0	t2,c0_status
bd001a80:	3c099d00 	lui	t1,0x9d00
bd001a84:	25290000 	addiu	t1,t1,0
bd001a88:	000000c0 	ehb
bd001a8c:	40897801 	mtc0	t1,c0_ebase
bd001a90:	3c090000 	lui	t1,0x0
bd001a94:	25290001 	addiu	t1,t1,1
bd001a98:	240a0000 	li	t2,0
bd001a9c:	7d2a4944 	ins	t2,t1,0x5,0x5
bd001aa0:	408a6001 	mtc0	t2,c0_intctl
bd001aa4:	3c090080 	lui	t1,0x80
bd001aa8:	40896800 	mtc0	t1,c0_cause
bd001aac:	40088000 	mfc0	t0,c0_config
bd001ab0:	7d090580 	ext	t1,t0,0x16,0x1
bd001ab4:	00094c40 	sll	t1,t1,0x11
bd001ab8:	40086000 	mfc0	t0,c0_status
bd001abc:	3c010058 	lui	at,0x58
bd001ac0:	01014024 	and	t0,t0,at
bd001ac4:	01284025 	or	t0,t1,t0
bd001ac8:	40886000 	mtc0	t0,c0_status
bd001acc:	000000c0 	ehb
bd001ad0:	3c089d00 	lui	t0,0x9d00
bd001ad4:	25084118 	addiu	t0,t0,16664
bd001ad8:	0100f809 	jalr	t0
bd001adc:	00000000 	nop
bd001ae0:	40086000 	mfc0	t0,c0_status
bd001ae4:	3c01ffbf 	lui	at,0xffbf
bd001ae8:	3421ffff 	ori	at,at,0xffff
bd001aec:	01014024 	and	t0,t0,at
bd001af0:	40886000 	mtc0	t0,c0_status
bd001af4:	30840000 	andi	a0,a0,0x0
bd001af8:	30a50000 	andi	a1,a1,0x0
bd001afc:	3c089d00 	lui	t0,0x9d00
bd001b00:	25083d44 	addiu	t0,t0,15684
bd001b04:	01000008 	jr	t0
bd001b08:	00000000 	nop

Disassembly of section .bev_excpt:

bd001cf0 <_bev_exception>:
bd001cf0:	3c1a9d00 	lui	k0,0x9d00
bd001cf4:	275a3de8 	addiu	k0,k0,15848
bd001cf8:	03400008 	jr	k0
bd001cfc:	00000000 	nop

Disassembly of section .app_excpt:

9d000180 <_gen_exception>:
9d000180:	3c1a9d00 	lui	k0,0x9d00
9d000184:	275a38c0 	addiu	k0,k0,14528
9d000188:	03400008 	jr	k0
9d00018c:	00000000 	nop

Disassembly of section .vector_0:

9d000200 <__vector_dispatch_0>:
9d000200:	0b400f9e 	j	9d003e78 <_DefaultInterrupt>
9d000204:	00000000 	nop

Disassembly of section .vector_1:

9d000220 <__vector_dispatch_1>:
9d000220:	0b400f9e 	j	9d003e78 <_DefaultInterrupt>
9d000224:	00000000 	nop

Disassembly of section .vector_2:

9d000240 <__vector_dispatch_2>:
9d000240:	0b400f9e 	j	9d003e78 <_DefaultInterrupt>
9d000244:	00000000 	nop

Disassembly of section .vector_3:

9d000260 <__vector_dispatch_3>:
9d000260:	0b400ae3 	j	9d002b8c <Ext0ISR>
9d000264:	00000000 	nop

Disassembly of section .vector_4:

9d000280 <__vector_dispatch_4>:
9d000280:	0b400f9e 	j	9d003e78 <_DefaultInterrupt>
9d000284:	00000000 	nop

Disassembly of section .vector_5:

9d0002a0 <__vector_dispatch_5>:
9d0002a0:	0b400f9e 	j	9d003e78 <_DefaultInterrupt>
9d0002a4:	00000000 	nop

Disassembly of section .vector_6:

9d0002c0 <__vector_dispatch_6>:
9d0002c0:	0b400f9e 	j	9d003e78 <_DefaultInterrupt>
9d0002c4:	00000000 	nop

Disassembly of section .vector_7:

9d0002e0 <__vector_dispatch_7>:
9d0002e0:	0b400f9e 	j	9d003e78 <_DefaultInterrupt>
9d0002e4:	00000000 	nop

Disassembly of section .vector_8:

9d000300 <__vector_dispatch_8>:
9d000300:	0b400f9e 	j	9d003e78 <_DefaultInterrupt>
9d000304:	00000000 	nop

Disassembly of section .vector_9:

9d000320 <__vector_dispatch_9>:
9d000320:	0b400f9e 	j	9d003e78 <_DefaultInterrupt>
9d000324:	00000000 	nop

Disassembly of section .vector_10:

9d000340 <__vector_dispatch_10>:
9d000340:	0b400f9e 	j	9d003e78 <_DefaultInterrupt>
9d000344:	00000000 	nop

Disassembly of section .vector_11:

9d000360 <__vector_dispatch_11>:
9d000360:	0b400f9e 	j	9d003e78 <_DefaultInterrupt>
9d000364:	00000000 	nop

Disassembly of section .vector_12:

9d000380 <__vector_dispatch_12>:
9d000380:	0b400f9e 	j	9d003e78 <_DefaultInterrupt>
9d000384:	00000000 	nop

Disassembly of section .vector_13:

9d0003a0 <__vector_dispatch_13>:
9d0003a0:	0b400f9e 	j	9d003e78 <_DefaultInterrupt>
9d0003a4:	00000000 	nop

Disassembly of section .vector_14:

9d0003c0 <__vector_dispatch_14>:
9d0003c0:	0b400f9e 	j	9d003e78 <_DefaultInterrupt>
9d0003c4:	00000000 	nop

Disassembly of section .vector_15:

9d0003e0 <__vector_dispatch_15>:
9d0003e0:	0b400f9e 	j	9d003e78 <_DefaultInterrupt>
9d0003e4:	00000000 	nop

Disassembly of section .vector_16:

9d000400 <__vector_dispatch_16>:
9d000400:	0b400f9e 	j	9d003e78 <_DefaultInterrupt>
9d000404:	00000000 	nop

Disassembly of section .vector_17:

9d000420 <__vector_dispatch_17>:
9d000420:	0b400f9e 	j	9d003e78 <_DefaultInterrupt>
9d000424:	00000000 	nop

Disassembly of section .vector_18:

9d000440 <__vector_dispatch_18>:
9d000440:	0b400f9e 	j	9d003e78 <_DefaultInterrupt>
9d000444:	00000000 	nop

Disassembly of section .vector_19:

9d000460 <__vector_dispatch_19>:
9d000460:	0b400f9e 	j	9d003e78 <_DefaultInterrupt>
9d000464:	00000000 	nop

Disassembly of section .vector_20:

9d000480 <__vector_dispatch_20>:
9d000480:	0b400f9e 	j	9d003e78 <_DefaultInterrupt>
9d000484:	00000000 	nop

Disassembly of section .vector_21:

9d0004a0 <__vector_dispatch_21>:
9d0004a0:	0b400f9e 	j	9d003e78 <_DefaultInterrupt>
9d0004a4:	00000000 	nop

Disassembly of section .vector_22:

9d0004c0 <__vector_dispatch_22>:
9d0004c0:	0b400f9e 	j	9d003e78 <_DefaultInterrupt>
9d0004c4:	00000000 	nop

Disassembly of section .vector_23:

9d0004e0 <__vector_dispatch_23>:
9d0004e0:	0b400f9e 	j	9d003e78 <_DefaultInterrupt>
9d0004e4:	00000000 	nop

Disassembly of section .vector_24:

9d000500 <__vector_dispatch_24>:
9d000500:	0b400f9e 	j	9d003e78 <_DefaultInterrupt>
9d000504:	00000000 	nop

Disassembly of section .vector_25:

9d000520 <__vector_dispatch_25>:
9d000520:	0b400f9e 	j	9d003e78 <_DefaultInterrupt>
9d000524:	00000000 	nop

Disassembly of section .vector_26:

9d000540 <__vector_dispatch_26>:
9d000540:	0b400f9e 	j	9d003e78 <_DefaultInterrupt>
9d000544:	00000000 	nop

Disassembly of section .vector_27:

9d000560 <__vector_dispatch_27>:
9d000560:	0b400f9e 	j	9d003e78 <_DefaultInterrupt>
9d000564:	00000000 	nop

Disassembly of section .vector_28:

9d000580 <__vector_dispatch_28>:
9d000580:	0b400f9e 	j	9d003e78 <_DefaultInterrupt>
9d000584:	00000000 	nop

Disassembly of section .vector_29:

9d0005a0 <__vector_dispatch_29>:
9d0005a0:	0b400f9e 	j	9d003e78 <_DefaultInterrupt>
9d0005a4:	00000000 	nop

Disassembly of section .vector_30:

9d0005c0 <__vector_dispatch_30>:
9d0005c0:	0b400f9e 	j	9d003e78 <_DefaultInterrupt>
9d0005c4:	00000000 	nop

Disassembly of section .vector_31:

9d0005e0 <__vector_dispatch_31>:
9d0005e0:	0b400f9e 	j	9d003e78 <_DefaultInterrupt>
9d0005e4:	00000000 	nop

Disassembly of section .vector_32:

9d000600 <__vector_dispatch_32>:
9d000600:	0b400f9e 	j	9d003e78 <_DefaultInterrupt>
9d000604:	00000000 	nop

Disassembly of section .vector_33:

9d000620 <__vector_dispatch_33>:
9d000620:	0b400f9e 	j	9d003e78 <_DefaultInterrupt>
9d000624:	00000000 	nop

Disassembly of section .vector_34:

9d000640 <__vector_dispatch_34>:
9d000640:	0b400f9e 	j	9d003e78 <_DefaultInterrupt>
9d000644:	00000000 	nop

Disassembly of section .vector_35:

9d000660 <__vector_dispatch_35>:
9d000660:	0b400f9e 	j	9d003e78 <_DefaultInterrupt>
9d000664:	00000000 	nop

Disassembly of section .vector_36:

9d000680 <__vector_dispatch_36>:
9d000680:	0b400f9e 	j	9d003e78 <_DefaultInterrupt>
9d000684:	00000000 	nop

Disassembly of section .vector_37:

9d0006a0 <__vector_dispatch_37>:
9d0006a0:	0b400f9e 	j	9d003e78 <_DefaultInterrupt>
9d0006a4:	00000000 	nop

Disassembly of section .vector_38:

9d0006c0 <__vector_dispatch_38>:
9d0006c0:	0b400f9e 	j	9d003e78 <_DefaultInterrupt>
9d0006c4:	00000000 	nop

Disassembly of section .vector_39:

9d0006e0 <__vector_dispatch_39>:
9d0006e0:	0b400f9e 	j	9d003e78 <_DefaultInterrupt>
9d0006e4:	00000000 	nop

Disassembly of section .vector_40:

9d000700 <__vector_dispatch_40>:
9d000700:	0b400f9e 	j	9d003e78 <_DefaultInterrupt>
9d000704:	00000000 	nop

Disassembly of section .vector_41:

9d000720 <__vector_dispatch_41>:
9d000720:	0b400f9e 	j	9d003e78 <_DefaultInterrupt>
9d000724:	00000000 	nop

Disassembly of section .vector_42:

9d000740 <__vector_dispatch_42>:
9d000740:	0b400f9e 	j	9d003e78 <_DefaultInterrupt>
9d000744:	00000000 	nop

Disassembly of section .vector_43:

9d000760 <__vector_dispatch_43>:
9d000760:	0b400f9e 	j	9d003e78 <_DefaultInterrupt>
9d000764:	00000000 	nop

Disassembly of section .vector_44:

9d000780 <__vector_dispatch_44>:
9d000780:	0b400f9e 	j	9d003e78 <_DefaultInterrupt>
9d000784:	00000000 	nop

Disassembly of section .vector_45:

9d0007a0 <__vector_dispatch_45>:
9d0007a0:	0b400f9e 	j	9d003e78 <_DefaultInterrupt>
9d0007a4:	00000000 	nop

Disassembly of section .vector_46:

9d0007c0 <__vector_dispatch_46>:
9d0007c0:	0b400f9e 	j	9d003e78 <_DefaultInterrupt>
9d0007c4:	00000000 	nop

Disassembly of section .vector_47:

9d0007e0 <__vector_dispatch_47>:
9d0007e0:	0b400f9e 	j	9d003e78 <_DefaultInterrupt>
9d0007e4:	00000000 	nop

Disassembly of section .vector_48:

9d000800 <__vector_dispatch_48>:
9d000800:	0b400f9e 	j	9d003e78 <_DefaultInterrupt>
9d000804:	00000000 	nop

Disassembly of section .vector_49:

9d000820 <__vector_dispatch_49>:
9d000820:	0b400f9e 	j	9d003e78 <_DefaultInterrupt>
9d000824:	00000000 	nop

Disassembly of section .vector_50:

9d000840 <__vector_dispatch_50>:
9d000840:	0b400f9e 	j	9d003e78 <_DefaultInterrupt>
9d000844:	00000000 	nop

Disassembly of section .vector_51:

9d000860 <__vector_dispatch_51>:
9d000860:	0b400f9e 	j	9d003e78 <_DefaultInterrupt>
9d000864:	00000000 	nop

Disassembly of section .rodata:

9d001e00 <.rodata>:
9d001e00:	68737570 	0x68737570
9d001e04:	25206465 	addiu	zero,t1,25701
9d001e08:	00092164 	0x92164
9d001e0c:	74617473 	jalx	9185d1cc <_bmxdudba_address+0x9183d1cc>
9d001e10:	25203d65 	addiu	zero,t1,15717
9d001e14:	000a0d64 	0xa0d64
9d001e18:	6c696e28 	0x6c696e28
9d001e1c:	00000029 	0x29

Disassembly of section ._debug_exception:

bfc00480 <__DbgExecReturn>:
bfc00480:	409bf800 	mtc0	k1,c0_desave
bfc00484:	000000c0 	ehb
bfc00488:	3c1b9d00 	lui	k1,0x9d00
bfc0048c:	277b3ec0 	addiu	k1,k1,16064
bfc00490:	13600002 	beqz	k1,bfc0049c <__DbgExecReturn+0x1c>
bfc00494:	00000000 	nop
bfc00498:	409bc000 	mtc0	k1,c0_depc
bfc0049c:	401bf800 	mfc0	k1,c0_desave
bfc004a0:	000000c0 	ehb
bfc004a4:	4200001f 	deret
bfc004a8:	00000000 	nop

Disassembly of section .text.__printf_core:

9d001e20 <__printf_core>:
9d001e20:	27bdff18 	addiu	sp,sp,-232
9d001e24:	afb500d8 	sw	s5,216(sp)
9d001e28:	3c159d00 	lui	s5,0x9d00
9d001e2c:	afb600dc 	sw	s6,220(sp)
9d001e30:	afb400d4 	sw	s4,212(sp)
9d001e34:	afb300d0 	sw	s3,208(sp)
9d001e38:	afb200cc 	sw	s2,204(sp)
9d001e3c:	afb100c8 	sw	s1,200(sp)
9d001e40:	afbf00e4 	sw	ra,228(sp)
9d001e44:	afb700e0 	sw	s7,224(sp)
9d001e48:	afb000c4 	sw	s0,196(sp)
9d001e4c:	00809025 	move	s2,a0
9d001e50:	00c08825 	move	s1,a2
9d001e54:	afa500b0 	sw	a1,176(sp)
9d001e58:	00009825 	move	s3,zero
9d001e5c:	27b60010 	addiu	s6,sp,16
9d001e60:	24140025 	li	s4,37
9d001e64:	26b51e18 	addiu	s5,s5,7704
9d001e68:	8fa500b0 	lw	a1,176(sp)
9d001e6c:	80a20000 	lb	v0,0(a1)
9d001e70:	104000e5 	beqz	v0,9d002208 <__printf_core+0x3e8>
9d001e74:	2402ffff 	li	v0,-1
9d001e78:	afa20094 	sw	v0,148(sp)
9d001e7c:	24020080 	li	v0,128
9d001e80:	afa00090 	sw	zero,144(sp)
9d001e84:	afa00098 	sw	zero,152(sp)
9d001e88:	afb6009c 	sw	s6,156(sp)
9d001e8c:	afa200a0 	sw	v0,160(sp)
9d001e90:	00008025 	move	s0,zero
9d001e94:	00b01021 	addu	v0,a1,s0
9d001e98:	80420000 	lb	v0,0(v0)
9d001e9c:	10400003 	beqz	v0,9d001eac <__printf_core+0x8c>
9d001ea0:	00000000 	nop
9d001ea4:	5454fffb 	bnel	v0,s4,9d001e94 <__printf_core+0x74>
9d001ea8:	26100001 	addiu	s0,s0,1
9d001eac:	12000008 	beqz	s0,9d001ed0 <__printf_core+0xb0>
9d001eb0:	8fb700b0 	lw	s7,176(sp)
9d001eb4:	02003025 	move	a2,s0
9d001eb8:	0f400f23 	jal	9d003c8c <__out>
9d001ebc:	02402025 	move	a0,s2
9d001ec0:	8fa200b0 	lw	v0,176(sp)
9d001ec4:	00501021 	addu	v0,v0,s0
9d001ec8:	afa200b0 	sw	v0,176(sp)
9d001ecc:	8fb700b0 	lw	s7,176(sp)
9d001ed0:	82e20000 	lb	v0,0(s7)
9d001ed4:	545400c5 	bnel	v0,s4,9d0021ec <__printf_core+0x3cc>
9d001ed8:	02708021 	addu	s0,s3,s0
9d001edc:	26f70001 	addiu	s7,s7,1
9d001ee0:	afb700b0 	sw	s7,176(sp)
9d001ee4:	2405002b 	li	a1,43
9d001ee8:	2406002d 	li	a2,45
9d001eec:	24030030 	li	v1,48
9d001ef0:	24070020 	li	a3,32
9d001ef4:	24080023 	li	t0,35
9d001ef8:	8fa400b0 	lw	a0,176(sp)
9d001efc:	80820000 	lb	v0,0(a0)
9d001f00:	5045001b 	beql	v0,a1,9d001f70 <__printf_core+0x150>
9d001f04:	8fa20090 	lw	v0,144(sp)
9d001f08:	2849002c 	slti	t1,v0,44
9d001f0c:	1120001e 	beqz	t1,9d001f88 <__printf_core+0x168>
9d001f10:	00000000 	nop
9d001f14:	50470018 	beql	v0,a3,9d001f78 <__printf_core+0x158>
9d001f18:	8fa20090 	lw	v0,144(sp)
9d001f1c:	50480018 	beql	v0,t0,9d001f80 <__printf_core+0x160>
9d001f20:	8fa20090 	lw	v0,144(sp)
9d001f24:	2403002a 	li	v1,42
9d001f28:	5043001e 	beql	v0,v1,9d001fa4 <__printf_core+0x184>
9d001f2c:	8e220000 	lw	v0,0(s1)
9d001f30:	0f400ee3 	jal	9d003b8c <atoi>
9d001f34:	00000000 	nop
9d001f38:	afa20098 	sw	v0,152(sp)
9d001f3c:	8fa300b0 	lw	v1,176(sp)
9d001f40:	80620000 	lb	v0,0(v1)
9d001f44:	2442ffd0 	addiu	v0,v0,-48
9d001f48:	2c42000a 	sltiu	v0,v0,10
9d001f4c:	10400021 	beqz	v0,9d001fd4 <__printf_core+0x1b4>
9d001f50:	24630001 	addiu	v1,v1,1
9d001f54:	1000fff9 	b	9d001f3c <__printf_core+0x11c>
9d001f58:	afa300b0 	sw	v1,176(sp)
9d001f5c:	34420001 	ori	v0,v0,0x1
9d001f60:	24840001 	addiu	a0,a0,1
9d001f64:	afa20090 	sw	v0,144(sp)
9d001f68:	1000ffe3 	b	9d001ef8 <__printf_core+0xd8>
9d001f6c:	afa400b0 	sw	a0,176(sp)
9d001f70:	1000fffb 	b	9d001f60 <__printf_core+0x140>
9d001f74:	34420004 	ori	v0,v0,0x4
9d001f78:	1000fff9 	b	9d001f60 <__printf_core+0x140>
9d001f7c:	34420008 	ori	v0,v0,0x8
9d001f80:	1000fff7 	b	9d001f60 <__printf_core+0x140>
9d001f84:	34420010 	ori	v0,v0,0x10
9d001f88:	5046fff4 	beql	v0,a2,9d001f5c <__printf_core+0x13c>
9d001f8c:	8fa20090 	lw	v0,144(sp)
9d001f90:	5443ffe5 	bnel	v0,v1,9d001f28 <__printf_core+0x108>
9d001f94:	2403002a 	li	v1,42
9d001f98:	8fa20090 	lw	v0,144(sp)
9d001f9c:	1000fff0 	b	9d001f60 <__printf_core+0x140>
9d001fa0:	34420002 	ori	v0,v0,0x2
9d001fa4:	24840001 	addiu	a0,a0,1
9d001fa8:	afa400b0 	sw	a0,176(sp)
9d001fac:	24430004 	addiu	v1,v0,4
9d001fb0:	8c420000 	lw	v0,0(v0)
9d001fb4:	ae230000 	sw	v1,0(s1)
9d001fb8:	04410006 	bgez	v0,9d001fd4 <__printf_core+0x1b4>
9d001fbc:	afa20098 	sw	v0,152(sp)
9d001fc0:	8fa30090 	lw	v1,144(sp)
9d001fc4:	00021023 	negu	v0,v0
9d001fc8:	afa20098 	sw	v0,152(sp)
9d001fcc:	38630001 	xori	v1,v1,0x1
9d001fd0:	afa30090 	sw	v1,144(sp)
9d001fd4:	8fa20090 	lw	v0,144(sp)
9d001fd8:	30430001 	andi	v1,v0,0x1
9d001fdc:	50600004 	beqzl	v1,9d001ff0 <__printf_core+0x1d0>
9d001fe0:	8fa200b0 	lw	v0,176(sp)
9d001fe4:	7c020844 	ins	v0,zero,0x1,0x1
9d001fe8:	afa20090 	sw	v0,144(sp)
9d001fec:	8fa200b0 	lw	v0,176(sp)
9d001ff0:	2403002e 	li	v1,46
9d001ff4:	80440000 	lb	a0,0(v0)
9d001ff8:	1483000d 	bne	a0,v1,9d002030 <__printf_core+0x210>
9d001ffc:	24440001 	addiu	a0,v0,1
9d002000:	afa00094 	sw	zero,148(sp)
9d002004:	afa400b0 	sw	a0,176(sp)
9d002008:	80450001 	lb	a1,1(v0)
9d00200c:	2403002a 	li	v1,42
9d002010:	14a30024 	bne	a1,v1,9d0020a4 <__printf_core+0x284>
9d002014:	24420002 	addiu	v0,v0,2
9d002018:	afa200b0 	sw	v0,176(sp)
9d00201c:	8e220000 	lw	v0,0(s1)
9d002020:	24430004 	addiu	v1,v0,4
9d002024:	8c420000 	lw	v0,0(v0)
9d002028:	ae230000 	sw	v1,0(s1)
9d00202c:	afa20094 	sw	v0,148(sp)
9d002030:	0f400f3a 	jal	9d003ce8 <__fmt_state>
9d002034:	27a400b0 	addiu	a0,sp,176
9d002038:	afa200b8 	sw	v0,184(sp)
9d00203c:	8fa200b0 	lw	v0,176(sp)
9d002040:	0f40100f 	jal	9d00403c <tolower>
9d002044:	80440000 	lb	a0,0(v0)
9d002048:	24030069 	li	v1,105
9d00204c:	1043007a 	beq	v0,v1,9d002238 <__printf_core+0x418>
9d002050:	8fa500b8 	lw	a1,184(sp)
9d002054:	2843006a 	slti	v1,v0,106
9d002058:	1060002f 	beqz	v1,9d002118 <__printf_core+0x2f8>
9d00205c:	24030070 	li	v1,112
9d002060:	24030063 	li	v1,99
9d002064:	104300bc 	beq	v0,v1,9d002358 <__printf_core+0x538>
9d002068:	28430064 	slti	v1,v0,100
9d00206c:	10600018 	beqz	v1,9d0020d0 <__printf_core+0x2b0>
9d002070:	24030064 	li	v1,100
9d002074:	105400c5 	beq	v0,s4,9d00238c <__printf_core+0x56c>
9d002078:	24030061 	li	v1,97
9d00207c:	5043004e 	beql	v0,v1,9d0021b8 <__printf_core+0x398>
9d002080:	02203025 	move	a2,s1
9d002084:	24020025 	li	v0,37
9d002088:	a3a200a8 	sb	v0,168(sp)
9d00208c:	2402ffff 	li	v0,-1
9d002090:	afb700b0 	sw	s7,176(sp)
9d002094:	afa00090 	sw	zero,144(sp)
9d002098:	afa00098 	sw	zero,152(sp)
9d00209c:	100000b8 	b	9d002380 <__printf_core+0x560>
9d0020a0:	afa20094 	sw	v0,148(sp)
9d0020a4:	0f400ee3 	jal	9d003b8c <atoi>
9d0020a8:	00000000 	nop
9d0020ac:	afa20094 	sw	v0,148(sp)
9d0020b0:	8fa300b0 	lw	v1,176(sp)
9d0020b4:	80620000 	lb	v0,0(v1)
9d0020b8:	2442ffd0 	addiu	v0,v0,-48
9d0020bc:	2c42000a 	sltiu	v0,v0,10
9d0020c0:	1040ffdb 	beqz	v0,9d002030 <__printf_core+0x210>
9d0020c4:	24630001 	addiu	v1,v1,1
9d0020c8:	1000fff9 	b	9d0020b0 <__printf_core+0x290>
9d0020cc:	afa300b0 	sw	v1,176(sp)
9d0020d0:	10430059 	beq	v0,v1,9d002238 <__printf_core+0x418>
9d0020d4:	28420068 	slti	v0,v0,104
9d0020d8:	1040ffeb 	beqz	v0,9d002088 <__printf_core+0x268>
9d0020dc:	24020025 	li	v0,37
9d0020e0:	02203025 	move	a2,s1
9d0020e4:	0f400f66 	jal	9d003d98 <__pop_float>
9d0020e8:	27a400a8 	addiu	a0,sp,168
9d0020ec:	10400097 	beqz	v0,9d00234c <__printf_core+0x52c>
9d0020f0:	8fa200b0 	lw	v0,176(sp)
9d0020f4:	27a600a8 	addiu	a2,sp,168
9d0020f8:	27a50090 	addiu	a1,sp,144
9d0020fc:	24430001 	addiu	v1,v0,1
9d002100:	afa300b0 	sw	v1,176(sp)
9d002104:	80470000 	lb	a3,0(v0)
9d002108:	0f40104a 	jal	9d004128 <__fmt_a>
9d00210c:	02402025 	move	a0,s2
9d002110:	10000035 	b	9d0021e8 <__printf_core+0x3c8>
9d002114:	02028021 	addu	s0,s0,v0
9d002118:	10430072 	beq	v0,v1,9d0022e4 <__printf_core+0x4c4>
9d00211c:	28430071 	slti	v1,v0,113
9d002120:	10600014 	beqz	v1,9d002174 <__printf_core+0x354>
9d002124:	24030075 	li	v1,117
9d002128:	2403006e 	li	v1,110
9d00212c:	10430082 	beq	v0,v1,9d002338 <__printf_core+0x518>
9d002130:	2403006f 	li	v1,111
9d002134:	1443ffd4 	bne	v0,v1,9d002088 <__printf_core+0x268>
9d002138:	24020025 	li	v0,37
9d00213c:	02203825 	move	a3,s1
9d002140:	00003025 	move	a2,zero
9d002144:	0f400c6e 	jal	9d0031b8 <__pop_int>
9d002148:	27a400a8 	addiu	a0,sp,168
9d00214c:	1040007f 	beqz	v0,9d00234c <__printf_core+0x52c>
9d002150:	8fa200b0 	lw	v0,176(sp)
9d002154:	27a600a8 	addiu	a2,sp,168
9d002158:	27a50090 	addiu	a1,sp,144
9d00215c:	24420001 	addiu	v0,v0,1
9d002160:	02402025 	move	a0,s2
9d002164:	0f400db8 	jal	9d0036e0 <__fmt_o>
9d002168:	afa200b0 	sw	v0,176(sp)
9d00216c:	1000001e 	b	9d0021e8 <__printf_core+0x3c8>
9d002170:	02028021 	addu	s0,s0,v0
9d002174:	1043003e 	beq	v0,v1,9d002270 <__printf_core+0x450>
9d002178:	24030078 	li	v1,120
9d00217c:	1043004a 	beq	v0,v1,9d0022a8 <__printf_core+0x488>
9d002180:	24030073 	li	v1,115
9d002184:	1443ffc0 	bne	v0,v1,9d002088 <__printf_core+0x268>
9d002188:	24020025 	li	v0,37
9d00218c:	24020080 	li	v0,128
9d002190:	14a2006e 	bne	a1,v0,9d00234c <__printf_core+0x52c>
9d002194:	8fa200b0 	lw	v0,176(sp)
9d002198:	00003825 	move	a3,zero
9d00219c:	24420001 	addiu	v0,v0,1
9d0021a0:	afa200b0 	sw	v0,176(sp)
9d0021a4:	8e220000 	lw	v0,0(s1)
9d0021a8:	24430004 	addiu	v1,v0,4
9d0021ac:	ae230000 	sw	v1,0(s1)
9d0021b0:	1000005c 	b	9d002324 <__printf_core+0x504>
9d0021b4:	8c460000 	lw	a2,0(v0)
9d0021b8:	0f400f66 	jal	9d003d98 <__pop_float>
9d0021bc:	27a400a8 	addiu	a0,sp,168
9d0021c0:	10400062 	beqz	v0,9d00234c <__printf_core+0x52c>
9d0021c4:	8fa200b0 	lw	v0,176(sp)
9d0021c8:	27a600a8 	addiu	a2,sp,168
9d0021cc:	27a50090 	addiu	a1,sp,144
9d0021d0:	24430001 	addiu	v1,v0,1
9d0021d4:	afa300b0 	sw	v1,176(sp)
9d0021d8:	80470000 	lb	a3,0(v0)
9d0021dc:	0f40104a 	jal	9d004128 <__fmt_a>
9d0021e0:	02402025 	move	a0,s2
9d0021e4:	02028021 	addu	s0,s0,v0
9d0021e8:	02708021 	addu	s0,s3,s0
9d0021ec:	0213982a 	slt	s3,s0,s3
9d0021f0:	1260ff1d 	beqz	s3,9d001e68 <__printf_core+0x48>
9d0021f4:	02009825 	move	s3,s0
9d0021f8:	3c02a000 	lui	v0,0xa000
9d0021fc:	2403004f 	li	v1,79
9d002200:	ac430008 	sw	v1,8(v0)
9d002204:	2413ffff 	li	s3,-1
9d002208:	8fbf00e4 	lw	ra,228(sp)
9d00220c:	02601025 	move	v0,s3
9d002210:	8fb700e0 	lw	s7,224(sp)
9d002214:	8fb600dc 	lw	s6,220(sp)
9d002218:	8fb500d8 	lw	s5,216(sp)
9d00221c:	8fb400d4 	lw	s4,212(sp)
9d002220:	8fb300d0 	lw	s3,208(sp)
9d002224:	8fb200cc 	lw	s2,204(sp)
9d002228:	8fb100c8 	lw	s1,200(sp)
9d00222c:	8fb000c4 	lw	s0,196(sp)
9d002230:	03e00008 	jr	ra
9d002234:	27bd00e8 	addiu	sp,sp,232
9d002238:	02203825 	move	a3,s1
9d00223c:	24060001 	li	a2,1
9d002240:	0f400c6e 	jal	9d0031b8 <__pop_int>
9d002244:	27a400a8 	addiu	a0,sp,168
9d002248:	10400040 	beqz	v0,9d00234c <__printf_core+0x52c>
9d00224c:	8fa200b0 	lw	v0,176(sp)
9d002250:	27a600a8 	addiu	a2,sp,168
9d002254:	27a50090 	addiu	a1,sp,144
9d002258:	24420001 	addiu	v0,v0,1
9d00225c:	02402025 	move	a0,s2
9d002260:	0f400cd0 	jal	9d003340 <__fmt_d>
9d002264:	afa200b0 	sw	v0,176(sp)
9d002268:	1000ffdf 	b	9d0021e8 <__printf_core+0x3c8>
9d00226c:	02028021 	addu	s0,s0,v0
9d002270:	02203825 	move	a3,s1
9d002274:	00003025 	move	a2,zero
9d002278:	0f400c6e 	jal	9d0031b8 <__pop_int>
9d00227c:	27a400a8 	addiu	a0,sp,168
9d002280:	10400032 	beqz	v0,9d00234c <__printf_core+0x52c>
9d002284:	8fa200b0 	lw	v0,176(sp)
9d002288:	27a600a8 	addiu	a2,sp,168
9d00228c:	27a50090 	addiu	a1,sp,144
9d002290:	24420001 	addiu	v0,v0,1
9d002294:	02402025 	move	a0,s2
9d002298:	0f400e67 	jal	9d00399c <__fmt_u>
9d00229c:	afa200b0 	sw	v0,176(sp)
9d0022a0:	1000ffd1 	b	9d0021e8 <__printf_core+0x3c8>
9d0022a4:	02028021 	addu	s0,s0,v0
9d0022a8:	02203825 	move	a3,s1
9d0022ac:	00003025 	move	a2,zero
9d0022b0:	0f400c6e 	jal	9d0031b8 <__pop_int>
9d0022b4:	27a400a8 	addiu	a0,sp,168
9d0022b8:	10400024 	beqz	v0,9d00234c <__printf_core+0x52c>
9d0022bc:	8fa200b0 	lw	v0,176(sp)
9d0022c0:	24430001 	addiu	v1,v0,1
9d0022c4:	afa300b0 	sw	v1,176(sp)
9d0022c8:	80470000 	lb	a3,0(v0)
9d0022cc:	27a600a8 	addiu	a2,sp,168
9d0022d0:	27a50090 	addiu	a1,sp,144
9d0022d4:	0f400b7f 	jal	9d002dfc <__fmt_x>
9d0022d8:	02402025 	move	a0,s2
9d0022dc:	1000ffc2 	b	9d0021e8 <__printf_core+0x3c8>
9d0022e0:	02028021 	addu	s0,s0,v0
9d0022e4:	02203825 	move	a3,s1
9d0022e8:	00003025 	move	a2,zero
9d0022ec:	240500f0 	li	a1,240
9d0022f0:	0f400c6e 	jal	9d0031b8 <__pop_int>
9d0022f4:	27a400a8 	addiu	a0,sp,168
9d0022f8:	10400014 	beqz	v0,9d00234c <__printf_core+0x52c>
9d0022fc:	8fa200b0 	lw	v0,176(sp)
9d002300:	8fa300ac 	lw	v1,172(sp)
9d002304:	24420001 	addiu	v0,v0,1
9d002308:	afa200b0 	sw	v0,176(sp)
9d00230c:	8fa200a8 	lw	v0,168(sp)
9d002310:	00431025 	or	v0,v0,v1
9d002314:	1440ffed 	bnez	v0,9d0022cc <__printf_core+0x4ac>
9d002318:	24070078 	li	a3,120
9d00231c:	00003825 	move	a3,zero
9d002320:	02a03025 	move	a2,s5
9d002324:	27a50090 	addiu	a1,sp,144
9d002328:	0f400e96 	jal	9d003a58 <__fmt_s>
9d00232c:	02402025 	move	a0,s2
9d002330:	1000ffad 	b	9d0021e8 <__printf_core+0x3c8>
9d002334:	02028021 	addu	s0,s0,v0
9d002338:	02203825 	move	a3,s1
9d00233c:	02703021 	addu	a2,s3,s0
9d002340:	0f400df7 	jal	9d0037dc <__pop_ptr>
9d002344:	27a400a8 	addiu	a0,sp,168
9d002348:	8fa200b0 	lw	v0,176(sp)
9d00234c:	24420001 	addiu	v0,v0,1
9d002350:	1000ffa5 	b	9d0021e8 <__printf_core+0x3c8>
9d002354:	afa200b0 	sw	v0,176(sp)
9d002358:	24020080 	li	v0,128
9d00235c:	14a2fffb 	bne	a1,v0,9d00234c <__printf_core+0x52c>
9d002360:	8fa200b0 	lw	v0,176(sp)
9d002364:	24420001 	addiu	v0,v0,1
9d002368:	afa200b0 	sw	v0,176(sp)
9d00236c:	8e220000 	lw	v0,0(s1)
9d002370:	24430004 	addiu	v1,v0,4
9d002374:	8c420000 	lw	v0,0(v0)
9d002378:	ae230000 	sw	v1,0(s1)
9d00237c:	a3a200a8 	sb	v0,168(sp)
9d002380:	24070001 	li	a3,1
9d002384:	1000ffe7 	b	9d002324 <__printf_core+0x504>
9d002388:	27a600a8 	addiu	a2,sp,168
9d00238c:	24020080 	li	v0,128
9d002390:	14a2ffee 	bne	a1,v0,9d00234c <__printf_core+0x52c>
9d002394:	8fa200b0 	lw	v0,176(sp)
9d002398:	a3b400a8 	sb	s4,168(sp)
9d00239c:	24420001 	addiu	v0,v0,1
9d0023a0:	1000fff7 	b	9d002380 <__printf_core+0x560>
9d0023a4:	afa200b0 	sw	v0,176(sp)

Disassembly of section .text:

9d0023a8 <__umoddi3>:
9d0023a8:	00c04825 	move	t1,a2
9d0023ac:	00801025 	move	v0,a0
9d0023b0:	14e00099 	bnez	a3,9d002618 <__umoddi3+0x270>
9d0023b4:	00a01825 	move	v1,a1
9d0023b8:	00a6302b 	sltu	a2,a1,a2
9d0023bc:	10c00034 	beqz	a2,9d002490 <__umoddi3+0xe8>
9d0023c0:	712a5020 	clz	t2,t1
9d0023c4:	51400008 	beqzl	t2,9d0023e8 <__umoddi3+0x40>
9d0023c8:	00092402 	srl	a0,t1,0x10
9d0023cc:	01451804 	sllv	v1,a1,t2
9d0023d0:	000a2823 	negu	a1,t2
9d0023d4:	00a42806 	srlv	a1,a0,a1
9d0023d8:	01494804 	sllv	t1,t1,t2
9d0023dc:	00a31825 	or	v1,a1,v1
9d0023e0:	01441004 	sllv	v0,a0,t2
9d0023e4:	00092402 	srl	a0,t1,0x10
9d0023e8:	0064001b 	divu	zero,v1,a0
9d0023ec:	008001f4 	teq	a0,zero,0x7
9d0023f0:	3127ffff 	andi	a3,t1,0xffff
9d0023f4:	00001812 	mflo	v1
9d0023f8:	00002810 	mfhi	a1
9d0023fc:	70673002 	mul	a2,v1,a3
9d002400:	00051c00 	sll	v1,a1,0x10
9d002404:	00022c02 	srl	a1,v0,0x10
9d002408:	00651825 	or	v1,v1,a1
9d00240c:	0066282b 	sltu	a1,v1,a2
9d002410:	50a00009 	beqzl	a1,9d002438 <__umoddi3+0x90>
9d002414:	00661823 	subu	v1,v1,a2
9d002418:	00691821 	addu	v1,v1,t1
9d00241c:	0069282b 	sltu	a1,v1,t1
9d002420:	54a00005 	bnezl	a1,9d002438 <__umoddi3+0x90>
9d002424:	00661823 	subu	v1,v1,a2
9d002428:	0066282b 	sltu	a1,v1,a2
9d00242c:	54a00001 	bnezl	a1,9d002434 <__umoddi3+0x8c>
9d002430:	00691821 	addu	v1,v1,t1
9d002434:	00661823 	subu	v1,v1,a2
9d002438:	0064001b 	divu	zero,v1,a0
9d00243c:	008001f4 	teq	a0,zero,0x7
9d002440:	3042ffff 	andi	v0,v0,0xffff
9d002444:	00001812 	mflo	v1
9d002448:	00003010 	mfhi	a2
9d00244c:	70672002 	mul	a0,v1,a3
9d002450:	00061c00 	sll	v1,a2,0x10
9d002454:	00621025 	or	v0,v1,v0
9d002458:	0044182b 	sltu	v1,v0,a0
9d00245c:	50600009 	beqzl	v1,9d002484 <__umoddi3+0xdc>
9d002460:	00441023 	subu	v0,v0,a0
9d002464:	00491021 	addu	v0,v0,t1
9d002468:	0049182b 	sltu	v1,v0,t1
9d00246c:	54600005 	bnezl	v1,9d002484 <__umoddi3+0xdc>
9d002470:	00441023 	subu	v0,v0,a0
9d002474:	0044182b 	sltu	v1,v0,a0
9d002478:	54600001 	bnezl	v1,9d002480 <__umoddi3+0xd8>
9d00247c:	00491021 	addu	v0,v0,t1
9d002480:	00441023 	subu	v0,v0,a0
9d002484:	01421006 	srlv	v0,v0,t2
9d002488:	03e00008 	jr	ra
9d00248c:	00001825 	move	v1,zero
9d002490:	15200005 	bnez	t1,9d0024a8 <__umoddi3+0x100>
9d002494:	24030001 	li	v1,1
9d002498:	0069001b 	divu	zero,v1,t1
9d00249c:	012001f4 	teq	t1,zero,0x7
9d0024a0:	00004812 	mflo	t1
9d0024a4:	712a5020 	clz	t2,t1
9d0024a8:	1540002b 	bnez	t2,9d002558 <__umoddi3+0x1b0>
9d0024ac:	24070020 	li	a3,32
9d0024b0:	00a92823 	subu	a1,a1,t1
9d0024b4:	00092402 	srl	a0,t1,0x10
9d0024b8:	00a4001b 	divu	zero,a1,a0
9d0024bc:	008001f4 	teq	a0,zero,0x7
9d0024c0:	3127ffff 	andi	a3,t1,0xffff
9d0024c4:	00002812 	mflo	a1
9d0024c8:	00001810 	mfhi	v1
9d0024cc:	70a73002 	mul	a2,a1,a3
9d0024d0:	00032c00 	sll	a1,v1,0x10
9d0024d4:	00021c02 	srl	v1,v0,0x10
9d0024d8:	00a32825 	or	a1,a1,v1
9d0024dc:	00a6182b 	sltu	v1,a1,a2
9d0024e0:	50600009 	beqzl	v1,9d002508 <__umoddi3+0x160>
9d0024e4:	00a63023 	subu	a2,a1,a2
9d0024e8:	00a92821 	addu	a1,a1,t1
9d0024ec:	00a9182b 	sltu	v1,a1,t1
9d0024f0:	54600005 	bnezl	v1,9d002508 <__umoddi3+0x160>
9d0024f4:	00a63023 	subu	a2,a1,a2
9d0024f8:	00a6182b 	sltu	v1,a1,a2
9d0024fc:	54600001 	bnezl	v1,9d002504 <__umoddi3+0x15c>
9d002500:	00a92821 	addu	a1,a1,t1
9d002504:	00a63023 	subu	a2,a1,a2
9d002508:	00c4001b 	divu	zero,a2,a0
9d00250c:	008001f4 	teq	a0,zero,0x7
9d002510:	3042ffff 	andi	v0,v0,0xffff
9d002514:	00003012 	mflo	a2
9d002518:	00002810 	mfhi	a1
9d00251c:	70c71802 	mul	v1,a2,a3
9d002520:	00053400 	sll	a2,a1,0x10
9d002524:	00c21025 	or	v0,a2,v0
9d002528:	0043202b 	sltu	a0,v0,v1
9d00252c:	5080ffd5 	beqzl	a0,9d002484 <__umoddi3+0xdc>
9d002530:	00431023 	subu	v0,v0,v1
9d002534:	00491021 	addu	v0,v0,t1
9d002538:	0049202b 	sltu	a0,v0,t1
9d00253c:	5480ffd1 	bnezl	a0,9d002484 <__umoddi3+0xdc>
9d002540:	00431023 	subu	v0,v0,v1
9d002544:	0043202b 	sltu	a0,v0,v1
9d002548:	54800001 	bnezl	a0,9d002550 <__umoddi3+0x1a8>
9d00254c:	00491021 	addu	v0,v0,t1
9d002550:	1000ffcc 	b	9d002484 <__umoddi3+0xdc>
9d002554:	00431023 	subu	v0,v0,v1
9d002558:	00ea3823 	subu	a3,a3,t2
9d00255c:	01494804 	sllv	t1,t1,t2
9d002560:	00e41806 	srlv	v1,a0,a3
9d002564:	00093402 	srl	a2,t1,0x10
9d002568:	00e53806 	srlv	a3,a1,a3
9d00256c:	00e6001b 	divu	zero,a3,a2
9d002570:	00c001f4 	teq	a2,zero,0x7
9d002574:	01451004 	sllv	v0,a1,t2
9d002578:	312bffff 	andi	t3,t1,0xffff
9d00257c:	00621825 	or	v1,v1,v0
9d002580:	01441004 	sllv	v0,a0,t2
9d002584:	00032c02 	srl	a1,v1,0x10
9d002588:	00003812 	mflo	a3
9d00258c:	00002010 	mfhi	a0
9d002590:	70eb4002 	mul	t0,a3,t3
9d002594:	00043c00 	sll	a3,a0,0x10
9d002598:	00e53825 	or	a3,a3,a1
9d00259c:	00e8202b 	sltu	a0,a3,t0
9d0025a0:	50800009 	beqzl	a0,9d0025c8 <__umoddi3+0x220>
9d0025a4:	00e83823 	subu	a3,a3,t0
9d0025a8:	00e93821 	addu	a3,a3,t1
9d0025ac:	00e9202b 	sltu	a0,a3,t1
9d0025b0:	54800005 	bnezl	a0,9d0025c8 <__umoddi3+0x220>
9d0025b4:	00e83823 	subu	a3,a3,t0
9d0025b8:	00e8202b 	sltu	a0,a3,t0
9d0025bc:	54800001 	bnezl	a0,9d0025c4 <__umoddi3+0x21c>
9d0025c0:	00e93821 	addu	a3,a3,t1
9d0025c4:	00e83823 	subu	a3,a3,t0
9d0025c8:	00e6001b 	divu	zero,a3,a2
9d0025cc:	00c001f4 	teq	a2,zero,0x7
9d0025d0:	3065ffff 	andi	a1,v1,0xffff
9d0025d4:	00003012 	mflo	a2
9d0025d8:	00003810 	mfhi	a3
9d0025dc:	00073c00 	sll	a3,a3,0x10
9d0025e0:	00e52825 	or	a1,a3,a1
9d0025e4:	70cb3002 	mul	a2,a2,t3
9d0025e8:	00a6182b 	sltu	v1,a1,a2
9d0025ec:	5060ffb1 	beqzl	v1,9d0024b4 <__umoddi3+0x10c>
9d0025f0:	00a62823 	subu	a1,a1,a2
9d0025f4:	00a92821 	addu	a1,a1,t1
9d0025f8:	00a9182b 	sltu	v1,a1,t1
9d0025fc:	5460ffad 	bnezl	v1,9d0024b4 <__umoddi3+0x10c>
9d002600:	00a62823 	subu	a1,a1,a2
9d002604:	00a6182b 	sltu	v1,a1,a2
9d002608:	54600001 	bnezl	v1,9d002610 <__umoddi3+0x268>
9d00260c:	00a92821 	addu	a1,a1,t1
9d002610:	1000ffa8 	b	9d0024b4 <__umoddi3+0x10c>
9d002614:	00a62823 	subu	a1,a1,a2
9d002618:	00a7402b 	sltu	t0,a1,a3
9d00261c:	1500005e 	bnez	t0,9d002798 <__umoddi3+0x3f0>
9d002620:	70ee7020 	clz	t6,a3
9d002624:	15c0000c 	bnez	t6,9d002658 <__umoddi3+0x2b0>
9d002628:	240b0020 	li	t3,32
9d00262c:	00e5402b 	sltu	t0,a3,a1
9d002630:	55000005 	bnezl	t0,9d002648 <__umoddi3+0x2a0>
9d002634:	00861023 	subu	v0,a0,a2
9d002638:	0086402b 	sltu	t0,a0,a2
9d00263c:	15000056 	bnez	t0,9d002798 <__umoddi3+0x3f0>
9d002640:	00000000 	nop
9d002644:	00861023 	subu	v0,a0,a2
9d002648:	00a72823 	subu	a1,a1,a3
9d00264c:	0082182b 	sltu	v1,a0,v0
9d002650:	03e00008 	jr	ra
9d002654:	00a31823 	subu	v1,a1,v1
9d002658:	016e5823 	subu	t3,t3,t6
9d00265c:	01666006 	srlv	t4,a2,t3
9d002660:	01c73804 	sllv	a3,a3,t6
9d002664:	01873825 	or	a3,t4,a3
9d002668:	01c51804 	sllv	v1,a1,t6
9d00266c:	00074c02 	srl	t1,a3,0x10
9d002670:	01652806 	srlv	a1,a1,t3
9d002674:	00a9001b 	divu	zero,a1,t1
9d002678:	012001f4 	teq	t1,zero,0x7
9d00267c:	01c61004 	sllv	v0,a2,t6
9d002680:	30e8ffff 	andi	t0,a3,0xffff
9d002684:	01643006 	srlv	a2,a0,t3
9d002688:	00c33025 	or	a2,a2,v1
9d00268c:	00066402 	srl	t4,a2,0x10
9d002690:	01c42004 	sllv	a0,a0,t6
9d002694:	00002812 	mflo	a1
9d002698:	00005010 	mfhi	t2
9d00269c:	000a5400 	sll	t2,t2,0x10
9d0026a0:	014c5025 	or	t2,t2,t4
9d0026a4:	71051802 	mul	v1,t0,a1
9d0026a8:	0143602b 	sltu	t4,t2,v1
9d0026ac:	1180000a 	beqz	t4,9d0026d8 <__umoddi3+0x330>
9d0026b0:	00a06825 	move	t5,a1
9d0026b4:	01475021 	addu	t2,t2,a3
9d0026b8:	0147602b 	sltu	t4,t2,a3
9d0026bc:	15800006 	bnez	t4,9d0026d8 <__umoddi3+0x330>
9d0026c0:	24adffff 	addiu	t5,a1,-1
9d0026c4:	0143602b 	sltu	t4,t2,v1
9d0026c8:	51800004 	beqzl	t4,9d0026dc <__umoddi3+0x334>
9d0026cc:	01435023 	subu	t2,t2,v1
9d0026d0:	24adfffe 	addiu	t5,a1,-2
9d0026d4:	01475021 	addu	t2,t2,a3
9d0026d8:	01435023 	subu	t2,t2,v1
9d0026dc:	0149001b 	divu	zero,t2,t1
9d0026e0:	012001f4 	teq	t1,zero,0x7
9d0026e4:	00004812 	mflo	t1
9d0026e8:	00005010 	mfhi	t2
9d0026ec:	000a5400 	sll	t2,t2,0x10
9d0026f0:	71091802 	mul	v1,t0,t1
9d0026f4:	30c8ffff 	andi	t0,a2,0xffff
9d0026f8:	01484025 	or	t0,t2,t0
9d0026fc:	0103302b 	sltu	a2,t0,v1
9d002700:	10c0000a 	beqz	a2,9d00272c <__umoddi3+0x384>
9d002704:	01202825 	move	a1,t1
9d002708:	01074021 	addu	t0,t0,a3
9d00270c:	0107302b 	sltu	a2,t0,a3
9d002710:	14c00006 	bnez	a2,9d00272c <__umoddi3+0x384>
9d002714:	2525ffff 	addiu	a1,t1,-1
9d002718:	0103302b 	sltu	a2,t0,v1
9d00271c:	10c00004 	beqz	a2,9d002730 <__umoddi3+0x388>
9d002720:	000d6400 	sll	t4,t5,0x10
9d002724:	2525fffe 	addiu	a1,t1,-2
9d002728:	01074021 	addu	t0,t0,a3
9d00272c:	000d6400 	sll	t4,t5,0x10
9d002730:	01856025 	or	t4,t4,a1
9d002734:	01820019 	multu	t4,v0
9d002738:	01034023 	subu	t0,t0,v1
9d00273c:	00006810 	mfhi	t5
9d002740:	010d282b 	sltu	a1,t0,t5
9d002744:	01a01825 	move	v1,t5
9d002748:	00006012 	mflo	t4
9d00274c:	14a00006 	bnez	a1,9d002768 <__umoddi3+0x3c0>
9d002750:	00003012 	mflo	a2
9d002754:	150d0009 	bne	t0,t5,9d00277c <__umoddi3+0x3d4>
9d002758:	00863023 	subu	a2,a0,a2
9d00275c:	008c282b 	sltu	a1,a0,t4
9d002760:	50a00007 	beqzl	a1,9d002780 <__umoddi3+0x3d8>
9d002764:	01034023 	subu	t0,t0,v1
9d002768:	01823023 	subu	a2,t4,v0
9d00276c:	01a73823 	subu	a3,t5,a3
9d002770:	0186602b 	sltu	t4,t4,a2
9d002774:	00ec1823 	subu	v1,a3,t4
9d002778:	00863023 	subu	a2,a0,a2
9d00277c:	01034023 	subu	t0,t0,v1
9d002780:	0086182b 	sltu	v1,a0,a2
9d002784:	01031823 	subu	v1,t0,v1
9d002788:	01631004 	sllv	v0,v1,t3
9d00278c:	01c63006 	srlv	a2,a2,t6
9d002790:	00461025 	or	v0,v0,a2
9d002794:	01c31806 	srlv	v1,v1,t6
9d002798:	03e00008 	jr	ra
9d00279c:	00000000 	nop

9d0027a0 <__udivdi3>:
9d0027a0:	00c04025 	move	t0,a2
9d0027a4:	00e01825 	move	v1,a3
9d0027a8:	00805025 	move	t2,a0
9d0027ac:	14e000a3 	bnez	a3,9d002a3c <__udivdi3+0x29c>
9d0027b0:	00a01025 	move	v0,a1
9d0027b4:	00a6302b 	sltu	a2,a1,a2
9d0027b8:	10c00034 	beqz	a2,9d00288c <__udivdi3+0xec>
9d0027bc:	00000000 	nop
9d0027c0:	71052820 	clz	a1,t0
9d0027c4:	50a00008 	beqzl	a1,9d0027e8 <__udivdi3+0x48>
9d0027c8:	00082c02 	srl	a1,t0,0x10
9d0027cc:	00052023 	negu	a0,a1
9d0027d0:	008a2006 	srlv	a0,t2,a0
9d0027d4:	00a21004 	sllv	v0,v0,a1
9d0027d8:	00a84004 	sllv	t0,t0,a1
9d0027dc:	00821025 	or	v0,a0,v0
9d0027e0:	00aa5004 	sllv	t2,t2,a1
9d0027e4:	00082c02 	srl	a1,t0,0x10
9d0027e8:	0045001b 	divu	zero,v0,a1
9d0027ec:	00a001f4 	teq	a1,zero,0x7
9d0027f0:	3107ffff 	andi	a3,t0,0xffff
9d0027f4:	000a2402 	srl	a0,t2,0x10
9d0027f8:	00003012 	mflo	a2
9d0027fc:	00001010 	mfhi	v0
9d002800:	00021400 	sll	v0,v0,0x10
9d002804:	00442025 	or	a0,v0,a0
9d002808:	70e64802 	mul	t1,a3,a2
9d00280c:	0089582b 	sltu	t3,a0,t1
9d002810:	1160000a 	beqz	t3,9d00283c <__udivdi3+0x9c>
9d002814:	00c01025 	move	v0,a2
9d002818:	00882021 	addu	a0,a0,t0
9d00281c:	0088582b 	sltu	t3,a0,t0
9d002820:	15600006 	bnez	t3,9d00283c <__udivdi3+0x9c>
9d002824:	24c2ffff 	addiu	v0,a2,-1
9d002828:	0089582b 	sltu	t3,a0,t1
9d00282c:	51600004 	beqzl	t3,9d002840 <__udivdi3+0xa0>
9d002830:	00892023 	subu	a0,a0,t1
9d002834:	24c2fffe 	addiu	v0,a2,-2
9d002838:	00882021 	addu	a0,a0,t0
9d00283c:	00892023 	subu	a0,a0,t1
9d002840:	0085001b 	divu	zero,a0,a1
9d002844:	00a001f4 	teq	a1,zero,0x7
9d002848:	314affff 	andi	t2,t2,0xffff
9d00284c:	00002012 	mflo	a0
9d002850:	00002810 	mfhi	a1
9d002854:	00052c00 	sll	a1,a1,0x10
9d002858:	00aa5025 	or	t2,a1,t2
9d00285c:	70e43802 	mul	a3,a3,a0
9d002860:	0147282b 	sltu	a1,t2,a3
9d002864:	10a00006 	beqz	a1,9d002880 <__udivdi3+0xe0>
9d002868:	00803025 	move	a2,a0
9d00286c:	010a5021 	addu	t2,t0,t2
9d002870:	0148402b 	sltu	t0,t2,t0
9d002874:	2486ffff 	addiu	a2,a0,-1
9d002878:	11000036 	beqz	t0,9d002954 <__udivdi3+0x1b4>
9d00287c:	0147502b 	sltu	t2,t2,a3
9d002880:	00021400 	sll	v0,v0,0x10
9d002884:	03e00008 	jr	ra
9d002888:	00461025 	or	v0,v0,a2
9d00288c:	15000006 	bnez	t0,9d0028a8 <__udivdi3+0x108>
9d002890:	71021020 	clz	v0,t0
9d002894:	24020001 	li	v0,1
9d002898:	0048001b 	divu	zero,v0,t0
9d00289c:	010001f4 	teq	t0,zero,0x7
9d0028a0:	00004012 	mflo	t0
9d0028a4:	71021020 	clz	v0,t0
9d0028a8:	1440002e 	bnez	v0,9d002964 <__udivdi3+0x1c4>
9d0028ac:	24090020 	li	t1,32
9d0028b0:	00a82823 	subu	a1,a1,t0
9d0028b4:	24030001 	li	v1,1
9d0028b8:	00083402 	srl	a2,t0,0x10
9d0028bc:	00a6001b 	divu	zero,a1,a2
9d0028c0:	00c001f4 	teq	a2,zero,0x7
9d0028c4:	3107ffff 	andi	a3,t0,0xffff
9d0028c8:	000a2402 	srl	a0,t2,0x10
9d0028cc:	00002812 	mflo	a1
9d0028d0:	00001010 	mfhi	v0
9d0028d4:	00021400 	sll	v0,v0,0x10
9d0028d8:	00442025 	or	a0,v0,a0
9d0028dc:	70e54802 	mul	t1,a3,a1
9d0028e0:	0089582b 	sltu	t3,a0,t1
9d0028e4:	1160000a 	beqz	t3,9d002910 <__udivdi3+0x170>
9d0028e8:	00a01025 	move	v0,a1
9d0028ec:	00882021 	addu	a0,a0,t0
9d0028f0:	0088582b 	sltu	t3,a0,t0
9d0028f4:	15600006 	bnez	t3,9d002910 <__udivdi3+0x170>
9d0028f8:	24a2ffff 	addiu	v0,a1,-1
9d0028fc:	0089582b 	sltu	t3,a0,t1
9d002900:	51600004 	beqzl	t3,9d002914 <__udivdi3+0x174>
9d002904:	00892023 	subu	a0,a0,t1
9d002908:	24a2fffe 	addiu	v0,a1,-2
9d00290c:	00882021 	addu	a0,a0,t0
9d002910:	00892023 	subu	a0,a0,t1
9d002914:	0086001b 	divu	zero,a0,a2
9d002918:	00c001f4 	teq	a2,zero,0x7
9d00291c:	314affff 	andi	t2,t2,0xffff
9d002920:	00002012 	mflo	a0
9d002924:	00003010 	mfhi	a2
9d002928:	00063400 	sll	a2,a2,0x10
9d00292c:	00ca5025 	or	t2,a2,t2
9d002930:	70e42802 	mul	a1,a3,a0
9d002934:	0145382b 	sltu	a3,t2,a1
9d002938:	10e0ffd1 	beqz	a3,9d002880 <__udivdi3+0xe0>
9d00293c:	00803025 	move	a2,a0
9d002940:	010a5021 	addu	t2,t0,t2
9d002944:	0148402b 	sltu	t0,t2,t0
9d002948:	1500ffcd 	bnez	t0,9d002880 <__udivdi3+0xe0>
9d00294c:	2486ffff 	addiu	a2,a0,-1
9d002950:	0145502b 	sltu	t2,t2,a1
9d002954:	5540ffca 	bnezl	t2,9d002880 <__udivdi3+0xe0>
9d002958:	2486fffe 	addiu	a2,a0,-2
9d00295c:	1000ffc9 	b	9d002884 <__udivdi3+0xe4>
9d002960:	00021400 	sll	v0,v0,0x10
9d002964:	01224823 	subu	t1,t1,v0
9d002968:	00484004 	sllv	t0,t0,v0
9d00296c:	00451804 	sllv	v1,a1,v0
9d002970:	00445004 	sllv	t2,a0,v0
9d002974:	01252806 	srlv	a1,a1,t1
9d002978:	00081402 	srl	v0,t0,0x10
9d00297c:	00a2001b 	divu	zero,a1,v0
9d002980:	004001f4 	teq	v0,zero,0x7
9d002984:	3106ffff 	andi	a2,t0,0xffff
9d002988:	01243806 	srlv	a3,a0,t1
9d00298c:	00e33825 	or	a3,a3,v1
9d002990:	00071c02 	srl	v1,a3,0x10
9d002994:	00002812 	mflo	a1
9d002998:	00002010 	mfhi	a0
9d00299c:	00042400 	sll	a0,a0,0x10
9d0029a0:	00832025 	or	a0,a0,v1
9d0029a4:	70c54802 	mul	t1,a2,a1
9d0029a8:	0089582b 	sltu	t3,a0,t1
9d0029ac:	1160000a 	beqz	t3,9d0029d8 <__udivdi3+0x238>
9d0029b0:	00a01825 	move	v1,a1
9d0029b4:	00882021 	addu	a0,a0,t0
9d0029b8:	0088582b 	sltu	t3,a0,t0
9d0029bc:	15600006 	bnez	t3,9d0029d8 <__udivdi3+0x238>
9d0029c0:	24a3ffff 	addiu	v1,a1,-1
9d0029c4:	0089582b 	sltu	t3,a0,t1
9d0029c8:	51600004 	beqzl	t3,9d0029dc <__udivdi3+0x23c>
9d0029cc:	00892023 	subu	a0,a0,t1
9d0029d0:	24a3fffe 	addiu	v1,a1,-2
9d0029d4:	00882021 	addu	a0,a0,t0
9d0029d8:	00892023 	subu	a0,a0,t1
9d0029dc:	0082001b 	divu	zero,a0,v0
9d0029e0:	004001f4 	teq	v0,zero,0x7
9d0029e4:	30e5ffff 	andi	a1,a3,0xffff
9d0029e8:	00001012 	mflo	v0
9d0029ec:	00002010 	mfhi	a0
9d0029f0:	00042400 	sll	a0,a0,0x10
9d0029f4:	00852825 	or	a1,a0,a1
9d0029f8:	70c23002 	mul	a2,a2,v0
9d0029fc:	00a6382b 	sltu	a3,a1,a2
9d002a00:	10e0000a 	beqz	a3,9d002a2c <__udivdi3+0x28c>
9d002a04:	00402025 	move	a0,v0
9d002a08:	00a82821 	addu	a1,a1,t0
9d002a0c:	00a8382b 	sltu	a3,a1,t0
9d002a10:	14e00006 	bnez	a3,9d002a2c <__udivdi3+0x28c>
9d002a14:	2444ffff 	addiu	a0,v0,-1
9d002a18:	00a6382b 	sltu	a3,a1,a2
9d002a1c:	50e00004 	beqzl	a3,9d002a30 <__udivdi3+0x290>
9d002a20:	00031c00 	sll	v1,v1,0x10
9d002a24:	2444fffe 	addiu	a0,v0,-2
9d002a28:	00a82821 	addu	a1,a1,t0
9d002a2c:	00031c00 	sll	v1,v1,0x10
9d002a30:	00a62823 	subu	a1,a1,a2
9d002a34:	1000ffa0 	b	9d0028b8 <__udivdi3+0x118>
9d002a38:	00641825 	or	v1,v1,a0
9d002a3c:	00a7102b 	sltu	v0,a1,a3
9d002a40:	1440004f 	bnez	v0,9d002b80 <__udivdi3+0x3e0>
9d002a44:	00001825 	move	v1,zero
9d002a48:	70ea5020 	clz	t2,a3
9d002a4c:	15400008 	bnez	t2,9d002a70 <__udivdi3+0x2d0>
9d002a50:	24090020 	li	t1,32
9d002a54:	00e5282b 	sltu	a1,a3,a1
9d002a58:	54a0004a 	bnezl	a1,9d002b84 <__udivdi3+0x3e4>
9d002a5c:	24020001 	li	v0,1
9d002a60:	0086102b 	sltu	v0,a0,a2
9d002a64:	38420001 	xori	v0,v0,0x1
9d002a68:	03e00008 	jr	ra
9d002a6c:	00001825 	move	v1,zero
9d002a70:	012a4823 	subu	t1,t1,t2
9d002a74:	01261006 	srlv	v0,a2,t1
9d002a78:	01473804 	sllv	a3,a3,t2
9d002a7c:	00473825 	or	a3,v0,a3
9d002a80:	00074402 	srl	t0,a3,0x10
9d002a84:	01451004 	sllv	v0,a1,t2
9d002a88:	01252806 	srlv	a1,a1,t1
9d002a8c:	00a8001b 	divu	zero,a1,t0
9d002a90:	010001f4 	teq	t0,zero,0x7
9d002a94:	01246006 	srlv	t4,a0,t1
9d002a98:	30ebffff 	andi	t3,a3,0xffff
9d002a9c:	01826025 	or	t4,t4,v0
9d002aa0:	000c1c02 	srl	v1,t4,0x10
9d002aa4:	01463004 	sllv	a2,a2,t2
9d002aa8:	00002812 	mflo	a1
9d002aac:	00004810 	mfhi	t1
9d002ab0:	00094c00 	sll	t1,t1,0x10
9d002ab4:	01234825 	or	t1,t1,v1
9d002ab8:	71651002 	mul	v0,t3,a1
9d002abc:	0122682b 	sltu	t5,t1,v0
9d002ac0:	11a0000a 	beqz	t5,9d002aec <__udivdi3+0x34c>
9d002ac4:	00a01825 	move	v1,a1
9d002ac8:	01274821 	addu	t1,t1,a3
9d002acc:	0127682b 	sltu	t5,t1,a3
9d002ad0:	15a00006 	bnez	t5,9d002aec <__udivdi3+0x34c>
9d002ad4:	24a3ffff 	addiu	v1,a1,-1
9d002ad8:	0122682b 	sltu	t5,t1,v0
9d002adc:	51a00004 	beqzl	t5,9d002af0 <__udivdi3+0x350>
9d002ae0:	01224823 	subu	t1,t1,v0
9d002ae4:	24a3fffe 	addiu	v1,a1,-2
9d002ae8:	01274821 	addu	t1,t1,a3
9d002aec:	01224823 	subu	t1,t1,v0
9d002af0:	0128001b 	divu	zero,t1,t0
9d002af4:	010001f4 	teq	t0,zero,0x7
9d002af8:	3185ffff 	andi	a1,t4,0xffff
9d002afc:	00004012 	mflo	t0
9d002b00:	00004810 	mfhi	t1
9d002b04:	00094c00 	sll	t1,t1,0x10
9d002b08:	01252825 	or	a1,t1,a1
9d002b0c:	71685802 	mul	t3,t3,t0
9d002b10:	00ab102b 	sltu	v0,a1,t3
9d002b14:	1040000a 	beqz	v0,9d002b40 <__udivdi3+0x3a0>
9d002b18:	01004825 	move	t1,t0
9d002b1c:	00a72821 	addu	a1,a1,a3
9d002b20:	00a7102b 	sltu	v0,a1,a3
9d002b24:	14400006 	bnez	v0,9d002b40 <__udivdi3+0x3a0>
9d002b28:	2509ffff 	addiu	t1,t0,-1
9d002b2c:	00ab102b 	sltu	v0,a1,t3
9d002b30:	10400004 	beqz	v0,9d002b44 <__udivdi3+0x3a4>
9d002b34:	00031400 	sll	v0,v1,0x10
9d002b38:	2509fffe 	addiu	t1,t0,-2
9d002b3c:	00a72821 	addu	a1,a1,a3
9d002b40:	00031400 	sll	v0,v1,0x10
9d002b44:	00491025 	or	v0,v0,t1
9d002b48:	00460019 	multu	v0,a2
9d002b4c:	00ab2823 	subu	a1,a1,t3
9d002b50:	00003810 	mfhi	a3
9d002b54:	00a7182b 	sltu	v1,a1,a3
9d002b58:	14600007 	bnez	v1,9d002b78 <__udivdi3+0x3d8>
9d002b5c:	00003012 	mflo	a2
9d002b60:	14a70008 	bne	a1,a3,9d002b84 <__udivdi3+0x3e4>
9d002b64:	00001825 	move	v1,zero
9d002b68:	01442004 	sllv	a0,a0,t2
9d002b6c:	0086202b 	sltu	a0,a0,a2
9d002b70:	10800004 	beqz	a0,9d002b84 <__udivdi3+0x3e4>
9d002b74:	00000000 	nop
9d002b78:	1000ffbb 	b	9d002a68 <__udivdi3+0x2c8>
9d002b7c:	2442ffff 	addiu	v0,v0,-1
9d002b80:	00001025 	move	v0,zero
9d002b84:	03e00008 	jr	ra
9d002b88:	00000000 	nop

Disassembly of section .text:

9d002b8c <Ext0ISR>:
#include <stdio.h>

volatile int num = 0;
volatile int state = 0;

void __ISR(_EXTERNAL_0_VECTOR, IPL2SOFT) Ext0ISR(void) { // step 1: the ISR
9d002b8c:	415de800 	rdpgpr	sp,sp
9d002b90:	401a7000 	mfc0	k0,c0_epc
9d002b94:	401b6000 	mfc0	k1,c0_status
9d002b98:	27bdff28 	addiu	sp,sp,-216
9d002b9c:	afba00d4 	sw	k0,212(sp)
9d002ba0:	401a6002 	mfc0	k0,c0_srsctl
9d002ba4:	afbb00d0 	sw	k1,208(sp)
9d002ba8:	afba00cc 	sw	k0,204(sp)
9d002bac:	7c1b7844 	ins	k1,zero,0x1,0xf
9d002bb0:	377b0800 	ori	k1,k1,0x800
9d002bb4:	409b6000 	mtc0	k1,c0_status
9d002bb8:	afbf00bc 	sw	ra,188(sp)
9d002bbc:	afb900b8 	sw	t9,184(sp)
9d002bc0:	afb800b4 	sw	t8,180(sp)
9d002bc4:	afaf00b0 	sw	t7,176(sp)
9d002bc8:	afae00ac 	sw	t6,172(sp)
9d002bcc:	afad00a8 	sw	t5,168(sp)
9d002bd0:	afac00a4 	sw	t4,164(sp)
9d002bd4:	afab00a0 	sw	t3,160(sp)
9d002bd8:	afaa009c 	sw	t2,156(sp)
9d002bdc:	afa90098 	sw	t1,152(sp)
9d002be0:	afa80094 	sw	t0,148(sp)
9d002be4:	afa70090 	sw	a3,144(sp)
9d002be8:	afa6008c 	sw	a2,140(sp)
9d002bec:	afa50088 	sw	a1,136(sp)
9d002bf0:	afa40084 	sw	a0,132(sp)
9d002bf4:	afa30080 	sw	v1,128(sp)
9d002bf8:	afa2007c 	sw	v0,124(sp)
9d002bfc:	afa10078 	sw	at,120(sp)
9d002c00:	00001012 	mflo	v0
9d002c04:	afa200c4 	sw	v0,196(sp)
9d002c08:	00001810 	mfhi	v1
9d002c0c:	afa300c0 	sw	v1,192(sp)
    char m[100];
    IFS0bits.INT0IF = 0;            // clear interrupt flag IFS0<3>
9d002c10:	3c02bf88 	lui	v0,0xbf88
9d002c14:	8c431030 	lw	v1,4144(v0)
9d002c18:	7c0318c4 	ins	v1,zero,0x3,0x1
9d002c1c:	ac431030 	sw	v1,4144(v0)
      NU32_LED1 = 0;                  // LED1 and LED2 on
9d002c20:	3c02bf88 	lui	v0,0xbf88
9d002c24:	90436160 	lbu	v1,24928(v0)
9d002c28:	7c030004 	ins	v1,zero,0x0,0x1
9d002c2c:	a0436160 	sb	v1,24928(v0)
      NU32_LED2 = 0;
9d002c30:	90436160 	lbu	v1,24928(v0)
9d002c34:	7c030844 	ins	v1,zero,0x1,0x1
9d002c38:	a0436160 	sb	v1,24928(v0)
      _CP0_SET_COUNT(0);
9d002c3c:	00001025 	move	v0,zero
9d002c40:	40824800 	mtc0	v0,c0_count
9d002c44:	000000c0 	ehb
      
      while(_CP0_GET_COUNT() < 2000000) {
9d002c48:	3c03001e 	lui	v1,0x1e
9d002c4c:	34638480 	ori	v1,v1,0x8480
9d002c50:	40024800 	mfc0	v0,c0_count
9d002c54:	0043102b 	sltu	v0,v0,v1
9d002c58:	1440fffd 	bnez	v0,9d002c50 <Ext0ISR+0xc4>
9d002c5c:	3c02bf88 	lui	v0,0xbf88
         ; 
      } // delay for 2 M core ticks, 0.05 s

    if(PORTDbits.RD7 == 0){
9d002c60:	8c4260d0 	lw	v0,24784(v0)
9d002c64:	7c4201c0 	ext	v0,v0,0x7,0x1
9d002c68:	10400022 	beqz	v0,9d002cf4 <Ext0ISR+0x168>
9d002c6c:	3c02bf88 	lui	v0,0xbf88
      }

      sprintf(m,"state= %d\r\n",state);
      NU32_WriteUART3(m);
  }
}
9d002c70:	8fa200c4 	lw	v0,196(sp)
9d002c74:	00400013 	mtlo	v0
9d002c78:	8fa300c0 	lw	v1,192(sp)
9d002c7c:	00600011 	mthi	v1
9d002c80:	8fbf00bc 	lw	ra,188(sp)
9d002c84:	8fb900b8 	lw	t9,184(sp)
9d002c88:	8fb800b4 	lw	t8,180(sp)
9d002c8c:	8faf00b0 	lw	t7,176(sp)
9d002c90:	8fae00ac 	lw	t6,172(sp)
9d002c94:	8fad00a8 	lw	t5,168(sp)
9d002c98:	8fac00a4 	lw	t4,164(sp)
9d002c9c:	8fab00a0 	lw	t3,160(sp)
9d002ca0:	8faa009c 	lw	t2,156(sp)
9d002ca4:	8fa90098 	lw	t1,152(sp)
9d002ca8:	8fa80094 	lw	t0,148(sp)
9d002cac:	8fa70090 	lw	a3,144(sp)
9d002cb0:	8fa6008c 	lw	a2,140(sp)
9d002cb4:	8fa50088 	lw	a1,136(sp)
9d002cb8:	8fa40084 	lw	a0,132(sp)
9d002cbc:	8fa30080 	lw	v1,128(sp)
9d002cc0:	8fa2007c 	lw	v0,124(sp)
9d002cc4:	8fa10078 	lw	at,120(sp)
9d002cc8:	41606000 	di
9d002ccc:	000000c0 	ehb
9d002cd0:	8fba00d4 	lw	k0,212(sp)
9d002cd4:	8fbb00d0 	lw	k1,208(sp)
9d002cd8:	409a7000 	mtc0	k0,c0_epc
9d002cdc:	8fba00cc 	lw	k0,204(sp)
9d002ce0:	27bd00d8 	addiu	sp,sp,216
9d002ce4:	409a6002 	mtc0	k0,c0_srsctl
9d002ce8:	41dde800 	wrpgpr	sp,sp
9d002cec:	409b6000 	mtc0	k1,c0_status
9d002cf0:	42000018 	eret
      NU32_LED1 = 1;                  // LED1 and LED2 off
9d002cf4:	90436160 	lbu	v1,24928(v0)
9d002cf8:	24040001 	li	a0,1
9d002cfc:	7c830004 	ins	v1,a0,0x0,0x1
9d002d00:	a0436160 	sb	v1,24928(v0)
      NU32_LED2 = 1;
9d002d04:	90436160 	lbu	v1,24928(v0)
9d002d08:	7c830844 	ins	v1,a0,0x1,0x1
9d002d0c:	a0436160 	sb	v1,24928(v0)
      sprintf(m,"pushed %d!\t",num);
9d002d10:	8f868014 	lw	a2,-32748(gp)
9d002d14:	3c059d00 	lui	a1,0x9d00
9d002d18:	24a51e00 	addiu	a1,a1,7680
9d002d1c:	0f400fea 	jal	9d003fa8 <_dsprintf_cdnopuxX>
9d002d20:	27a40010 	addiu	a0,sp,16
      NU32_WriteUART3(m);
9d002d24:	0f400c5f 	jal	9d00317c <NU32_WriteUART3>
9d002d28:	27a40010 	addiu	a0,sp,16
      num++;
9d002d2c:	8f828014 	lw	v0,-32748(gp)
9d002d30:	24420001 	addiu	v0,v0,1
9d002d34:	af828014 	sw	v0,-32748(gp)
      if(state ==0){
9d002d38:	8f828010 	lw	v0,-32752(gp)
9d002d3c:	1440000b 	bnez	v0,9d002d6c <Ext0ISR+0x1e0>
9d002d40:	24020001 	li	v0,1
        state = 1;
9d002d44:	af828010 	sw	v0,-32752(gp)
      sprintf(m,"state= %d\r\n",state);
9d002d48:	8f868010 	lw	a2,-32752(gp)
9d002d4c:	3c059d00 	lui	a1,0x9d00
9d002d50:	24a51e0c 	addiu	a1,a1,7692
9d002d54:	0f400fea 	jal	9d003fa8 <_dsprintf_cdnopuxX>
9d002d58:	27a40010 	addiu	a0,sp,16
      NU32_WriteUART3(m);
9d002d5c:	0f400c5f 	jal	9d00317c <NU32_WriteUART3>
9d002d60:	27a40010 	addiu	a0,sp,16
}
9d002d64:	1000ffc2 	b	9d002c70 <Ext0ISR+0xe4>
9d002d68:	00000000 	nop
      else if(state ==1){
9d002d6c:	8f838010 	lw	v1,-32752(gp)
9d002d70:	24020001 	li	v0,1
9d002d74:	5062fff4 	beql	v1,v0,9d002d48 <Ext0ISR+0x1bc>
9d002d78:	af808010 	sw	zero,-32752(gp)
        state = 0;
9d002d7c:	1000fff2 	b	9d002d48 <Ext0ISR+0x1bc>
9d002d80:	00000000 	nop

9d002d84 <main>:

int main(void) {
9d002d84:	27bdffe8 	addiu	sp,sp,-24
9d002d88:	afbf0014 	sw	ra,20(sp)
  NU32_Startup(); // cache on, min flash wait, interrupts on, LED/button init, UART init
9d002d8c:	0f400c03 	jal	9d00300c <NU32_Startup>
9d002d90:	00000000 	nop
  __builtin_disable_interrupts(); // step 2: disable interrupts
9d002d94:	41626000 	di	v0
9d002d98:	000000c0 	ehb
  INTCONbits.INT0EP = 0;          // step 3: INT0 triggers on falling edge
9d002d9c:	3c02bf88 	lui	v0,0xbf88
9d002da0:	8c431000 	lw	v1,4096(v0)
9d002da4:	7c030004 	ins	v1,zero,0x0,0x1
9d002da8:	ac431000 	sw	v1,4096(v0)
  IPC0bits.INT0IP = 2;            // step 4: interrupt priority 2
9d002dac:	3c02bf88 	lui	v0,0xbf88
9d002db0:	8c431090 	lw	v1,4240(v0)
9d002db4:	24040002 	li	a0,2
9d002db8:	7c83e684 	ins	v1,a0,0x1a,0x3
9d002dbc:	ac431090 	sw	v1,4240(v0)
  IPC0bits.INT0IS = 1;            // step 4: interrupt priority 1
9d002dc0:	8c431090 	lw	v1,4240(v0)
9d002dc4:	24040001 	li	a0,1
9d002dc8:	7c83ce04 	ins	v1,a0,0x18,0x2
9d002dcc:	ac431090 	sw	v1,4240(v0)
  IFS0bits.INT0IF = 0;            // step 5: clear the int flag
9d002dd0:	3c02bf88 	lui	v0,0xbf88
9d002dd4:	8c431030 	lw	v1,4144(v0)
9d002dd8:	7c0318c4 	ins	v1,zero,0x3,0x1
9d002ddc:	ac431030 	sw	v1,4144(v0)
  IEC0bits.INT0IE = 1;            // step 6: enable INT0 by setting IEC0<3>
9d002de0:	3c02bf88 	lui	v0,0xbf88
9d002de4:	8c431060 	lw	v1,4192(v0)
9d002de8:	7c8318c4 	ins	v1,a0,0x3,0x1
9d002dec:	ac431060 	sw	v1,4192(v0)
  __builtin_enable_interrupts();  // step 7: enable interrupts
9d002df0:	41626020 	ei	v0
                                  // Connect RD7 (USER button) to INT0 (RD0)
  while(1) {
      ; // do nothing, loop forever
9d002df4:	1000ffff 	b	9d002df4 <main+0x70>
9d002df8:	00000000 	nop

Disassembly of section .text.__fmt_x:

9d002dfc <__fmt_x>:
9d002dfc:	27bdffa8 	addiu	sp,sp,-88
9d002e00:	afb10034 	sw	s1,52(sp)
9d002e04:	8cb10004 	lw	s1,4(a1)
9d002e08:	afbe0050 	sw	s8,80(sp)
9d002e0c:	afb7004c 	sw	s7,76(sp)
9d002e10:	afb50044 	sw	s5,68(sp)
9d002e14:	afb3003c 	sw	s3,60(sp)
9d002e18:	00e04825 	move	t1,a3
9d002e1c:	afbf0054 	sw	ra,84(sp)
9d002e20:	afb60048 	sw	s6,72(sp)
9d002e24:	afb40040 	sw	s4,64(sp)
9d002e28:	afb20038 	sw	s2,56(sp)
9d002e2c:	afb00030 	sw	s0,48(sp)
9d002e30:	00809825 	move	s3,a0
9d002e34:	00a0a825 	move	s5,a1
9d002e38:	8ca70008 	lw	a3,8(a1)
9d002e3c:	8cbe0000 	lw	s8,0(a1)
9d002e40:	0620004c 	bltz	s1,9d002f74 <__fmt_x+0x178>
9d002e44:	8cb7000c 	lw	s7,12(a1)
9d002e48:	7c1e0844 	ins	s8,zero,0x1,0x1
9d002e4c:	33ca0010 	andi	t2,s8,0x10
9d002e50:	8cd60000 	lw	s6,0(a2)
9d002e54:	8cc80004 	lw	t0,4(a2)
9d002e58:	11400004 	beqz	t2,9d002e6c <__fmt_x+0x70>
9d002e5c:	00e01025 	move	v0,a3
9d002e60:	02c81825 	or	v1,s6,t0
9d002e64:	54600001 	bnezl	v1,9d002e6c <__fmt_x+0x70>
9d002e68:	24e2fffe 	addiu	v0,a3,-2
9d002e6c:	33cb0008 	andi	t3,s8,0x8
9d002e70:	55600001 	bnezl	t3,9d002e78 <__fmt_x+0x7c>
9d002e74:	2442ffff 	addiu	v0,v0,-1
9d002e78:	8eb00010 	lw	s0,16(s5)
9d002e7c:	2534ffbf 	addiu	s4,t1,-65
9d002e80:	00519023 	subu	s2,v0,s1
9d002e84:	2610ffff 	addiu	s0,s0,-1
9d002e88:	02f01821 	addu	v1,s7,s0
9d002e8c:	a0600000 	sb	zero,0(v1)
9d002e90:	33c50002 	andi	a1,s8,0x2
9d002e94:	2e94001a 	sltiu	s4,s4,26
9d002e98:	2a020002 	slti	v0,s0,2
9d002e9c:	1440000a 	bnez	v0,9d002ec8 <__fmt_x+0xcc>
9d002ea0:	02c81025 	or	v0,s6,t0
9d002ea4:	14400035 	bnez	v0,9d002f7c <__fmt_x+0x180>
9d002ea8:	32c3000f 	andi	v1,s6,0xf
9d002eac:	1e200034 	bgtz	s1,9d002f80 <__fmt_x+0x184>
9d002eb0:	2864000a 	slti	a0,v1,10
9d002eb4:	02511021 	addu	v0,s2,s1
9d002eb8:	18400003 	blez	v0,9d002ec8 <__fmt_x+0xcc>
9d002ebc:	00000000 	nop
9d002ec0:	54a00030 	bnezl	a1,9d002f84 <__fmt_x+0x188>
9d002ec4:	2610ffff 	addiu	s0,s0,-1
9d002ec8:	1140000b 	beqz	t2,9d002ef8 <__fmt_x+0xfc>
9d002ecc:	00000000 	nop
9d002ed0:	8cc20000 	lw	v0,0(a2)
9d002ed4:	8cc30004 	lw	v1,4(a2)
9d002ed8:	00431025 	or	v0,v0,v1
9d002edc:	10400006 	beqz	v0,9d002ef8 <__fmt_x+0xfc>
9d002ee0:	02f01021 	addu	v0,s7,s0
9d002ee4:	2610fffe 	addiu	s0,s0,-2
9d002ee8:	a049ffff 	sb	t1,-1(v0)
9d002eec:	24030030 	li	v1,48
9d002ef0:	02f01021 	addu	v0,s7,s0
9d002ef4:	a0430000 	sb	v1,0(v0)
9d002ef8:	51600006 	beqzl	t3,9d002f14 <__fmt_x+0x118>
9d002efc:	8ea60010 	lw	a2,16(s5)
9d002f00:	2610ffff 	addiu	s0,s0,-1
9d002f04:	02f01021 	addu	v0,s7,s0
9d002f08:	24030020 	li	v1,32
9d002f0c:	a0430000 	sb	v1,0(v0)
9d002f10:	8ea60010 	lw	a2,16(s5)
9d002f14:	afbe0010 	sw	s8,16(sp)
9d002f18:	02f02821 	addu	a1,s7,s0
9d002f1c:	24c6ffff 	addiu	a2,a2,-1
9d002f20:	00d03023 	subu	a2,a2,s0
9d002f24:	0f400d77 	jal	9d0035dc <__pad>
9d002f28:	02602025 	move	a0,s3
9d002f2c:	8e630004 	lw	v1,4(s3)
9d002f30:	30630100 	andi	v1,v1,0x100
9d002f34:	10600004 	beqz	v1,9d002f48 <__fmt_x+0x14c>
9d002f38:	8fbf0054 	lw	ra,84(sp)
9d002f3c:	8ea30004 	lw	v1,4(s5)
9d002f40:	0043202a 	slt	a0,v0,v1
9d002f44:	0064100b 	movn	v0,v1,a0
9d002f48:	8fbe0050 	lw	s8,80(sp)
9d002f4c:	8fb7004c 	lw	s7,76(sp)
9d002f50:	8fb60048 	lw	s6,72(sp)
9d002f54:	8fb50044 	lw	s5,68(sp)
9d002f58:	8fb40040 	lw	s4,64(sp)
9d002f5c:	8fb3003c 	lw	s3,60(sp)
9d002f60:	8fb20038 	lw	s2,56(sp)
9d002f64:	8fb10034 	lw	s1,52(sp)
9d002f68:	8fb00030 	lw	s0,48(sp)
9d002f6c:	03e00008 	jr	ra
9d002f70:	27bd0058 	addiu	sp,sp,88
9d002f74:	1000ffb5 	b	9d002e4c <__fmt_x+0x50>
9d002f78:	24110001 	li	s1,1
9d002f7c:	2864000a 	slti	a0,v1,10
9d002f80:	2610ffff 	addiu	s0,s0,-1
9d002f84:	10800002 	beqz	a0,9d002f90 <__fmt_x+0x194>
9d002f88:	24620057 	addiu	v0,v1,87
9d002f8c:	24620030 	addiu	v0,v1,48
9d002f90:	12800017 	beqz	s4,9d002ff0 <__fmt_x+0x1f4>
9d002f94:	02f01821 	addu	v1,s7,s0
9d002f98:	34430020 	ori	v1,v0,0x20
9d002f9c:	2463ff9f 	addiu	v1,v1,-97
9d002fa0:	2c63001a 	sltiu	v1,v1,26
9d002fa4:	10600012 	beqz	v1,9d002ff0 <__fmt_x+0x1f4>
9d002fa8:	02f01821 	addu	v1,s7,s0
9d002fac:	00402025 	move	a0,v0
9d002fb0:	afa50028 	sw	a1,40(sp)
9d002fb4:	afa80024 	sw	t0,36(sp)
9d002fb8:	afa90064 	sw	t1,100(sp)
9d002fbc:	afa60060 	sw	a2,96(sp)
9d002fc0:	afa70020 	sw	a3,32(sp)
9d002fc4:	afab001c 	sw	t3,28(sp)
9d002fc8:	0f40101d 	jal	9d004074 <toupper>
9d002fcc:	afaa0018 	sw	t2,24(sp)
9d002fd0:	8fa50028 	lw	a1,40(sp)
9d002fd4:	8fa80024 	lw	t0,36(sp)
9d002fd8:	8fa90064 	lw	t1,100(sp)
9d002fdc:	8fa60060 	lw	a2,96(sp)
9d002fe0:	8fa70020 	lw	a3,32(sp)
9d002fe4:	8fab001c 	lw	t3,28(sp)
9d002fe8:	8faa0018 	lw	t2,24(sp)
9d002fec:	02f01821 	addu	v1,s7,s0
9d002ff0:	a0620000 	sb	v0,0(v1)
9d002ff4:	0016b102 	srl	s6,s6,0x4
9d002ff8:	00081700 	sll	v0,t0,0x1c
9d002ffc:	2631ffff 	addiu	s1,s1,-1
9d003000:	0056b025 	or	s6,v0,s6
9d003004:	1000ffa4 	b	9d002e98 <__fmt_x+0x9c>
9d003008:	00084102 	srl	t0,t0,0x4

Disassembly of section .text:

9d00300c <NU32_Startup>:

// Perform startup routines:
//  Make NU32_LED1 and NU32_LED2 pins outputs (NU32_USER is by default an input)
//  Initialize the serial port - UART3 (no interrupt) 
//  Enable interrupts
void NU32_Startup() {
9d00300c:	27bdfff8 	addiu	sp,sp,-8
9d003010:	afbf0004 	sw	ra,4(sp)
  // disable interrupts
  __builtin_disable_interrupts();
9d003014:	41626000 	di	v0
9d003018:	000000c0 	ehb
  // see Chapter 2 "CPU for Devices with M4K Core" of the PIC32 reference manual
  // most of the other bits have prescribed values
  // microchip does not provide a _CP0_SET_CONFIG macro, so we directly use
  // the compiler built-in command _mtc0
  // to disable cache, use 0xa4210582 
  __builtin_mtc0(_CP0_CONFIG, _CP0_CONFIG_SELECT, 0xa4210583); 
9d00301c:	3c02a421 	lui	v0,0xa421
9d003020:	24420583 	addiu	v0,v0,1411
9d003024:	40828000 	mtc0	v0,c0_config
9d003028:	000000c0 	ehb
  
  // set the prefectch cache wait state to 2, as per the
  // electrical characteristics data sheet
  CHECONbits.PFMWS = 0x2;   
9d00302c:	3c02bf88 	lui	v0,0xbf88
9d003030:	8c434000 	lw	v1,16384(v0)
9d003034:	24050002 	li	a1,2
9d003038:	7ca31004 	ins	v1,a1,0x0,0x3
9d00303c:	ac434000 	sw	v1,16384(v0)

  //enable prefetch for cacheable and noncacheable memory
  CHECONbits.PREFEN = 0x3; 
9d003040:	8c434000 	lw	v1,16384(v0)
9d003044:	24040003 	li	a0,3
9d003048:	7c832904 	ins	v1,a0,0x4,0x2
9d00304c:	ac434000 	sw	v1,16384(v0)

  // 0 data RAM access wait states
  BMXCONbits.BMXWSDRM = 0x0;
9d003050:	3c02bf88 	lui	v0,0xbf88
9d003054:	8c432000 	lw	v1,8192(v0)
9d003058:	7c033184 	ins	v1,zero,0x6,0x1
9d00305c:	ac432000 	sw	v1,8192(v0)
  
  // enable multi vector interrupts
  INTCONbits.MVEC = 0x1;
9d003060:	3c02bf88 	lui	v0,0xbf88
9d003064:	8c461000 	lw	a2,4096(v0)
9d003068:	24030001 	li	v1,1
9d00306c:	7c666304 	ins	a2,v1,0xc,0x1
9d003070:	ac461000 	sw	a2,4096(v0)

  // disable JTAG to get B10, B11, B12 and B13 back
  DDPCONbits.JTAGEN = 0;
9d003074:	3c02bf81 	lui	v0,0xbf81
9d003078:	9046f200 	lbu	a2,-3584(v0)
9d00307c:	7c0618c4 	ins	a2,zero,0x3,0x1
9d003080:	a046f200 	sb	a2,-3584(v0)

  TRISFCLR = 0x0003;  // Make F0 and F1 outputs (LED1 and LED2)
9d003084:	3c02bf88 	lui	v0,0xbf88
9d003088:	ac446144 	sw	a0,24900(v0)
  NU32_LED1 = 1;      // LED1 is off
9d00308c:	3c02bf88 	lui	v0,0xbf88
9d003090:	90446160 	lbu	a0,24928(v0)
9d003094:	7c640004 	ins	a0,v1,0x0,0x1
9d003098:	a0446160 	sb	a0,24928(v0)
  NU32_LED2 = 0;      // LED2 is on
9d00309c:	90446160 	lbu	a0,24928(v0)
9d0030a0:	7c040844 	ins	a0,zero,0x1,0x1
9d0030a4:	a0446160 	sb	a0,24928(v0)

  // turn on UART3 without an interrupt
  U3MODEbits.BRGH = 0; // set baud to NU32_DESIRED_BAUD
9d0030a8:	3c02bf80 	lui	v0,0xbf80
9d0030ac:	94446400 	lhu	a0,25600(v0)
9d0030b0:	7c0418c4 	ins	a0,zero,0x3,0x1
9d0030b4:	a4446400 	sh	a0,25600(v0)
  U3BRG = ((NU32_SYS_FREQ / NU32_DESIRED_BAUD) / 16) - 1;
9d0030b8:	3c04bf80 	lui	a0,0xbf80
9d0030bc:	24060014 	li	a2,20
9d0030c0:	ac866440 	sw	a2,25664(a0)

  // 8 bit, no parity bit, and 1 stop bit (8N1 setup)
  U3MODEbits.PDSEL = 0;
9d0030c4:	94446400 	lhu	a0,25600(v0)
9d0030c8:	7c041044 	ins	a0,zero,0x1,0x2
9d0030cc:	a4446400 	sh	a0,25600(v0)
  U3MODEbits.STSEL = 0;
9d0030d0:	94446400 	lhu	a0,25600(v0)
9d0030d4:	7c040004 	ins	a0,zero,0x0,0x1
9d0030d8:	a4446400 	sh	a0,25600(v0)

  // configure TX & RX pins as output & input pins
  U3STAbits.UTXEN = 1;
9d0030dc:	3c04bf80 	lui	a0,0xbf80
9d0030e0:	8c866410 	lw	a2,25616(a0)
9d0030e4:	7c665284 	ins	a2,v1,0xa,0x1
9d0030e8:	ac866410 	sw	a2,25616(a0)
  U3STAbits.URXEN = 1;
9d0030ec:	8c866410 	lw	a2,25616(a0)
9d0030f0:	7c666304 	ins	a2,v1,0xc,0x1
9d0030f4:	ac866410 	sw	a2,25616(a0)
  // configure hardware flow control using RTS and CTS
  U3MODEbits.UEN = 2;
9d0030f8:	94446400 	lhu	a0,25600(v0)
9d0030fc:	7ca44a04 	ins	a0,a1,0x8,0x2
9d003100:	a4446400 	sh	a0,25600(v0)

  // enable the uart
  U3MODEbits.ON = 1;
9d003104:	94446400 	lhu	a0,25600(v0)
9d003108:	7c647bc4 	ins	a0,v1,0xf,0x1
9d00310c:	a4446400 	sh	a0,25600(v0)

  __builtin_enable_interrupts();
9d003110:	41626020 	ei	v0
}
9d003114:	8fbf0004 	lw	ra,4(sp)
9d003118:	03e00008 	jr	ra
9d00311c:	27bd0008 	addiu	sp,sp,8

9d003120 <NU32_ReadUART3>:
// Read from UART3
// block other functions until you get a '\r' or '\n'
// send the pointer to your char array and the number of elements in the array
void NU32_ReadUART3(char * message, int maxLength) {
  char data = 0;
  int complete = 0, num_bytes = 0;
9d003120:	00003025 	move	a2,zero
  // loop until you get a '\r' or '\n'
  while (!complete) {
    if (U3STAbits.URXDA) { // if data is available
9d003124:	3c03bf80 	lui	v1,0xbf80
      data = U3RXREG;      // read the data
9d003128:	3c09bf80 	lui	t1,0xbf80
      if ((data == '\n') || (data == '\r')) {
9d00312c:	2408000a 	li	t0,10
9d003130:	240a000d 	li	t2,13
    if (U3STAbits.URXDA) { // if data is available
9d003134:	8c626410 	lw	v0,25616(v1)
9d003138:	30420001 	andi	v0,v0,0x1
9d00313c:	1040fffd 	beqz	v0,9d003134 <NU32_ReadUART3+0x14>
9d003140:	00000000 	nop
      data = U3RXREG;      // read the data
9d003144:	8d226430 	lw	v0,25648(t1)
9d003148:	7c021420 	seb	v0,v0
      if ((data == '\n') || (data == '\r')) {
9d00314c:	50480009 	beql	v0,t0,9d003174 <NU32_ReadUART3+0x54>
9d003150:	00862021 	addu	a0,a0,a2
9d003154:	104a0006 	beq	v0,t2,9d003170 <NU32_ReadUART3+0x50>
9d003158:	00863821 	addu	a3,a0,a2
        complete = 1;
      } else {
        message[num_bytes] = data;
9d00315c:	a0e20000 	sb	v0,0(a3)
        ++num_bytes;
9d003160:	24c60001 	addiu	a2,a2,1
        // roll over if the array is too small
        if (num_bytes >= maxLength) {
9d003164:	00c5102a 	slt	v0,a2,a1
9d003168:	1000fff2 	b	9d003134 <NU32_ReadUART3+0x14>
9d00316c:	0002300a 	movz	a2,zero,v0
        }
      }
    }
  }
  // end the string
  message[num_bytes] = '\0';
9d003170:	00862021 	addu	a0,a0,a2
}
9d003174:	03e00008 	jr	ra
9d003178:	a0800000 	sb	zero,0(a0)

9d00317c <NU32_WriteUART3>:

// Write a character array using UART3
void NU32_WriteUART3(const char * string) {
  while (*string != '\0') {
9d00317c:	80850000 	lb	a1,0(a0)
9d003180:	10a0000b 	beqz	a1,9d0031b0 <NU32_WriteUART3+0x34>
9d003184:	3c03bf80 	lui	v1,0xbf80
    while (U3STAbits.UTXBF) {
      ; // wait until tx buffer isn't full
    }
    U3TXREG = *string;
9d003188:	3c06bf80 	lui	a2,0xbf80
    while (U3STAbits.UTXBF) {
9d00318c:	8c626410 	lw	v0,25616(v1)
9d003190:	7c420240 	ext	v0,v0,0x9,0x1
9d003194:	1440fffd 	bnez	v0,9d00318c <NU32_WriteUART3+0x10>
9d003198:	00000000 	nop
    U3TXREG = *string;
9d00319c:	acc56420 	sw	a1,25632(a2)
    ++string;
9d0031a0:	24840001 	addiu	a0,a0,1
  while (*string != '\0') {
9d0031a4:	80850000 	lb	a1,0(a0)
9d0031a8:	14a0fff8 	bnez	a1,9d00318c <NU32_WriteUART3+0x10>
9d0031ac:	00000000 	nop
  }
}
9d0031b0:	03e00008 	jr	ra
9d0031b4:	00000000 	nop

Disassembly of section .text.__pop_int:

9d0031b8 <__pop_int>:
9d0031b8:	24020088 	li	v0,136
9d0031bc:	10a2003f 	beq	a1,v0,9d0032bc <__pop_int+0x104>
9d0031c0:	28a20089 	slti	v0,a1,137
9d0031c4:	1040001b 	beqz	v0,9d003234 <__pop_int+0x7c>
9d0031c8:	240200a0 	li	v0,160
9d0031cc:	24020081 	li	v0,129
9d0031d0:	10a20053 	beq	a1,v0,9d003320 <__pop_int+0x168>
9d0031d4:	28a20082 	slti	v0,a1,130
9d0031d8:	10400006 	beqz	v0,9d0031f4 <__pop_int+0x3c>
9d0031dc:	24020082 	li	v0,130
9d0031e0:	24020080 	li	v0,128
9d0031e4:	50a2004f 	beql	a1,v0,9d003324 <__pop_int+0x16c>
9d0031e8:	8ce20000 	lw	v0,0(a3)
9d0031ec:	03e00008 	jr	ra
9d0031f0:	00001025 	move	v0,zero
9d0031f4:	50a2003a 	beql	a1,v0,9d0032e0 <__pop_int+0x128>
9d0031f8:	8ce20000 	lw	v0,0(a3)
9d0031fc:	24020084 	li	v0,132
9d003200:	14a2fffa 	bne	a1,v0,9d0031ec <__pop_int+0x34>
9d003204:	00000000 	nop
9d003208:	8ce20000 	lw	v0,0(a3)
9d00320c:	24430004 	addiu	v1,v0,4
9d003210:	8c420000 	lw	v0,0(v0)
9d003214:	10c00026 	beqz	a2,9d0032b0 <__pop_int+0xf8>
9d003218:	ace30000 	sw	v1,0(a3)
9d00321c:	7c021620 	seh	v0,v0
9d003220:	ac820000 	sw	v0,0(a0)
9d003224:	000217c3 	sra	v0,v0,0x1f
9d003228:	ac820004 	sw	v0,4(a0)
9d00322c:	03e00008 	jr	ra
9d003230:	24020001 	li	v0,1
9d003234:	50a20036 	beql	a1,v0,9d003310 <__pop_int+0x158>
9d003238:	8ce20000 	lw	v0,0(a3)
9d00323c:	28a200a1 	slti	v0,a1,161
9d003240:	10400011 	beqz	v0,9d003288 <__pop_int+0xd0>
9d003244:	240200c0 	li	v0,192
9d003248:	24020090 	li	v0,144
9d00324c:	14a2ffe7 	bne	a1,v0,9d0031ec <__pop_int+0x34>
9d003250:	00000000 	nop
9d003254:	8ce20000 	lw	v0,0(a3)
9d003258:	24420007 	addiu	v0,v0,7
9d00325c:	7c021004 	ins	v0,zero,0x0,0x3
9d003260:	8c480000 	lw	t0,0(v0)
9d003264:	8c490004 	lw	t1,4(v0)
9d003268:	24420008 	addiu	v0,v0,8
9d00326c:	ace20000 	sw	v0,0(a3)
9d003270:	ac880000 	sw	t0,0(a0)
9d003274:	ac890004 	sw	t1,4(a0)
9d003278:	10c00001 	beqz	a2,9d003280 <__pop_int+0xc8>
9d00327c:	24020001 	li	v0,1
9d003280:	03e00008 	jr	ra
9d003284:	00000000 	nop
9d003288:	50a20005 	beql	a1,v0,9d0032a0 <__pop_int+0xe8>
9d00328c:	8ce20000 	lw	v0,0(a3)
9d003290:	240200f0 	li	v0,240
9d003294:	14a2ffd5 	bne	a1,v0,9d0031ec <__pop_int+0x34>
9d003298:	00000000 	nop
9d00329c:	8ce20000 	lw	v0,0(a3)
9d0032a0:	24430004 	addiu	v1,v0,4
9d0032a4:	ace30000 	sw	v1,0(a3)
9d0032a8:	10000002 	b	9d0032b4 <__pop_int+0xfc>
9d0032ac:	8c420000 	lw	v0,0(v0)
9d0032b0:	3042ffff 	andi	v0,v0,0xffff
9d0032b4:	10000020 	b	9d003338 <__pop_int+0x180>
9d0032b8:	ac820000 	sw	v0,0(a0)
9d0032bc:	8ce20000 	lw	v0,0(a3)
9d0032c0:	24430004 	addiu	v1,v0,4
9d0032c4:	8c420000 	lw	v0,0(v0)
9d0032c8:	10c00003 	beqz	a2,9d0032d8 <__pop_int+0x120>
9d0032cc:	ace30000 	sw	v1,0(a3)
9d0032d0:	1000ffd3 	b	9d003220 <__pop_int+0x68>
9d0032d4:	7c021420 	seb	v0,v0
9d0032d8:	1000fff6 	b	9d0032b4 <__pop_int+0xfc>
9d0032dc:	304200ff 	andi	v0,v0,0xff
9d0032e0:	24420007 	addiu	v0,v0,7
9d0032e4:	7c021004 	ins	v0,zero,0x0,0x3
9d0032e8:	8c480000 	lw	t0,0(v0)
9d0032ec:	8c490004 	lw	t1,4(v0)
9d0032f0:	24420008 	addiu	v0,v0,8
9d0032f4:	ace20000 	sw	v0,0(a3)
9d0032f8:	ac880000 	sw	t0,0(a0)
9d0032fc:	ac890004 	sw	t1,4(a0)
9d003300:	10c0ffdf 	beqz	a2,9d003280 <__pop_int+0xc8>
9d003304:	24020001 	li	v0,1
9d003308:	03e00008 	jr	ra
9d00330c:	00000000 	nop
9d003310:	24430004 	addiu	v1,v0,4
9d003314:	ace30000 	sw	v1,0(a3)
9d003318:	1000ffc1 	b	9d003220 <__pop_int+0x68>
9d00331c:	8c420000 	lw	v0,0(v0)
9d003320:	8ce20000 	lw	v0,0(a3)
9d003324:	24430004 	addiu	v1,v0,4
9d003328:	ace30000 	sw	v1,0(a3)
9d00332c:	8c420000 	lw	v0,0(v0)
9d003330:	14c0ffbc 	bnez	a2,9d003224 <__pop_int+0x6c>
9d003334:	ac820000 	sw	v0,0(a0)
9d003338:	1000ffbc 	b	9d00322c <__pop_int+0x74>
9d00333c:	ac800004 	sw	zero,4(a0)

Disassembly of section .text.__fmt_d:

9d003340 <__fmt_d>:
9d003340:	27bdffc0 	addiu	sp,sp,-64
9d003344:	afb1002c 	sw	s1,44(sp)
9d003348:	00808825 	move	s1,a0
9d00334c:	00c02025 	move	a0,a2
9d003350:	8c870004 	lw	a3,4(a0)
9d003354:	8ca20000 	lw	v0,0(a1)
9d003358:	afb20030 	sw	s2,48(sp)
9d00335c:	000797c2 	srl	s2,a3,0x1f
9d003360:	afb40038 	sw	s4,56(sp)
9d003364:	afb30034 	sw	s3,52(sp)
9d003368:	afb00028 	sw	s0,40(sp)
9d00336c:	afbf003c 	sw	ra,60(sp)
9d003370:	00a08025 	move	s0,a1
9d003374:	8ca30004 	lw	v1,4(a1)
9d003378:	8cb30008 	lw	s3,8(a1)
9d00337c:	afa20020 	sw	v0,32(sp)
9d003380:	8cb4000c 	lw	s4,12(a1)
9d003384:	12400040 	beqz	s2,9d003488 <__fmt_d+0x148>
9d003388:	8cc60000 	lw	a2,0(a2)
9d00338c:	00063023 	negu	a2,a2
9d003390:	0006202b 	sltu	a0,zero,a2
9d003394:	00073823 	negu	a3,a3
9d003398:	04600008 	bltz	v1,9d0033bc <__fmt_d+0x7c>
9d00339c:	00e43823 	subu	a3,a3,a0
9d0033a0:	7c020844 	ins	v0,zero,0x1,0x1
9d0033a4:	16400005 	bnez	s2,9d0033bc <__fmt_d+0x7c>
9d0033a8:	afa20020 	sw	v0,32(sp)
9d0033ac:	8fa20020 	lw	v0,32(sp)
9d0033b0:	30430004 	andi	v1,v0,0x4
9d0033b4:	1060002c 	beqz	v1,9d003468 <__fmt_d+0x128>
9d0033b8:	7c4200c0 	ext	v0,v0,0x3,0x1
9d0033bc:	2662ffff 	addiu	v0,s3,-1
9d0033c0:	27a30020 	addiu	v1,sp,32
9d0033c4:	afa30018 	sw	v1,24(sp)
9d0033c8:	2403000a 	li	v1,10
9d0033cc:	afa30014 	sw	v1,20(sp)
9d0033d0:	afa20010 	sw	v0,16(sp)
9d0033d4:	0f400d26 	jal	9d003498 <__cvt_u>
9d0033d8:	02002025 	move	a0,s0
9d0033dc:	16400006 	bnez	s2,9d0033f8 <__fmt_d+0xb8>
9d0033e0:	2403002d 	li	v1,45
9d0033e4:	8fa30020 	lw	v1,32(sp)
9d0033e8:	30640004 	andi	a0,v1,0x4
9d0033ec:	10800020 	beqz	a0,9d003470 <__fmt_d+0x130>
9d0033f0:	30630008 	andi	v1,v1,0x8
9d0033f4:	2403002d 	li	v1,45
9d0033f8:	2442ffff 	addiu	v0,v0,-1
9d0033fc:	2404002b 	li	a0,43
9d003400:	0072200b 	movn	a0,v1,s2
9d003404:	02821821 	addu	v1,s4,v0
9d003408:	a0640000 	sb	a0,0(v1)
9d00340c:	8e060010 	lw	a2,16(s0)
9d003410:	8fa30020 	lw	v1,32(sp)
9d003414:	02603825 	move	a3,s3
9d003418:	24c6ffff 	addiu	a2,a2,-1
9d00341c:	afa30010 	sw	v1,16(sp)
9d003420:	00c23023 	subu	a2,a2,v0
9d003424:	02822821 	addu	a1,s4,v0
9d003428:	0f400d77 	jal	9d0035dc <__pad>
9d00342c:	02202025 	move	a0,s1
9d003430:	8e230004 	lw	v1,4(s1)
9d003434:	30630100 	andi	v1,v1,0x100
9d003438:	10600004 	beqz	v1,9d00344c <__fmt_d+0x10c>
9d00343c:	8fbf003c 	lw	ra,60(sp)
9d003440:	8e030004 	lw	v1,4(s0)
9d003444:	0043202a 	slt	a0,v0,v1
9d003448:	0064100b 	movn	v0,v1,a0
9d00344c:	8fb40038 	lw	s4,56(sp)
9d003450:	8fb30034 	lw	s3,52(sp)
9d003454:	8fb20030 	lw	s2,48(sp)
9d003458:	8fb1002c 	lw	s1,44(sp)
9d00345c:	8fb00028 	lw	s0,40(sp)
9d003460:	03e00008 	jr	ra
9d003464:	27bd0040 	addiu	sp,sp,64
9d003468:	1000ffd5 	b	9d0033c0 <__fmt_d+0x80>
9d00346c:	02621023 	subu	v0,s3,v0
9d003470:	5060ffe7 	beqzl	v1,9d003410 <__fmt_d+0xd0>
9d003474:	8e060010 	lw	a2,16(s0)
9d003478:	2442ffff 	addiu	v0,v0,-1
9d00347c:	02821821 	addu	v1,s4,v0
9d003480:	1000ffe1 	b	9d003408 <__fmt_d+0xc8>
9d003484:	24040020 	li	a0,32
9d003488:	0463ffc6 	bgezl	v1,9d0033a4 <__fmt_d+0x64>
9d00348c:	7c020844 	ins	v0,zero,0x1,0x1
9d003490:	1000ffc7 	b	9d0033b0 <__fmt_d+0x70>
9d003494:	8fa20020 	lw	v0,32(sp)

Disassembly of section .text.__cvt_u:

9d003498 <__cvt_u>:
9d003498:	27bdffc0 	addiu	sp,sp,-64
9d00349c:	8c820010 	lw	v0,16(a0)
9d0034a0:	afb70034 	sw	s7,52(sp)
9d0034a4:	8c880004 	lw	t0,4(a0)
9d0034a8:	8fb70058 	lw	s7,88(sp)
9d0034ac:	2442ffff 	addiu	v0,v0,-1
9d0034b0:	afbe0038 	sw	s8,56(sp)
9d0034b4:	afb40028 	sw	s4,40(sp)
9d0034b8:	afb30024 	sw	s3,36(sp)
9d0034bc:	afb20020 	sw	s2,32(sp)
9d0034c0:	afb1001c 	sw	s1,28(sp)
9d0034c4:	afb00018 	sw	s0,24(sp)
9d0034c8:	afbf003c 	sw	ra,60(sp)
9d0034cc:	afb60030 	sw	s6,48(sp)
9d0034d0:	afb5002c 	sw	s5,44(sp)
9d0034d4:	00c08025 	move	s0,a2
9d0034d8:	00e08825 	move	s1,a3
9d0034dc:	8fb30054 	lw	s3,84(sp)
9d0034e0:	8c94000c 	lw	s4,12(a0)
9d0034e4:	8efe0000 	lw	s8,0(s7)
9d0034e8:	05010002 	bgez	t0,9d0034f4 <__cvt_u+0x5c>
9d0034ec:	00409025 	move	s2,v0
9d0034f0:	24080001 	li	t0,1
9d0034f4:	02821021 	addu	v0,s4,v0
9d0034f8:	a0400000 	sb	zero,0(v0)
9d0034fc:	0000a825 	move	s5,zero
9d003500:	24090001 	li	t1,1
9d003504:	33de0002 	andi	s8,s8,0x2
9d003508:	0013b7c3 	sra	s6,s3,0x1f
9d00350c:	1e400010 	bgtz	s2,9d003550 <__cvt_u+0xb8>
9d003510:	02111025 	or	v0,s0,s1
9d003514:	5120002e 	beqzl	t1,9d0035d0 <__cvt_u+0x138>
9d003518:	8ee20000 	lw	v0,0(s7)
9d00351c:	8fbf003c 	lw	ra,60(sp)
9d003520:	02401025 	move	v0,s2
9d003524:	8fbe0038 	lw	s8,56(sp)
9d003528:	8fb70034 	lw	s7,52(sp)
9d00352c:	8fb60030 	lw	s6,48(sp)
9d003530:	8fb5002c 	lw	s5,44(sp)
9d003534:	8fb40028 	lw	s4,40(sp)
9d003538:	8fb30024 	lw	s3,36(sp)
9d00353c:	8fb20020 	lw	s2,32(sp)
9d003540:	8fb1001c 	lw	s1,28(sp)
9d003544:	8fb00018 	lw	s0,24(sp)
9d003548:	03e00008 	jr	ra
9d00354c:	27bd0040 	addiu	sp,sp,64
9d003550:	1440000a 	bnez	v0,9d00357c <__cvt_u+0xe4>
9d003554:	02002025 	move	a0,s0
9d003558:	01151023 	subu	v0,t0,s5
9d00355c:	1c400008 	bgtz	v0,9d003580 <__cvt_u+0xe8>
9d003560:	02202825 	move	a1,s1
9d003564:	8fa20050 	lw	v0,80(sp)
9d003568:	00551023 	subu	v0,v0,s5
9d00356c:	1840ffe9 	blez	v0,9d003514 <__cvt_u+0x7c>
9d003570:	00000000 	nop
9d003574:	13c0ffe7 	beqz	s8,9d003514 <__cvt_u+0x7c>
9d003578:	00000000 	nop
9d00357c:	02202825 	move	a1,s1
9d003580:	02603025 	move	a2,s3
9d003584:	02c03825 	move	a3,s6
9d003588:	afa80014 	sw	t0,20(sp)
9d00358c:	0f4008ea 	jal	9d0023a8 <__umoddi3>
9d003590:	2652ffff 	addiu	s2,s2,-1
9d003594:	afa20010 	sw	v0,16(sp)
9d003598:	02921821 	addu	v1,s4,s2
9d00359c:	24420030 	addiu	v0,v0,48
9d0035a0:	02002025 	move	a0,s0
9d0035a4:	02202825 	move	a1,s1
9d0035a8:	a0620000 	sb	v0,0(v1)
9d0035ac:	02603025 	move	a2,s3
9d0035b0:	0f4009e8 	jal	9d0027a0 <__udivdi3>
9d0035b4:	02c03825 	move	a3,s6
9d0035b8:	00408025 	move	s0,v0
9d0035bc:	00608825 	move	s1,v1
9d0035c0:	26b50001 	addiu	s5,s5,1
9d0035c4:	8fa80014 	lw	t0,20(sp)
9d0035c8:	1000ffd0 	b	9d00350c <__cvt_u+0x74>
9d0035cc:	8fa90010 	lw	t1,16(sp)
9d0035d0:	7c022104 	ins	v0,zero,0x4,0x1
9d0035d4:	1000ffd1 	b	9d00351c <__cvt_u+0x84>
9d0035d8:	aee20000 	sw	v0,0(s7)

Disassembly of section .text.__pad:

9d0035dc <__pad>:
9d0035dc:	27bdffc0 	addiu	sp,sp,-64
9d0035e0:	afb40030 	sw	s4,48(sp)
9d0035e4:	8fb40050 	lw	s4,80(sp)
9d0035e8:	afb50034 	sw	s5,52(sp)
9d0035ec:	afb3002c 	sw	s3,44(sp)
9d0035f0:	32940001 	andi	s4,s4,0x1
9d0035f4:	afb20028 	sw	s2,40(sp)
9d0035f8:	afb10024 	sw	s1,36(sp)
9d0035fc:	afb00020 	sw	s0,32(sp)
9d003600:	afbf003c 	sw	ra,60(sp)
9d003604:	afb60038 	sw	s6,56(sp)
9d003608:	00809825 	move	s3,a0
9d00360c:	00a0a825 	move	s5,a1
9d003610:	00c08825 	move	s1,a2
9d003614:	00e09025 	move	s2,a3
9d003618:	16800024 	bnez	s4,9d0036ac <__pad+0xd0>
9d00361c:	00c7802a 	slt	s0,a2,a3
9d003620:	12000023 	beqz	s0,9d0036b0 <__pad+0xd4>
9d003624:	02203025 	move	a2,s1
9d003628:	02518023 	subu	s0,s2,s1
9d00362c:	2e060011 	sltiu	a2,s0,17
9d003630:	24020010 	li	v0,16
9d003634:	0206100b 	movn	v0,s0,a2
9d003638:	00403025 	move	a2,v0
9d00363c:	24050020 	li	a1,32
9d003640:	27a40010 	addiu	a0,sp,16
9d003644:	0f400ffe 	jal	9d003ff8 <memset>
9d003648:	0200b025 	move	s6,s0
9d00364c:	2a020010 	slti	v0,s0,16
9d003650:	1040001e 	beqz	v0,9d0036cc <__pad+0xf0>
9d003654:	24060010 	li	a2,16
9d003658:	32c6000f 	andi	a2,s6,0xf
9d00365c:	27a50010 	addiu	a1,sp,16
9d003660:	0f400f23 	jal	9d003c8c <__out>
9d003664:	02602025 	move	a0,s3
9d003668:	16800006 	bnez	s4,9d003684 <__pad+0xa8>
9d00366c:	8fbf003c 	lw	ra,60(sp)
9d003670:	02203025 	move	a2,s1
9d003674:	02a02825 	move	a1,s5
9d003678:	0f400f23 	jal	9d003c8c <__out>
9d00367c:	02602025 	move	a0,s3
9d003680:	8fbf003c 	lw	ra,60(sp)
9d003684:	02401025 	move	v0,s2
9d003688:	8fb60038 	lw	s6,56(sp)
9d00368c:	8fb50034 	lw	s5,52(sp)
9d003690:	8fb40030 	lw	s4,48(sp)
9d003694:	8fb3002c 	lw	s3,44(sp)
9d003698:	8fb20028 	lw	s2,40(sp)
9d00369c:	8fb10024 	lw	s1,36(sp)
9d0036a0:	8fb00020 	lw	s0,32(sp)
9d0036a4:	03e00008 	jr	ra
9d0036a8:	27bd0040 	addiu	sp,sp,64
9d0036ac:	02203025 	move	a2,s1
9d0036b0:	02a02825 	move	a1,s5
9d0036b4:	0f400f23 	jal	9d003c8c <__out>
9d0036b8:	02602025 	move	a0,s3
9d0036bc:	1600ffdb 	bnez	s0,9d00362c <__pad+0x50>
9d0036c0:	02518023 	subu	s0,s2,s1
9d0036c4:	1000ffee 	b	9d003680 <__pad+0xa4>
9d0036c8:	02209025 	move	s2,s1
9d0036cc:	27a50010 	addiu	a1,sp,16
9d0036d0:	0f400f23 	jal	9d003c8c <__out>
9d0036d4:	02602025 	move	a0,s3
9d0036d8:	1000ffdc 	b	9d00364c <__pad+0x70>
9d0036dc:	2610fff0 	addiu	s0,s0,-16

Disassembly of section .text.__fmt_o:

9d0036e0 <__fmt_o>:
9d0036e0:	8ca20000 	lw	v0,0(a1)
9d0036e4:	8ca30004 	lw	v1,4(a1)
9d0036e8:	27bdffc0 	addiu	sp,sp,-64
9d0036ec:	afb30038 	sw	s3,56(sp)
9d0036f0:	afb20034 	sw	s2,52(sp)
9d0036f4:	afb10030 	sw	s1,48(sp)
9d0036f8:	afb0002c 	sw	s0,44(sp)
9d0036fc:	afbf003c 	sw	ra,60(sp)
9d003700:	00809025 	move	s2,a0
9d003704:	00a08025 	move	s0,a1
9d003708:	8cb30008 	lw	s3,8(a1)
9d00370c:	afa20020 	sw	v0,32(sp)
9d003710:	04600003 	bltz	v1,9d003720 <__fmt_o+0x40>
9d003714:	8cb1000c 	lw	s1,12(a1)
9d003718:	7c020844 	ins	v0,zero,0x1,0x1
9d00371c:	afa20020 	sw	v0,32(sp)
9d003720:	27a20020 	addiu	v0,sp,32
9d003724:	afa20018 	sw	v0,24(sp)
9d003728:	24020008 	li	v0,8
9d00372c:	afa20014 	sw	v0,20(sp)
9d003730:	afb30010 	sw	s3,16(sp)
9d003734:	8cc70004 	lw	a3,4(a2)
9d003738:	8cc60000 	lw	a2,0(a2)
9d00373c:	0f400d26 	jal	9d003498 <__cvt_u>
9d003740:	02002025 	move	a0,s0
9d003744:	8fa30020 	lw	v1,32(sp)
9d003748:	30630010 	andi	v1,v1,0x10
9d00374c:	10600006 	beqz	v1,9d003768 <__fmt_o+0x88>
9d003750:	8fa30020 	lw	v1,32(sp)
9d003754:	2442ffff 	addiu	v0,v0,-1
9d003758:	02221821 	addu	v1,s1,v0
9d00375c:	24040030 	li	a0,48
9d003760:	a0640000 	sb	a0,0(v1)
9d003764:	8fa30020 	lw	v1,32(sp)
9d003768:	30630008 	andi	v1,v1,0x8
9d00376c:	50600006 	beqzl	v1,9d003788 <__fmt_o+0xa8>
9d003770:	8e060010 	lw	a2,16(s0)
9d003774:	2442ffff 	addiu	v0,v0,-1
9d003778:	02221821 	addu	v1,s1,v0
9d00377c:	24040020 	li	a0,32
9d003780:	a0640000 	sb	a0,0(v1)
9d003784:	8e060010 	lw	a2,16(s0)
9d003788:	8fa30020 	lw	v1,32(sp)
9d00378c:	02603825 	move	a3,s3
9d003790:	24c6ffff 	addiu	a2,a2,-1
9d003794:	afa30010 	sw	v1,16(sp)
9d003798:	00c23023 	subu	a2,a2,v0
9d00379c:	02222821 	addu	a1,s1,v0
9d0037a0:	0f400d77 	jal	9d0035dc <__pad>
9d0037a4:	02402025 	move	a0,s2
9d0037a8:	8e430004 	lw	v1,4(s2)
9d0037ac:	30630100 	andi	v1,v1,0x100
9d0037b0:	10600004 	beqz	v1,9d0037c4 <__fmt_o+0xe4>
9d0037b4:	8fbf003c 	lw	ra,60(sp)
9d0037b8:	8e030004 	lw	v1,4(s0)
9d0037bc:	0043202a 	slt	a0,v0,v1
9d0037c0:	0064100b 	movn	v0,v1,a0
9d0037c4:	8fb30038 	lw	s3,56(sp)
9d0037c8:	8fb20034 	lw	s2,52(sp)
9d0037cc:	8fb10030 	lw	s1,48(sp)
9d0037d0:	8fb0002c 	lw	s0,44(sp)
9d0037d4:	03e00008 	jr	ra
9d0037d8:	27bd0040 	addiu	sp,sp,64

Disassembly of section .text.__pop_ptr:

9d0037dc <__pop_ptr>:
9d0037dc:	24020084 	li	v0,132
9d0037e0:	50a20022 	beql	a1,v0,9d00386c <__pop_ptr+0x90>
9d0037e4:	8ce20000 	lw	v0,0(a3)
9d0037e8:	28a20085 	slti	v0,a1,133
9d0037ec:	10400011 	beqz	v0,9d003834 <__pop_ptr+0x58>
9d0037f0:	24020090 	li	v0,144
9d0037f4:	24020081 	li	v0,129
9d0037f8:	50a20008 	beql	a1,v0,9d00381c <__pop_ptr+0x40>
9d0037fc:	8ce20000 	lw	v0,0(a3)
9d003800:	24020082 	li	v0,130
9d003804:	50a20026 	beql	a1,v0,9d0038a0 <__pop_ptr+0xc4>
9d003808:	8ce20000 	lw	v0,0(a3)
9d00380c:	24020080 	li	v0,128
9d003810:	14a20010 	bne	a1,v0,9d003854 <__pop_ptr+0x78>
9d003814:	00000000 	nop
9d003818:	8ce20000 	lw	v0,0(a3)
9d00381c:	24430004 	addiu	v1,v0,4
9d003820:	ace30000 	sw	v1,0(a3)
9d003824:	8c420000 	lw	v0,0(v0)
9d003828:	ac820000 	sw	v0,0(a0)
9d00382c:	10000014 	b	9d003880 <__pop_ptr+0xa4>
9d003830:	ac460000 	sw	a2,0(v0)
9d003834:	50a2001a 	beql	a1,v0,9d0038a0 <__pop_ptr+0xc4>
9d003838:	8ce20000 	lw	v0,0(a3)
9d00383c:	28a20091 	slti	v0,a1,145
9d003840:	10400006 	beqz	v0,9d00385c <__pop_ptr+0x80>
9d003844:	240200a0 	li	v0,160
9d003848:	24020088 	li	v0,136
9d00384c:	50a2000e 	beql	a1,v0,9d003888 <__pop_ptr+0xac>
9d003850:	8ce20000 	lw	v0,0(a3)
9d003854:	03e00008 	jr	ra
9d003858:	00001025 	move	v0,zero
9d00385c:	50a2ffef 	beql	a1,v0,9d00381c <__pop_ptr+0x40>
9d003860:	8ce20000 	lw	v0,0(a3)
9d003864:	1000ffea 	b	9d003810 <__pop_ptr+0x34>
9d003868:	240200c0 	li	v0,192
9d00386c:	24430004 	addiu	v1,v0,4
9d003870:	ace30000 	sw	v1,0(a3)
9d003874:	8c420000 	lw	v0,0(v0)
9d003878:	ac820000 	sw	v0,0(a0)
9d00387c:	a4460000 	sh	a2,0(v0)
9d003880:	03e00008 	jr	ra
9d003884:	24020001 	li	v0,1
9d003888:	24430004 	addiu	v1,v0,4
9d00388c:	ace30000 	sw	v1,0(a3)
9d003890:	8c420000 	lw	v0,0(v0)
9d003894:	ac820000 	sw	v0,0(a0)
9d003898:	1000fff9 	b	9d003880 <__pop_ptr+0xa4>
9d00389c:	a0460000 	sb	a2,0(v0)
9d0038a0:	24430004 	addiu	v1,v0,4
9d0038a4:	ace30000 	sw	v1,0(a3)
9d0038a8:	8c420000 	lw	v0,0(v0)
9d0038ac:	ac820000 	sw	v0,0(a0)
9d0038b0:	ac460000 	sw	a2,0(v0)
9d0038b4:	000637c3 	sra	a2,a2,0x1f
9d0038b8:	1000fff1 	b	9d003880 <__pop_ptr+0xa4>
9d0038bc:	ac460004 	sw	a2,4(v0)

Disassembly of section .text.general_exception:

9d0038c0 <_general_exception_context>:
9d0038c0:	27bdffa8 	addiu	sp,sp,-88
9d0038c4:	afa10004 	sw	at,4(sp)
9d0038c8:	afa20008 	sw	v0,8(sp)
9d0038cc:	afa3000c 	sw	v1,12(sp)
9d0038d0:	afa40010 	sw	a0,16(sp)
9d0038d4:	afa50014 	sw	a1,20(sp)
9d0038d8:	afa60018 	sw	a2,24(sp)
9d0038dc:	afa7001c 	sw	a3,28(sp)
9d0038e0:	afa80020 	sw	t0,32(sp)
9d0038e4:	afa90024 	sw	t1,36(sp)
9d0038e8:	afaa0028 	sw	t2,40(sp)
9d0038ec:	afab002c 	sw	t3,44(sp)
9d0038f0:	afac0030 	sw	t4,48(sp)
9d0038f4:	afad0034 	sw	t5,52(sp)
9d0038f8:	afae0038 	sw	t6,56(sp)
9d0038fc:	afaf003c 	sw	t7,60(sp)
9d003900:	afb80040 	sw	t8,64(sp)
9d003904:	afb90044 	sw	t9,68(sp)
9d003908:	afbf0048 	sw	ra,72(sp)
9d00390c:	00004012 	mflo	t0
9d003910:	afa8004c 	sw	t0,76(sp)
9d003914:	00004010 	mfhi	t0
9d003918:	afa80050 	sw	t0,80(sp)
9d00391c:	3c1a9d00 	lui	k0,0x9d00
9d003920:	275a3e30 	addiu	k0,k0,15920
9d003924:	00000000 	nop
9d003928:	40046800 	mfc0	a0,c0_cause
9d00392c:	40056000 	mfc0	a1,c0_status
9d003930:	0340f809 	jalr	k0
9d003934:	00000000 	nop
9d003938:	8fa80050 	lw	t0,80(sp)
9d00393c:	01000011 	mthi	t0
9d003940:	8fa8004c 	lw	t0,76(sp)
9d003944:	01000013 	mtlo	t0
9d003948:	8fa10004 	lw	at,4(sp)
9d00394c:	8fa20008 	lw	v0,8(sp)
9d003950:	8fa3000c 	lw	v1,12(sp)
9d003954:	8fa40010 	lw	a0,16(sp)
9d003958:	8fa50014 	lw	a1,20(sp)
9d00395c:	8fa60018 	lw	a2,24(sp)
9d003960:	8fa7001c 	lw	a3,28(sp)
9d003964:	8fa80020 	lw	t0,32(sp)
9d003968:	8fa90024 	lw	t1,36(sp)
9d00396c:	8faa0028 	lw	t2,40(sp)
9d003970:	8fab002c 	lw	t3,44(sp)
9d003974:	8fac0030 	lw	t4,48(sp)
9d003978:	8fad0034 	lw	t5,52(sp)
9d00397c:	8fae0038 	lw	t6,56(sp)
9d003980:	8faf003c 	lw	t7,60(sp)
9d003984:	8fb80040 	lw	t8,64(sp)
9d003988:	8fb90044 	lw	t9,68(sp)
9d00398c:	8fbf0048 	lw	ra,72(sp)
9d003990:	27bd0058 	addiu	sp,sp,88
9d003994:	000000c0 	ehb
9d003998:	42000018 	eret

Disassembly of section .text.__fmt_u:

9d00399c <__fmt_u>:
9d00399c:	8ca20000 	lw	v0,0(a1)
9d0039a0:	8ca30004 	lw	v1,4(a1)
9d0039a4:	27bdffc0 	addiu	sp,sp,-64
9d0039a8:	afb30038 	sw	s3,56(sp)
9d0039ac:	afb20034 	sw	s2,52(sp)
9d0039b0:	afb10030 	sw	s1,48(sp)
9d0039b4:	afb0002c 	sw	s0,44(sp)
9d0039b8:	afbf003c 	sw	ra,60(sp)
9d0039bc:	00808825 	move	s1,a0
9d0039c0:	00a08025 	move	s0,a1
9d0039c4:	8cb20008 	lw	s2,8(a1)
9d0039c8:	afa20020 	sw	v0,32(sp)
9d0039cc:	04600003 	bltz	v1,9d0039dc <__fmt_u+0x40>
9d0039d0:	8cb3000c 	lw	s3,12(a1)
9d0039d4:	7c020844 	ins	v0,zero,0x1,0x1
9d0039d8:	afa20020 	sw	v0,32(sp)
9d0039dc:	27a20020 	addiu	v0,sp,32
9d0039e0:	afa20018 	sw	v0,24(sp)
9d0039e4:	2402000a 	li	v0,10
9d0039e8:	afa20014 	sw	v0,20(sp)
9d0039ec:	afb20010 	sw	s2,16(sp)
9d0039f0:	8cc70004 	lw	a3,4(a2)
9d0039f4:	8cc60000 	lw	a2,0(a2)
9d0039f8:	0f400d26 	jal	9d003498 <__cvt_u>
9d0039fc:	02002025 	move	a0,s0
9d003a00:	8e060010 	lw	a2,16(s0)
9d003a04:	8fa30020 	lw	v1,32(sp)
9d003a08:	02403825 	move	a3,s2
9d003a0c:	24c6ffff 	addiu	a2,a2,-1
9d003a10:	afa30010 	sw	v1,16(sp)
9d003a14:	00c23023 	subu	a2,a2,v0
9d003a18:	02622821 	addu	a1,s3,v0
9d003a1c:	0f400d77 	jal	9d0035dc <__pad>
9d003a20:	02202025 	move	a0,s1
9d003a24:	8e230004 	lw	v1,4(s1)
9d003a28:	30630100 	andi	v1,v1,0x100
9d003a2c:	10600004 	beqz	v1,9d003a40 <__fmt_u+0xa4>
9d003a30:	8fbf003c 	lw	ra,60(sp)
9d003a34:	8e030004 	lw	v1,4(s0)
9d003a38:	0043202a 	slt	a0,v0,v1
9d003a3c:	0064100b 	movn	v0,v1,a0
9d003a40:	8fb30038 	lw	s3,56(sp)
9d003a44:	8fb20034 	lw	s2,52(sp)
9d003a48:	8fb10030 	lw	s1,48(sp)
9d003a4c:	8fb0002c 	lw	s0,44(sp)
9d003a50:	03e00008 	jr	ra
9d003a54:	27bd0040 	addiu	sp,sp,64

Disassembly of section .text.__fmt_s:

9d003a58 <__fmt_s>:
9d003a58:	3c036c75 	lui	v1,0x6c75
9d003a5c:	27bdffc8 	addiu	sp,sp,-56
9d003a60:	24636e28 	addiu	v1,v1,28200
9d003a64:	afa30018 	sw	v1,24(sp)
9d003a68:	2403296c 	li	v1,10604
9d003a6c:	afb40030 	sw	s4,48(sp)
9d003a70:	afb3002c 	sw	s3,44(sp)
9d003a74:	afb20028 	sw	s2,40(sp)
9d003a78:	afb10024 	sw	s1,36(sp)
9d003a7c:	afb00020 	sw	s0,32(sp)
9d003a80:	afbf0034 	sw	ra,52(sp)
9d003a84:	00809025 	move	s2,a0
9d003a88:	00e01025 	move	v0,a3
9d003a8c:	a7a3001c 	sh	v1,28(sp)
9d003a90:	a3a0001e 	sb	zero,30(sp)
9d003a94:	8cb10004 	lw	s1,4(a1)
9d003a98:	8cb30008 	lw	s3,8(a1)
9d003a9c:	8cb40000 	lw	s4,0(a1)
9d003aa0:	10c00002 	beqz	a2,9d003aac <__fmt_s+0x54>
9d003aa4:	27b00018 	addiu	s0,sp,24
9d003aa8:	00c08025 	move	s0,a2
9d003aac:	14400003 	bnez	v0,9d003abc <__fmt_s+0x64>
9d003ab0:	00000000 	nop
9d003ab4:	0f40103e 	jal	9d0040f8 <strlen>
9d003ab8:	02002025 	move	a0,s0
9d003abc:	06200002 	bltz	s1,9d003ac8 <__fmt_s+0x70>
9d003ac0:	0222182b 	sltu	v1,s1,v0
9d003ac4:	0223100b 	movn	v0,s1,v1
9d003ac8:	afb40010 	sw	s4,16(sp)
9d003acc:	02603825 	move	a3,s3
9d003ad0:	02002825 	move	a1,s0
9d003ad4:	02402025 	move	a0,s2
9d003ad8:	0f400d77 	jal	9d0035dc <__pad>
9d003adc:	00403025 	move	a2,v0
9d003ae0:	8fbf0034 	lw	ra,52(sp)
9d003ae4:	8fb40030 	lw	s4,48(sp)
9d003ae8:	8fb3002c 	lw	s3,44(sp)
9d003aec:	8fb20028 	lw	s2,40(sp)
9d003af0:	8fb10024 	lw	s1,36(sp)
9d003af4:	8fb00020 	lw	s0,32(sp)
9d003af8:	03e00008 	jr	ra
9d003afc:	27bd0038 	addiu	sp,sp,56

Disassembly of section .text:

9d003b00 <__pic32_data_init>:
9d003b00:	03e01825 	move	v1,ra

9d003b04 <_dinit_init>:
9d003b04:	3c089d00 	lui	t0,0x9d00
9d003b08:	2508401c 	addiu	t0,t0,16412
9d003b0c:	1100001b 	beqz	t0,9d003b7c <_dinit_end+0x18>
9d003b10:	00000000 	nop
9d003b14:	8d090000 	lw	t1,0(t0)
9d003b18:	11200018 	beqz	t1,9d003b7c <_dinit_end+0x18>
9d003b1c:	25080004 	addiu	t0,t0,4
9d003b20:	8d0a0000 	lw	t2,0(t0)
9d003b24:	25080004 	addiu	t0,t0,4
9d003b28:	8d0b0000 	lw	t3,0(t0)
9d003b2c:	11600009 	beqz	t3,9d003b54 <_dinit_clear>
9d003b30:	25080004 	addiu	t0,t0,4

9d003b34 <_dinit_copy>:
9d003b34:	910c0000 	lbu	t4,0(t0)
9d003b38:	254affff 	addiu	t2,t2,-1
9d003b3c:	25080001 	addiu	t0,t0,1
9d003b40:	a12c0000 	sb	t4,0(t1)
9d003b44:	1540fffb 	bnez	t2,9d003b34 <_dinit_copy>
9d003b48:	25290001 	addiu	t1,t1,1
9d003b4c:	10000005 	b	9d003b64 <_dinit_end>
9d003b50:	00000000 	nop

9d003b54 <_dinit_clear>:
9d003b54:	a1200000 	sb	zero,0(t1)
9d003b58:	254affff 	addiu	t2,t2,-1
9d003b5c:	1540fffd 	bnez	t2,9d003b54 <_dinit_clear>
9d003b60:	25290001 	addiu	t1,t1,1

9d003b64 <_dinit_end>:
9d003b64:	25080003 	addiu	t0,t0,3
9d003b68:	240afffc 	li	t2,-4
9d003b6c:	01484024 	and	t0,t2,t0
9d003b70:	8d090000 	lw	t1,0(t0)
9d003b74:	1520ffe7 	bnez	t1,9d003b14 <_dinit_init+0x10>
9d003b78:	00000000 	nop
9d003b7c:	0060f825 	move	ra,v1
9d003b80:	03e00008 	jr	ra
9d003b84:	00000000 	nop
9d003b88:	00000000 	nop

Disassembly of section .text.atoi:

9d003b8c <atoi>:
9d003b8c:	24050020 	li	a1,32
9d003b90:	80820000 	lb	v0,0(a0)
9d003b94:	1045000e 	beq	v0,a1,9d003bd0 <atoi+0x44>
9d003b98:	2443fff7 	addiu	v1,v0,-9
9d003b9c:	2c630005 	sltiu	v1,v1,5
9d003ba0:	5460fffb 	bnezl	v1,9d003b90 <atoi+0x4>
9d003ba4:	24840001 	addiu	a0,a0,1
9d003ba8:	2403002b 	li	v1,43
9d003bac:	1043000a 	beq	v0,v1,9d003bd8 <atoi+0x4c>
9d003bb0:	2403002d 	li	v1,45
9d003bb4:	14430003 	bne	v0,v1,9d003bc4 <atoi+0x38>
9d003bb8:	00002825 	move	a1,zero
9d003bbc:	24050001 	li	a1,1
9d003bc0:	24840001 	addiu	a0,a0,1
9d003bc4:	00001025 	move	v0,zero
9d003bc8:	10000007 	b	9d003be8 <atoi+0x5c>
9d003bcc:	2407000a 	li	a3,10
9d003bd0:	1000ffef 	b	9d003b90 <atoi+0x4>
9d003bd4:	24840001 	addiu	a0,a0,1
9d003bd8:	1000fff9 	b	9d003bc0 <atoi+0x34>
9d003bdc:	00002825 	move	a1,zero
9d003be0:	24840001 	addiu	a0,a0,1
9d003be4:	00431023 	subu	v0,v0,v1
9d003be8:	80830000 	lb	v1,0(a0)
9d003bec:	2463ffd0 	addiu	v1,v1,-48
9d003bf0:	2c66000a 	sltiu	a2,v1,10
9d003bf4:	54c0fffa 	bnezl	a2,9d003be0 <atoi+0x54>
9d003bf8:	70471002 	mul	v0,v0,a3
9d003bfc:	50a00001 	beqzl	a1,9d003c04 <atoi+0x78>
9d003c00:	00021023 	negu	v0,v0
9d003c04:	03e00008 	jr	ra
9d003c08:	00000000 	nop

Disassembly of section .text.__vsnprintf:

9d003c0c <__vsnprintf>:
9d003c0c:	27bdffc8 	addiu	sp,sp,-56
9d003c10:	2403ffff 	li	v1,-1
9d003c14:	afa30010 	sw	v1,16(sp)
9d003c18:	24030102 	li	v1,258
9d003c1c:	00a01025 	move	v0,a1
9d003c20:	afbf0034 	sw	ra,52(sp)
9d003c24:	00c02825 	move	a1,a2
9d003c28:	afa30014 	sw	v1,20(sp)
9d003c2c:	14800002 	bnez	a0,9d003c38 <__vsnprintf+0x2c>
9d003c30:	00e03025 	move	a2,a3
9d003c34:	27a4002c 	addiu	a0,sp,44
9d003c38:	afa40018 	sw	a0,24(sp)
9d003c3c:	afa2001c 	sw	v0,28(sp)
9d003c40:	10400002 	beqz	v0,9d003c4c <__vsnprintf+0x40>
9d003c44:	00001825 	move	v1,zero
9d003c48:	2443ffff 	addiu	v1,v0,-1
9d003c4c:	04410008 	bgez	v0,9d003c70 <__vsnprintf+0x64>
9d003c50:	afa30020 	sw	v1,32(sp)
9d003c54:	3c02a000 	lui	v0,0xa000
9d003c58:	2403004f 	li	v1,79
9d003c5c:	ac430008 	sw	v1,8(v0)
9d003c60:	2402ffff 	li	v0,-1
9d003c64:	8fbf0034 	lw	ra,52(sp)
9d003c68:	03e00008 	jr	ra
9d003c6c:	27bd0038 	addiu	sp,sp,56
9d003c70:	afa40028 	sw	a0,40(sp)
9d003c74:	afa40024 	sw	a0,36(sp)
9d003c78:	a0800000 	sb	zero,0(a0)
9d003c7c:	0f400fd0 	jal	9d003f40 <__vfprintf>
9d003c80:	27a40010 	addiu	a0,sp,16
9d003c84:	1000fff8 	b	9d003c68 <__vsnprintf+0x5c>
9d003c88:	8fbf0034 	lw	ra,52(sp)

Disassembly of section .text.__string_out:

9d003c8c <__out>:
9d003c8c:	8c820010 	lw	v0,16(a0)
9d003c90:	27bdffe0 	addiu	sp,sp,-32
9d003c94:	afb00014 	sw	s0,20(sp)
9d003c98:	00808025 	move	s0,a0
9d003c9c:	8c840014 	lw	a0,20(a0)
9d003ca0:	afb10018 	sw	s1,24(sp)
9d003ca4:	00c2882b 	sltu	s1,a2,v0
9d003ca8:	0051300a 	movz	a2,v0,s1
9d003cac:	afbf001c 	sw	ra,28(sp)
9d003cb0:	0f400fdf 	jal	9d003f7c <memcpy>
9d003cb4:	00c08825 	move	s1,a2
9d003cb8:	8e020014 	lw	v0,20(s0)
9d003cbc:	8e060010 	lw	a2,16(s0)
9d003cc0:	00511021 	addu	v0,v0,s1
9d003cc4:	00d18823 	subu	s1,a2,s1
9d003cc8:	ae110010 	sw	s1,16(s0)
9d003ccc:	ae020014 	sw	v0,20(s0)
9d003cd0:	a0400000 	sb	zero,0(v0)
9d003cd4:	8fbf001c 	lw	ra,28(sp)
9d003cd8:	8fb10018 	lw	s1,24(sp)
9d003cdc:	8fb00014 	lw	s0,20(sp)
9d003ce0:	03e00008 	jr	ra
9d003ce4:	27bd0020 	addiu	sp,sp,32

Disassembly of section .text.__fmt_state:

9d003ce8 <__fmt_state>:
9d003ce8:	3c069d00 	lui	a2,0x9d00
9d003cec:	00001025 	move	v0,zero
9d003cf0:	24c640e0 	addiu	a2,a2,16608
9d003cf4:	00021840 	sll	v1,v0,0x1
9d003cf8:	00661821 	addu	v1,v1,a2
9d003cfc:	80670000 	lb	a3,0(v1)
9d003d00:	54e00003 	bnezl	a3,9d003d10 <__fmt_state+0x28>
9d003d04:	8c850000 	lw	a1,0(a0)
9d003d08:	03e00008 	jr	ra
9d003d0c:	90620001 	lbu	v0,1(v1)
9d003d10:	80a80000 	lb	t0,0(a1)
9d003d14:	15070009 	bne	t0,a3,9d003d3c <__fmt_state+0x54>
9d003d18:	24420001 	addiu	v0,v0,1
9d003d1c:	90620001 	lbu	v0,1(v1)
9d003d20:	24a50001 	addiu	a1,a1,1
9d003d24:	ac850000 	sw	a1,0(a0)
9d003d28:	2c43000b 	sltiu	v1,v0,11
9d003d2c:	1460fff2 	bnez	v1,9d003cf8 <__fmt_state+0x10>
9d003d30:	00021840 	sll	v1,v0,0x1
9d003d34:	03e00008 	jr	ra
9d003d38:	00000000 	nop
9d003d3c:	1000fffa 	b	9d003d28 <__fmt_state+0x40>
9d003d40:	304200ff 	andi	v0,v0,0xff

Disassembly of section .text.main_entry:

9d003d44 <_main_entry>:
9d003d44:	3c040000 	lui	a0,0x0
9d003d48:	27bdffe8 	addiu	sp,sp,-24
9d003d4c:	24840000 	addiu	a0,a0,0
9d003d50:	10800003 	beqz	a0,9d003d60 <_main_entry+0x1c>
9d003d54:	afbf0014 	sw	ra,20(sp)
9d003d58:	0080f809 	jalr	a0
9d003d5c:	00000000 	nop
9d003d60:	30840000 	andi	a0,a0,0x0
9d003d64:	30a50000 	andi	a1,a1,0x0
9d003d68:	3c089d00 	lui	t0,0x9d00
9d003d6c:	25082d84 	addiu	t0,t0,11652
9d003d70:	0100f809 	jalr	t0
9d003d74:	00000000 	nop

9d003d78 <__crt0_exit>:
9d003d78:	3c020000 24420000 10400003 00000000     ...<..B$..@.....
9d003d88:	0040f809 00000000 1000fff9 00000000     ..@.............

Disassembly of section .text.__pop_float:

9d003d98 <__pop_float>:
9d003d98:	28a30080 	slti	v1,a1,128
9d003d9c:	14600010 	bnez	v1,9d003de0 <__pop_float+0x48>
9d003da0:	00001025 	move	v0,zero
9d003da4:	28a20082 	slti	v0,a1,130
9d003da8:	14400003 	bnez	v0,9d003db8 <__pop_float+0x20>
9d003dac:	24030083 	li	v1,131
9d003db0:	14a3000b 	bne	a1,v1,9d003de0 <__pop_float+0x48>
9d003db4:	00001025 	move	v0,zero
9d003db8:	8cc20000 	lw	v0,0(a2)
9d003dbc:	24420007 	addiu	v0,v0,7
9d003dc0:	7c021004 	ins	v0,zero,0x0,0x3
9d003dc4:	24430008 	addiu	v1,v0,8
9d003dc8:	acc30000 	sw	v1,0(a2)
9d003dcc:	8c430004 	lw	v1,4(v0)
9d003dd0:	8c420000 	lw	v0,0(v0)
9d003dd4:	ac830004 	sw	v1,4(a0)
9d003dd8:	ac820000 	sw	v0,0(a0)
9d003ddc:	24020001 	li	v0,1
9d003de0:	03e00008 	jr	ra
9d003de4:	00000000 	nop

Disassembly of section .text._bootstrap_exception_handler:

9d003de8 <_bootstrap_exception_handler>:
9d003de8:	3c020000 	lui	v0,0x0
9d003dec:	24420000 	addiu	v0,v0,0
9d003df0:	10400005 	beqz	v0,9d003e08 <_bootstrap_exception_handler+0x20>
9d003df4:	3c020000 	lui	v0,0x0
9d003df8:	24420000 	addiu	v0,v0,0
9d003dfc:	10400003 	beqz	v0,9d003e0c <_bootstrap_exception_handler+0x24>
9d003e00:	3c029d00 	lui	v0,0x9d00
9d003e04:	7000003f 	sdbbp
9d003e08:	3c029d00 	lui	v0,0x9d00
9d003e0c:	24423ec0 	addiu	v0,v0,16064
9d003e10:	10400005 	beqz	v0,9d003e28 <_bootstrap_exception_handler+0x40>
9d003e14:	00000000 	nop
9d003e18:	27bdffe8 	addiu	sp,sp,-24
9d003e1c:	afbf0014 	sw	ra,20(sp)
9d003e20:	0040f809 	jalr	v0
9d003e24:	00000000 	nop
9d003e28:	1000ffff 	b	9d003e28 <_bootstrap_exception_handler+0x40>
9d003e2c:	00000000 	nop

Disassembly of section .text._general_exception_handler:

9d003e30 <_general_exception_handler>:
9d003e30:	3c020000 	lui	v0,0x0
9d003e34:	24420000 	addiu	v0,v0,0
9d003e38:	10400005 	beqz	v0,9d003e50 <_general_exception_handler+0x20>
9d003e3c:	3c020000 	lui	v0,0x0
9d003e40:	24420000 	addiu	v0,v0,0
9d003e44:	10400003 	beqz	v0,9d003e54 <_general_exception_handler+0x24>
9d003e48:	3c029d00 	lui	v0,0x9d00
9d003e4c:	7000003f 	sdbbp
9d003e50:	3c029d00 	lui	v0,0x9d00
9d003e54:	24423ec0 	addiu	v0,v0,16064
9d003e58:	10400005 	beqz	v0,9d003e70 <_general_exception_handler+0x40>
9d003e5c:	00000000 	nop
9d003e60:	27bdffe8 	addiu	sp,sp,-24
9d003e64:	afbf0014 	sw	ra,20(sp)
9d003e68:	0040f809 	jalr	v0
9d003e6c:	00000000 	nop
9d003e70:	1000ffff 	b	9d003e70 <_general_exception_handler+0x40>
9d003e74:	00000000 	nop

Disassembly of section .vector_default:

9d003e78 <_DefaultInterrupt>:
9d003e78:	3c020000 	lui	v0,0x0
9d003e7c:	24420000 	addiu	v0,v0,0
9d003e80:	10400007 	beqz	v0,9d003ea0 <_DefaultInterrupt+0x28>
9d003e84:	3c020000 	lui	v0,0x0
9d003e88:	24420000 	addiu	v0,v0,0
9d003e8c:	50400005 	beqzl	v0,9d003ea4 <_DefaultInterrupt+0x2c>
9d003e90:	3c029d00 	lui	v0,0x9d00
9d003e94:	7000003f 	sdbbp
9d003e98:	03e00008 	jr	ra
9d003e9c:	00000000 	nop
9d003ea0:	3c029d00 	lui	v0,0x9d00
9d003ea4:	24423ec0 	addiu	v0,v0,16064
9d003ea8:	10400003 	beqz	v0,9d003eb8 <_DefaultInterrupt+0x40>
9d003eac:	00000000 	nop
9d003eb0:	0040f809 	jalr	v0
9d003eb4:	00000000 	nop
9d003eb8:	03e00008 	jr	ra
9d003ebc:	00000000 	nop

Disassembly of section .text:

9d003ec0 <__pic32_software_reset>:
9d003ec0:	41606000 	di
9d003ec4:	000000c0 	ehb
9d003ec8:	3c03aa99 	lui	v1,0xaa99
9d003ecc:	3c02bf81 	lui	v0,0xbf81
9d003ed0:	24636655 	addiu	v1,v1,26197
9d003ed4:	ac40f230 	sw	zero,-3536(v0)
9d003ed8:	ac43f230 	sw	v1,-3536(v0)
9d003edc:	3c035566 	lui	v1,0x5566
9d003ee0:	346399aa 	ori	v1,v1,0x99aa
9d003ee4:	ac43f230 	sw	v1,-3536(v0)
9d003ee8:	3c02bf81 	lui	v0,0xbf81
9d003eec:	24030001 	li	v1,1
9d003ef0:	ac43f618 	sw	v1,-2536(v0)
9d003ef4:	3c02bf81 	lui	v0,0xbf81
9d003ef8:	8c42f610 	lw	v0,-2544(v0)
9d003efc:	0b400fb2 	j	9d003ec8 <__pic32_software_reset+0x8>
9d003f00:	00000000 	nop

Disassembly of section .text.__sio_sprintf_doux:

9d003f04 <__sio_sprintf_doux>:
9d003f04:	27bdffe8 	addiu	sp,sp,-24
9d003f08:	afbf0014 	sw	ra,20(sp)
9d003f0c:	0f400cd0 	jal	9d003340 <__fmt_d>
9d003f10:	00000000 	nop
9d003f14:	0f400db8 	jal	9d0036e0 <__fmt_o>
9d003f18:	00000000 	nop
9d003f1c:	0f400e67 	jal	9d00399c <__fmt_u>
9d003f20:	00000000 	nop
9d003f24:	0f400b7f 	jal	9d002dfc <__fmt_x>
9d003f28:	00000000 	nop
9d003f2c:	0f400e96 	jal	9d003a58 <__fmt_s>
9d003f30:	00000000 	nop
9d003f34:	8fbf0014 	lw	ra,20(sp)
9d003f38:	03e00008 	jr	ra
9d003f3c:	27bd0018 	addiu	sp,sp,24

Disassembly of section .text.__vfprintf:

9d003f40 <__vfprintf>:
9d003f40:	27bdffe0 	addiu	sp,sp,-32
9d003f44:	afb00018 	sw	s0,24(sp)
9d003f48:	afa60010 	sw	a2,16(sp)
9d003f4c:	00808025 	move	s0,a0
9d003f50:	afbf001c 	sw	ra,28(sp)
9d003f54:	0f400788 	jal	9d001e20 <__printf_core>
9d003f58:	27a60010 	addiu	a2,sp,16
9d003f5c:	8e030004 	lw	v1,4(s0)
9d003f60:	8fbf001c 	lw	ra,28(sp)
9d003f64:	2404ffff 	li	a0,-1
9d003f68:	30630010 	andi	v1,v1,0x10
9d003f6c:	0083100b 	movn	v0,a0,v1
9d003f70:	8fb00018 	lw	s0,24(sp)
9d003f74:	03e00008 	jr	ra
9d003f78:	27bd0020 	addiu	sp,sp,32

Disassembly of section .text.memcpy:

9d003f7c <memcpy>:
9d003f7c:	00801025 	move	v0,a0
9d003f80:	00001825 	move	v1,zero
9d003f84:	14c30003 	bne	a2,v1,9d003f94 <memcpy+0x18>
9d003f88:	00a33821 	addu	a3,a1,v1
9d003f8c:	03e00008 	jr	ra
9d003f90:	00000000 	nop
9d003f94:	90e70000 	lbu	a3,0(a3)
9d003f98:	00432021 	addu	a0,v0,v1
9d003f9c:	24630001 	addiu	v1,v1,1
9d003fa0:	1000fff8 	b	9d003f84 <memcpy+0x8>
9d003fa4:	a0870000 	sb	a3,0(a0)

Disassembly of section .text.__wrap_sprintf:

9d003fa8 <_dsprintf_cdnopuxX>:
9d003fa8:	27bdffe0 	addiu	sp,sp,-32
9d003fac:	afa60028 	sw	a2,40(sp)
9d003fb0:	27a60028 	addiu	a2,sp,40
9d003fb4:	afbf001c 	sw	ra,28(sp)
9d003fb8:	afa7002c 	sw	a3,44(sp)
9d003fbc:	0f400ff4 	jal	9d003fd0 <__vsprintf>
9d003fc0:	afa60010 	sw	a2,16(sp)
9d003fc4:	8fbf001c 	lw	ra,28(sp)
9d003fc8:	03e00008 	jr	ra
9d003fcc:	27bd0020 	addiu	sp,sp,32

Disassembly of section .text.__vsprintf:

9d003fd0 <__vsprintf>:
9d003fd0:	00c03825 	move	a3,a2
9d003fd4:	00a03025 	move	a2,a1
9d003fd8:	3c057fff 	lui	a1,0x7fff
9d003fdc:	27bdffe8 	addiu	sp,sp,-24
9d003fe0:	afbf0014 	sw	ra,20(sp)
9d003fe4:	0f400f03 	jal	9d003c0c <__vsnprintf>
9d003fe8:	34a5ffff 	ori	a1,a1,0xffff
9d003fec:	8fbf0014 	lw	ra,20(sp)
9d003ff0:	03e00008 	jr	ra
9d003ff4:	27bd0018 	addiu	sp,sp,24

Disassembly of section .text.memset:

9d003ff8 <memset>:
9d003ff8:	00801025 	move	v0,a0
9d003ffc:	00863021 	addu	a2,a0,a2
9d004000:	00801825 	move	v1,a0
9d004004:	14660003 	bne	v1,a2,9d004014 <memset+0x1c>
9d004008:	24630001 	addiu	v1,v1,1
9d00400c:	03e00008 	jr	ra
9d004010:	00000000 	nop
9d004014:	1000fffb 	b	9d004004 <memset+0xc>
9d004018:	a065ffff 	sb	a1,-1(v1)

Disassembly of section .dinit:

9d00401c <.dinit>:
9d00401c:	a0000000 	sb	zero,0(zero)
9d004020:	00000008 	jr	zero
9d004024:	00000000 	nop
9d004028:	a0000008 	sb	zero,8(zero)
9d00402c:	00000004 	sllv	zero,zero,zero
	...
9d004038:	22222222 	addi	v0,s1,8738

Disassembly of section .text.tolower:

9d00403c <tolower>:
9d00403c:	2483ffbf 	addiu	v1,a0,-65
9d004040:	2c63001a 	sltiu	v1,v1,26
9d004044:	10600002 	beqz	v1,9d004050 <tolower+0x14>
9d004048:	00801025 	move	v0,a0
9d00404c:	34820020 	ori	v0,a0,0x20
9d004050:	03e00008 	jr	ra
9d004054:	00000000 	nop

Disassembly of section .text.__tolower_l:

9d004058 <__tolower_l>:
9d004058:	27bdffe8 	addiu	sp,sp,-24
9d00405c:	afbf0014 	sw	ra,20(sp)
9d004060:	0f40100f 	jal	9d00403c <tolower>
9d004064:	00000000 	nop
9d004068:	8fbf0014 	lw	ra,20(sp)
9d00406c:	03e00008 	jr	ra
9d004070:	27bd0018 	addiu	sp,sp,24

Disassembly of section .text.toupper:

9d004074 <toupper>:
9d004074:	2483ff9f 	addiu	v1,a0,-97
9d004078:	2c63001a 	sltiu	v1,v1,26
9d00407c:	10600002 	beqz	v1,9d004088 <toupper+0x14>
9d004080:	00801025 	move	v0,a0
9d004084:	3082005f 	andi	v0,a0,0x5f
9d004088:	03e00008 	jr	ra
9d00408c:	00000000 	nop

Disassembly of section .text.__toupper_l:

9d004090 <__toupper_l>:
9d004090:	27bdffe8 	addiu	sp,sp,-24
9d004094:	afbf0014 	sw	ra,20(sp)
9d004098:	0f40101d 	jal	9d004074 <toupper>
9d00409c:	00000000 	nop
9d0040a0:	8fbf0014 	lw	ra,20(sp)
9d0040a4:	03e00008 	jr	ra
9d0040a8:	27bd0018 	addiu	sp,sp,24

Disassembly of section .text:

9d0040c8 <_nmi_handler>:
9d0040c8:	401a6000 	mfc0	k0,c0_status
9d0040cc:	3c1bffbf 	lui	k1,0xffbf
9d0040d0:	377bffff 	ori	k1,k1,0xffff
9d0040d4:	035bd024 	and	k0,k0,k1
9d0040d8:	409a6000 	mtc0	k0,c0_status
9d0040dc:	42000018 	eret

Disassembly of section .rodata:

9d0040e0 <state_table>:
9d0040e0:	096c0768 906a834c c07aa074 88688000     h.l.L.j.t.z...h.
9d0040f0:	826c8400 00008100                       ..l.....

Disassembly of section .text.strlen:

9d0040f8 <strlen>:
9d0040f8:	00801025 	move	v0,a0
9d0040fc:	80430000 	lb	v1,0(v0)
9d004100:	5460fffe 	bnezl	v1,9d0040fc <strlen+0x4>
9d004104:	24420001 	addiu	v0,v0,1
9d004108:	03e00008 	jr	ra
9d00410c:	00441023 	subu	v0,v0,a0

Disassembly of section .text._on_reset:

9d004110 <_on_reset>:
9d004110:	03e00008 	jr	ra
9d004114:	00000000 	nop

Disassembly of section .text._on_bootstrap:

9d004118 <_on_bootstrap>:
9d004118:	03e00008 	jr	ra
9d00411c:	00000000 	nop

Disassembly of section .text.__dummy_fmt3:

9d004120 <__dummy_fmt3>:
9d004120:	03e00008 	jr	ra
9d004124:	00001025 	move	v0,zero

Disassembly of section .text.__dummy_fmt4:

9d004128 <__fmt_a>:
9d004128:	03e00008 	jr	ra
9d00412c:	00001025 	move	v0,zero

Disassembly of section .text.__dummy_fmts:

9d004130 <__dummy_fmts>:
9d004130:	03e00008 	jr	ra
9d004134:	00001025 	move	v0,zero
